Archive member included to satisfy reference by file (symbol)

../../platform/ns/libplatform_ns.a(uart_stdout.o)
                              CMakeFiles/tfm_ns.dir/__/log/tfm_log_raw.o (stdio_output_string)
../../platform/ns/libplatform_ns.a(system_stm32l5xx.o)
                              CMakeFiles/tfm_ns.dir/__/__/__/platform/ext/target/stm/common/stm32l5xx/Device/Source/startup_stm32l5xx_ns.o (SystemInit)
../../platform/ns/libplatform_ns.a(low_level_com.o)
                              ../../platform/ns/libplatform_ns.a(uart_stdout.o) (Driver_USART0)
../../platform/ns/libplatform_ns.a(stm32l5xx_hal_pwr_ex.o)
                              ../../platform/ns/libplatform_ns.a(low_level_com.o) (HAL_PWREx_EnableVddIO2)
../../platform/ns/libplatform_ns.a(stm32l5xx_hal_gpio.o)
                              ../../platform/ns/libplatform_ns.a(low_level_com.o) (HAL_GPIO_Init)
../../platform/ns/libplatform_ns.a(stm32l5xx_hal_uart.o)
                              ../../platform/ns/libplatform_ns.a(low_level_com.o) (HAL_UART_Transmit)
../../platform/ns/libplatform_ns.a(stm32l5xx_hal_uart_ex.o)
                              ../../platform/ns/libplatform_ns.a(stm32l5xx_hal_uart.o) (HAL_UARTEx_WakeupCallback)
../../platform/ns/libplatform_ns.a(stm32l5xx_hal.o)
                              ../../platform/ns/libplatform_ns.a(stm32l5xx_hal_uart.o) (HAL_GetTick)
../../platform/ns/libplatform_ns.a(stm32l5xx_hal_dma.o)
                              ../../platform/ns/libplatform_ns.a(stm32l5xx_hal_uart.o) (HAL_DMA_Start_IT)
../../platform/ns/libplatform_ns.a(stm32l5xx_hal_pwr.o)
                              ../../platform/ns/libplatform_ns.a(stm32l5xx_hal_pwr_ex.o) (HAL_PWR_PVDCallback)
../../platform/ns/libplatform_ns.a(stm32l5xx_hal_rcc.o)
                              ../../platform/ns/libplatform_ns.a(stm32l5xx_hal_uart.o) (HAL_RCC_GetSysClockFreq)
../../platform/ns/libplatform_ns.a(stm32l5xx_hal_cortex.o)
                              ../../platform/ns/libplatform_ns.a(stm32l5xx_hal.o) (HAL_NVIC_SetPriorityGrouping)
libtfm_test_app.a(test_app.o)
                              CMakeFiles/tfm_ns.dir/main_ns.o (test_app)
../../lib/ext/tfm_test_repo-src/CMSIS/RTOS2/RTX/Library/GCC/libRTX_V8MMN.a(irq_armv8mml.o)
                              CMakeFiles/tfm_ns.dir/__/CMSIS/RTOS2/RTX/Source/rtx_lib.o (irqRtxLib)
../../lib/ext/tfm_test_repo-src/CMSIS/RTOS2/RTX/Library/GCC/libRTX_V8MMN.a(rtx_system.o)
                              ../../lib/ext/tfm_test_repo-src/CMSIS/RTOS2/RTX/Library/GCC/libRTX_V8MMN.a(irq_armv8mml.o) (osRtxTick_Handler)
../../lib/ext/tfm_test_repo-src/CMSIS/RTOS2/RTX/Library/GCC/libRTX_V8MMN.a(rtx_msgqueue.o)
                              CMakeFiles/tfm_ns.dir/os_wrapper_cmsis_rtos_v2.o (osMessageQueueNew)
../../lib/ext/tfm_test_repo-src/CMSIS/RTOS2/RTX/Library/GCC/libRTX_V8MMN.a(rtx_mempool.o)
                              ../../lib/ext/tfm_test_repo-src/CMSIS/RTOS2/RTX/Library/GCC/libRTX_V8MMN.a(rtx_msgqueue.o) (osRtxMemoryPoolInit)
../../lib/ext/tfm_test_repo-src/CMSIS/RTOS2/RTX/Library/GCC/libRTX_V8MMN.a(rtx_memory.o)
                              ../../lib/ext/tfm_test_repo-src/CMSIS/RTOS2/RTX/Library/GCC/libRTX_V8MMN.a(rtx_msgqueue.o) (osRtxMemoryAlloc)
../../lib/ext/tfm_test_repo-src/CMSIS/RTOS2/RTX/Library/GCC/libRTX_V8MMN.a(rtx_semaphore.o)
                              CMakeFiles/tfm_ns.dir/os_wrapper_cmsis_rtos_v2.o (osSemaphoreNew)
../../lib/ext/tfm_test_repo-src/CMSIS/RTOS2/RTX/Library/GCC/libRTX_V8MMN.a(rtx_mutex.o)
                              CMakeFiles/tfm_ns.dir/os_wrapper_cmsis_rtos_v2.o (osMutexNew)
../../lib/ext/tfm_test_repo-src/CMSIS/RTOS2/RTX/Library/GCC/libRTX_V8MMN.a(rtx_delay.o)
                              CMakeFiles/tfm_ns.dir/os_wrapper_cmsis_rtos_v2.o (osDelay)
../../lib/ext/tfm_test_repo-src/CMSIS/RTOS2/RTX/Library/GCC/libRTX_V8MMN.a(rtx_thread.o)
                              CMakeFiles/tfm_ns.dir/os_wrapper_cmsis_rtos_v2.o (osThreadExit)
../../lib/ext/tfm_test_repo-src/CMSIS/RTOS2/RTX/Library/GCC/libRTX_V8MMN.a(rtx_kernel.o)
                              CMakeFiles/tfm_ns.dir/main_ns.o (osKernelInitialize)
../../lib/ext/tfm_test_repo-src/CMSIS/RTOS2/RTX/Library/GCC/libRTX_V8MMN.a(os_systick.o)
                              ../../lib/ext/tfm_test_repo-src/CMSIS/RTOS2/RTX/Library/GCC/libRTX_V8MMN.a(rtx_kernel.o) (OS_Tick_Setup)
../../lib/ext/tfm_test_repo-src/CMSIS/RTOS2/RTX/Library/GCC/libRTX_V8MMN.a(rtx_timer.o)
                              ../../lib/ext/tfm_test_repo-src/CMSIS/RTOS2/RTX/Library/GCC/libRTX_V8MMN.a(rtx_thread.o) (osRtxTimerThread)
libtfm_api_ns.a(tfm_psa_ns_api.o)
                              CMakeFiles/tfm_ns.dir/main_ns.o (psa_call)
libtfm_api_ns.a(tfm_ns_interface.o)
                              libtfm_api_ns.a(tfm_psa_ns_api.o) (tfm_ns_interface_dispatch)
../../secure_fw/libtfm_s_veneers.a(s_veneers.o)
                              libtfm_api_ns.a(tfm_psa_ns_api.o) (tfm_psa_framework_version_veneer)
/usr/lib/gcc/arm-none-eabi/9.2.1/thumb/v8-m.main/nofp/libgcc.a(_aeabi_ldivmod.o)
                              ../../platform/ns/libplatform_ns.a(stm32l5xx_hal_uart.o) (__aeabi_ldivmod)
/usr/lib/gcc/arm-none-eabi/9.2.1/thumb/v8-m.main/nofp/libgcc.a(_aeabi_uldivmod.o)
                              ../../platform/ns/libplatform_ns.a(stm32l5xx_hal_uart.o) (__aeabi_uldivmod)
/usr/lib/gcc/arm-none-eabi/9.2.1/thumb/v8-m.main/nofp/libgcc.a(_udivmoddi4.o)
                              /usr/lib/gcc/arm-none-eabi/9.2.1/thumb/v8-m.main/nofp/libgcc.a(_aeabi_ldivmod.o) (__udivmoddi4)
/usr/lib/gcc/arm-none-eabi/9.2.1/thumb/v8-m.main/nofp/libgcc.a(_dvmd_tls.o)
                              /usr/lib/gcc/arm-none-eabi/9.2.1/thumb/v8-m.main/nofp/libgcc.a(_aeabi_ldivmod.o) (__aeabi_ldiv0)
/usr/lib/gcc/arm-none-eabi/9.2.1/../../../arm-none-eabi/lib/thumb/v8-m.main/nofp/libg_nano.a(lib_a-assert.o)
                              ../../platform/ns/libplatform_ns.a(uart_stdout.o) (__assert_func)
/usr/lib/gcc/arm-none-eabi/9.2.1/../../../arm-none-eabi/lib/thumb/v8-m.main/nofp/libg_nano.a(lib_a-atexit.o)
                              /usr/lib/gcc/arm-none-eabi/9.2.1/../../../arm-none-eabi/lib/thumb/v8-m.main/nofp/crt0.o (atexit)
/usr/lib/gcc/arm-none-eabi/9.2.1/../../../arm-none-eabi/lib/thumb/v8-m.main/nofp/libg_nano.a(lib_a-exit.o)
                              /usr/lib/gcc/arm-none-eabi/9.2.1/../../../arm-none-eabi/lib/thumb/v8-m.main/nofp/crt0.o (exit)
/usr/lib/gcc/arm-none-eabi/9.2.1/../../../arm-none-eabi/lib/thumb/v8-m.main/nofp/libg_nano.a(lib_a-fini.o)
                              /usr/lib/gcc/arm-none-eabi/9.2.1/../../../arm-none-eabi/lib/thumb/v8-m.main/nofp/crt0.o (__libc_fini_array)
/usr/lib/gcc/arm-none-eabi/9.2.1/../../../arm-none-eabi/lib/thumb/v8-m.main/nofp/libg_nano.a(lib_a-fprintf.o)
                              /usr/lib/gcc/arm-none-eabi/9.2.1/../../../arm-none-eabi/lib/thumb/v8-m.main/nofp/libg_nano.a(lib_a-assert.o) (fiprintf)
/usr/lib/gcc/arm-none-eabi/9.2.1/../../../arm-none-eabi/lib/thumb/v8-m.main/nofp/libg_nano.a(lib_a-impure.o)
                              /usr/lib/gcc/arm-none-eabi/9.2.1/../../../arm-none-eabi/lib/thumb/v8-m.main/nofp/libg_nano.a(lib_a-exit.o) (_global_impure_ptr)
/usr/lib/gcc/arm-none-eabi/9.2.1/../../../arm-none-eabi/lib/thumb/v8-m.main/nofp/libg_nano.a(lib_a-init.o)
                              /usr/lib/gcc/arm-none-eabi/9.2.1/../../../arm-none-eabi/lib/thumb/v8-m.main/nofp/crt0.o (__libc_init_array)
/usr/lib/gcc/arm-none-eabi/9.2.1/../../../arm-none-eabi/lib/thumb/v8-m.main/nofp/libg_nano.a(lib_a-memcpy.o)
                              ../../lib/ext/tfm_test_repo-src/CMSIS/RTOS2/RTX/Library/GCC/libRTX_V8MMN.a(rtx_msgqueue.o) (memcpy)
/usr/lib/gcc/arm-none-eabi/9.2.1/../../../arm-none-eabi/lib/thumb/v8-m.main/nofp/libg_nano.a(lib_a-memset.o)
                              /usr/lib/gcc/arm-none-eabi/9.2.1/../../../arm-none-eabi/lib/thumb/v8-m.main/nofp/crt0.o (memset)
/usr/lib/gcc/arm-none-eabi/9.2.1/../../../arm-none-eabi/lib/thumb/v8-m.main/nofp/libg_nano.a(lib_a-nano-vfprintf.o)
                              /usr/lib/gcc/arm-none-eabi/9.2.1/../../../arm-none-eabi/lib/thumb/v8-m.main/nofp/libg_nano.a(lib_a-fprintf.o) (_vfprintf_r)
/usr/lib/gcc/arm-none-eabi/9.2.1/../../../arm-none-eabi/lib/thumb/v8-m.main/nofp/libg_nano.a(lib_a-nano-vfprintf_i.o)
                              /usr/lib/gcc/arm-none-eabi/9.2.1/../../../arm-none-eabi/lib/thumb/v8-m.main/nofp/libg_nano.a(lib_a-nano-vfprintf.o) (_printf_i)
/usr/lib/gcc/arm-none-eabi/9.2.1/../../../arm-none-eabi/lib/thumb/v8-m.main/nofp/libg_nano.a(lib_a-wbuf.o)
                              /usr/lib/gcc/arm-none-eabi/9.2.1/../../../arm-none-eabi/lib/thumb/v8-m.main/nofp/libg_nano.a(lib_a-nano-vfprintf.o) (__swbuf_r)
/usr/lib/gcc/arm-none-eabi/9.2.1/../../../arm-none-eabi/lib/thumb/v8-m.main/nofp/libg_nano.a(lib_a-wsetup.o)
                              /usr/lib/gcc/arm-none-eabi/9.2.1/../../../arm-none-eabi/lib/thumb/v8-m.main/nofp/libg_nano.a(lib_a-nano-vfprintf.o) (__swsetup_r)
/usr/lib/gcc/arm-none-eabi/9.2.1/../../../arm-none-eabi/lib/thumb/v8-m.main/nofp/libg_nano.a(lib_a-__atexit.o)
                              /usr/lib/gcc/arm-none-eabi/9.2.1/../../../arm-none-eabi/lib/thumb/v8-m.main/nofp/libg_nano.a(lib_a-atexit.o) (__register_exitproc)
/usr/lib/gcc/arm-none-eabi/9.2.1/../../../arm-none-eabi/lib/thumb/v8-m.main/nofp/libg_nano.a(lib_a-__call_atexit.o)
                              /usr/lib/gcc/arm-none-eabi/9.2.1/../../../arm-none-eabi/lib/thumb/v8-m.main/nofp/libg_nano.a(lib_a-__atexit.o) (__call_exitprocs)
/usr/lib/gcc/arm-none-eabi/9.2.1/../../../arm-none-eabi/lib/thumb/v8-m.main/nofp/libg_nano.a(lib_a-abort.o)
                              /usr/lib/gcc/arm-none-eabi/9.2.1/../../../arm-none-eabi/lib/thumb/v8-m.main/nofp/libg_nano.a(lib_a-assert.o) (abort)
/usr/lib/gcc/arm-none-eabi/9.2.1/../../../arm-none-eabi/lib/thumb/v8-m.main/nofp/libg_nano.a(lib_a-fflush.o)
                              /usr/lib/gcc/arm-none-eabi/9.2.1/../../../arm-none-eabi/lib/thumb/v8-m.main/nofp/libg_nano.a(lib_a-wbuf.o) (_fflush_r)
/usr/lib/gcc/arm-none-eabi/9.2.1/../../../arm-none-eabi/lib/thumb/v8-m.main/nofp/libg_nano.a(lib_a-findfp.o)
                              /usr/lib/gcc/arm-none-eabi/9.2.1/../../../arm-none-eabi/lib/thumb/v8-m.main/nofp/libg_nano.a(lib_a-nano-vfprintf.o) (__sinit)
/usr/lib/gcc/arm-none-eabi/9.2.1/../../../arm-none-eabi/lib/thumb/v8-m.main/nofp/libg_nano.a(lib_a-fvwrite.o)
                              /usr/lib/gcc/arm-none-eabi/9.2.1/../../../arm-none-eabi/lib/thumb/v8-m.main/nofp/libg_nano.a(lib_a-nano-vfprintf.o) (__sfvwrite_r)
/usr/lib/gcc/arm-none-eabi/9.2.1/../../../arm-none-eabi/lib/thumb/v8-m.main/nofp/libg_nano.a(lib_a-fwalk.o)
                              /usr/lib/gcc/arm-none-eabi/9.2.1/../../../arm-none-eabi/lib/thumb/v8-m.main/nofp/libg_nano.a(lib_a-findfp.o) (_fwalk)
/usr/lib/gcc/arm-none-eabi/9.2.1/../../../arm-none-eabi/lib/thumb/v8-m.main/nofp/libg_nano.a(lib_a-makebuf.o)
                              /usr/lib/gcc/arm-none-eabi/9.2.1/../../../arm-none-eabi/lib/thumb/v8-m.main/nofp/libg_nano.a(lib_a-wsetup.o) (__smakebuf_r)
/usr/lib/gcc/arm-none-eabi/9.2.1/../../../arm-none-eabi/lib/thumb/v8-m.main/nofp/libg_nano.a(lib_a-memchr-stub.o)
                              /usr/lib/gcc/arm-none-eabi/9.2.1/../../../arm-none-eabi/lib/thumb/v8-m.main/nofp/libg_nano.a(lib_a-nano-vfprintf.o) (memchr)
/usr/lib/gcc/arm-none-eabi/9.2.1/../../../arm-none-eabi/lib/thumb/v8-m.main/nofp/libg_nano.a(lib_a-memmove.o)
                              /usr/lib/gcc/arm-none-eabi/9.2.1/../../../arm-none-eabi/lib/thumb/v8-m.main/nofp/libg_nano.a(lib_a-fvwrite.o) (memmove)
/usr/lib/gcc/arm-none-eabi/9.2.1/../../../arm-none-eabi/lib/thumb/v8-m.main/nofp/libg_nano.a(lib_a-nano-freer.o)
                              /usr/lib/gcc/arm-none-eabi/9.2.1/../../../arm-none-eabi/lib/thumb/v8-m.main/nofp/libg_nano.a(lib_a-wsetup.o) (_free_r)
/usr/lib/gcc/arm-none-eabi/9.2.1/../../../arm-none-eabi/lib/thumb/v8-m.main/nofp/libg_nano.a(lib_a-nano-mallocr.o)
                              /usr/lib/gcc/arm-none-eabi/9.2.1/../../../arm-none-eabi/lib/thumb/v8-m.main/nofp/libg_nano.a(lib_a-findfp.o) (_malloc_r)
/usr/lib/gcc/arm-none-eabi/9.2.1/../../../arm-none-eabi/lib/thumb/v8-m.main/nofp/libg_nano.a(lib_a-nano-reallocr.o)
                              /usr/lib/gcc/arm-none-eabi/9.2.1/../../../arm-none-eabi/lib/thumb/v8-m.main/nofp/libg_nano.a(lib_a-fvwrite.o) (_realloc_r)
/usr/lib/gcc/arm-none-eabi/9.2.1/../../../arm-none-eabi/lib/thumb/v8-m.main/nofp/libg_nano.a(lib_a-sbrkr.o)
                              /usr/lib/gcc/arm-none-eabi/9.2.1/../../../arm-none-eabi/lib/thumb/v8-m.main/nofp/libg_nano.a(lib_a-nano-mallocr.o) (_sbrk_r)
/usr/lib/gcc/arm-none-eabi/9.2.1/../../../arm-none-eabi/lib/thumb/v8-m.main/nofp/libg_nano.a(lib_a-signal.o)
                              /usr/lib/gcc/arm-none-eabi/9.2.1/../../../arm-none-eabi/lib/thumb/v8-m.main/nofp/libg_nano.a(lib_a-abort.o) (raise)
/usr/lib/gcc/arm-none-eabi/9.2.1/../../../arm-none-eabi/lib/thumb/v8-m.main/nofp/libg_nano.a(lib_a-signalr.o)
                              /usr/lib/gcc/arm-none-eabi/9.2.1/../../../arm-none-eabi/lib/thumb/v8-m.main/nofp/libg_nano.a(lib_a-signal.o) (_kill_r)
/usr/lib/gcc/arm-none-eabi/9.2.1/../../../arm-none-eabi/lib/thumb/v8-m.main/nofp/libg_nano.a(lib_a-stdio.o)
                              /usr/lib/gcc/arm-none-eabi/9.2.1/../../../arm-none-eabi/lib/thumb/v8-m.main/nofp/libg_nano.a(lib_a-findfp.o) (__sread)
/usr/lib/gcc/arm-none-eabi/9.2.1/../../../arm-none-eabi/lib/thumb/v8-m.main/nofp/libg_nano.a(lib_a-writer.o)
                              /usr/lib/gcc/arm-none-eabi/9.2.1/../../../arm-none-eabi/lib/thumb/v8-m.main/nofp/libg_nano.a(lib_a-stdio.o) (_write_r)
/usr/lib/gcc/arm-none-eabi/9.2.1/../../../arm-none-eabi/lib/thumb/v8-m.main/nofp/libg_nano.a(lib_a-closer.o)
                              /usr/lib/gcc/arm-none-eabi/9.2.1/../../../arm-none-eabi/lib/thumb/v8-m.main/nofp/libg_nano.a(lib_a-stdio.o) (_close_r)
/usr/lib/gcc/arm-none-eabi/9.2.1/../../../arm-none-eabi/lib/thumb/v8-m.main/nofp/libg_nano.a(lib_a-fstatr.o)
                              /usr/lib/gcc/arm-none-eabi/9.2.1/../../../arm-none-eabi/lib/thumb/v8-m.main/nofp/libg_nano.a(lib_a-makebuf.o) (_fstat_r)
/usr/lib/gcc/arm-none-eabi/9.2.1/../../../arm-none-eabi/lib/thumb/v8-m.main/nofp/libg_nano.a(lib_a-isattyr.o)
                              /usr/lib/gcc/arm-none-eabi/9.2.1/../../../arm-none-eabi/lib/thumb/v8-m.main/nofp/libg_nano.a(lib_a-makebuf.o) (_isatty_r)
/usr/lib/gcc/arm-none-eabi/9.2.1/../../../arm-none-eabi/lib/thumb/v8-m.main/nofp/libg_nano.a(lib_a-lseekr.o)
                              /usr/lib/gcc/arm-none-eabi/9.2.1/../../../arm-none-eabi/lib/thumb/v8-m.main/nofp/libg_nano.a(lib_a-stdio.o) (_lseek_r)
/usr/lib/gcc/arm-none-eabi/9.2.1/../../../arm-none-eabi/lib/thumb/v8-m.main/nofp/libg_nano.a(lib_a-mlock.o)
                              /usr/lib/gcc/arm-none-eabi/9.2.1/../../../arm-none-eabi/lib/thumb/v8-m.main/nofp/libg_nano.a(lib_a-nano-freer.o) (__malloc_lock)
/usr/lib/gcc/arm-none-eabi/9.2.1/../../../arm-none-eabi/lib/thumb/v8-m.main/nofp/libg_nano.a(lib_a-nano-msizer.o)
                              /usr/lib/gcc/arm-none-eabi/9.2.1/../../../arm-none-eabi/lib/thumb/v8-m.main/nofp/libg_nano.a(lib_a-nano-reallocr.o) (_malloc_usable_size_r)
/usr/lib/gcc/arm-none-eabi/9.2.1/../../../arm-none-eabi/lib/thumb/v8-m.main/nofp/libg_nano.a(lib_a-readr.o)
                              /usr/lib/gcc/arm-none-eabi/9.2.1/../../../arm-none-eabi/lib/thumb/v8-m.main/nofp/libg_nano.a(lib_a-stdio.o) (_read_r)
/usr/lib/gcc/arm-none-eabi/9.2.1/../../../arm-none-eabi/lib/thumb/v8-m.main/nofp/libg_nano.a(lib_a-reent.o)
                              /usr/lib/gcc/arm-none-eabi/9.2.1/../../../arm-none-eabi/lib/thumb/v8-m.main/nofp/libg_nano.a(lib_a-sbrkr.o) (errno)
/usr/lib/gcc/arm-none-eabi/9.2.1/../../../arm-none-eabi/lib/thumb/v8-m.main/nofp/libnosys.a(close.o)
                              /usr/lib/gcc/arm-none-eabi/9.2.1/../../../arm-none-eabi/lib/thumb/v8-m.main/nofp/libg_nano.a(lib_a-closer.o) (_close)
/usr/lib/gcc/arm-none-eabi/9.2.1/../../../arm-none-eabi/lib/thumb/v8-m.main/nofp/libnosys.a(fstat.o)
                              /usr/lib/gcc/arm-none-eabi/9.2.1/../../../arm-none-eabi/lib/thumb/v8-m.main/nofp/libg_nano.a(lib_a-fstatr.o) (_fstat)
/usr/lib/gcc/arm-none-eabi/9.2.1/../../../arm-none-eabi/lib/thumb/v8-m.main/nofp/libnosys.a(getpid.o)
                              /usr/lib/gcc/arm-none-eabi/9.2.1/../../../arm-none-eabi/lib/thumb/v8-m.main/nofp/libg_nano.a(lib_a-signalr.o) (_getpid)
/usr/lib/gcc/arm-none-eabi/9.2.1/../../../arm-none-eabi/lib/thumb/v8-m.main/nofp/libnosys.a(isatty.o)
                              /usr/lib/gcc/arm-none-eabi/9.2.1/../../../arm-none-eabi/lib/thumb/v8-m.main/nofp/libg_nano.a(lib_a-isattyr.o) (_isatty)
/usr/lib/gcc/arm-none-eabi/9.2.1/../../../arm-none-eabi/lib/thumb/v8-m.main/nofp/libnosys.a(kill.o)
                              /usr/lib/gcc/arm-none-eabi/9.2.1/../../../arm-none-eabi/lib/thumb/v8-m.main/nofp/libg_nano.a(lib_a-signalr.o) (_kill)
/usr/lib/gcc/arm-none-eabi/9.2.1/../../../arm-none-eabi/lib/thumb/v8-m.main/nofp/libnosys.a(lseek.o)
                              /usr/lib/gcc/arm-none-eabi/9.2.1/../../../arm-none-eabi/lib/thumb/v8-m.main/nofp/libg_nano.a(lib_a-lseekr.o) (_lseek)
/usr/lib/gcc/arm-none-eabi/9.2.1/../../../arm-none-eabi/lib/thumb/v8-m.main/nofp/libnosys.a(read.o)
                              /usr/lib/gcc/arm-none-eabi/9.2.1/../../../arm-none-eabi/lib/thumb/v8-m.main/nofp/libg_nano.a(lib_a-readr.o) (_read)
/usr/lib/gcc/arm-none-eabi/9.2.1/../../../arm-none-eabi/lib/thumb/v8-m.main/nofp/libnosys.a(sbrk.o)
                              /usr/lib/gcc/arm-none-eabi/9.2.1/../../../arm-none-eabi/lib/thumb/v8-m.main/nofp/libg_nano.a(lib_a-sbrkr.o) (_sbrk)
/usr/lib/gcc/arm-none-eabi/9.2.1/../../../arm-none-eabi/lib/thumb/v8-m.main/nofp/libnosys.a(_exit.o)
                              /usr/lib/gcc/arm-none-eabi/9.2.1/../../../arm-none-eabi/lib/thumb/v8-m.main/nofp/libg_nano.a(lib_a-exit.o) (_exit)

Allocating common symbols
Common symbol       size              file

errno               0x4               /usr/lib/gcc/arm-none-eabi/9.2.1/../../../arm-none-eabi/lib/thumb/v8-m.main/nofp/libg_nano.a(lib_a-reent.o)
uwTick              0x4               ../../platform/ns/libplatform_ns.a(stm32l5xx_hal.o)

Discarded input sections

 .text          0x0000000000000000        0x0 /usr/lib/gcc/arm-none-eabi/9.2.1/thumb/v8-m.main/nofp/crti.o
 .data          0x0000000000000000        0x0 /usr/lib/gcc/arm-none-eabi/9.2.1/thumb/v8-m.main/nofp/crti.o
 .bss           0x0000000000000000        0x0 /usr/lib/gcc/arm-none-eabi/9.2.1/thumb/v8-m.main/nofp/crti.o
 .data          0x0000000000000000        0x4 /usr/lib/gcc/arm-none-eabi/9.2.1/thumb/v8-m.main/nofp/crtbegin.o
 .data          0x0000000000000000        0x0 /usr/lib/gcc/arm-none-eabi/9.2.1/../../../arm-none-eabi/lib/thumb/v8-m.main/nofp/crt0.o
 .bss           0x0000000000000000        0x0 /usr/lib/gcc/arm-none-eabi/9.2.1/../../../arm-none-eabi/lib/thumb/v8-m.main/nofp/crt0.o
 .ARM.extab     0x0000000000000000        0x0 /usr/lib/gcc/arm-none-eabi/9.2.1/../../../arm-none-eabi/lib/thumb/v8-m.main/nofp/crt0.o
 .text          0x0000000000000000        0x0 CMakeFiles/tfm_ns.dir/main_ns.o
 .data          0x0000000000000000        0x0 CMakeFiles/tfm_ns.dir/main_ns.o
 .bss           0x0000000000000000        0x0 CMakeFiles/tfm_ns.dir/main_ns.o
 .text.tfm_ns_platform_uninit
                0x0000000000000000        0xa CMakeFiles/tfm_ns.dir/main_ns.o
 .text          0x0000000000000000        0x0 CMakeFiles/tfm_ns.dir/__/__/__/platform/ext/target/stm/common/stm32l5xx/Device/Source/startup_stm32l5xx_ns.o
 .data          0x0000000000000000        0x0 CMakeFiles/tfm_ns.dir/__/__/__/platform/ext/target/stm/common/stm32l5xx/Device/Source/startup_stm32l5xx_ns.o
 .bss           0x0000000000000000        0x0 CMakeFiles/tfm_ns.dir/__/__/__/platform/ext/target/stm/common/stm32l5xx/Device/Source/startup_stm32l5xx_ns.o
 .text.SVC_Handler
                0x0000000000000000        0x2 CMakeFiles/tfm_ns.dir/__/__/__/platform/ext/target/stm/common/stm32l5xx/Device/Source/startup_stm32l5xx_ns.o
 .text.PendSV_Handler
                0x0000000000000000        0x2 CMakeFiles/tfm_ns.dir/__/__/__/platform/ext/target/stm/common/stm32l5xx/Device/Source/startup_stm32l5xx_ns.o
 .text.SysTick_Handler
                0x0000000000000000        0x2 CMakeFiles/tfm_ns.dir/__/__/__/platform/ext/target/stm/common/stm32l5xx/Device/Source/startup_stm32l5xx_ns.o
 .text          0x0000000000000000        0x0 CMakeFiles/tfm_ns.dir/__/ns_interface/ns_client_ext/tz_shim_layer.o
 .data          0x0000000000000000        0x0 CMakeFiles/tfm_ns.dir/__/ns_interface/ns_client_ext/tz_shim_layer.o
 .bss           0x0000000000000000        0x0 CMakeFiles/tfm_ns.dir/__/ns_interface/ns_client_ext/tz_shim_layer.o
 .text          0x0000000000000000        0x0 CMakeFiles/tfm_ns.dir/__/CMSIS/RTOS2/RTX/Config/RTX_Config.o
 .data          0x0000000000000000        0x0 CMakeFiles/tfm_ns.dir/__/CMSIS/RTOS2/RTX/Config/RTX_Config.o
 .bss           0x0000000000000000        0x0 CMakeFiles/tfm_ns.dir/__/CMSIS/RTOS2/RTX/Config/RTX_Config.o
 .text.osRtxIdleThread
                0x0000000000000000        0x2 CMakeFiles/tfm_ns.dir/__/CMSIS/RTOS2/RTX/Config/RTX_Config.o
 .text          0x0000000000000000        0x0 CMakeFiles/tfm_ns.dir/__/CMSIS/RTOS2/RTX/Source/rtx_lib.o
 .data          0x0000000000000000        0x0 CMakeFiles/tfm_ns.dir/__/CMSIS/RTOS2/RTX/Source/rtx_lib.o
 .bss           0x0000000000000000        0x0 CMakeFiles/tfm_ns.dir/__/CMSIS/RTOS2/RTX/Source/rtx_lib.o
 .data.irqRtxLibRef
                0x0000000000000000        0x4 CMakeFiles/tfm_ns.dir/__/CMSIS/RTOS2/RTX/Source/rtx_lib.o
 .text          0x0000000000000000        0x0 CMakeFiles/tfm_ns.dir/os_wrapper_cmsis_rtos_v2.o
 .data          0x0000000000000000        0x0 CMakeFiles/tfm_ns.dir/os_wrapper_cmsis_rtos_v2.o
 .bss           0x0000000000000000        0x0 CMakeFiles/tfm_ns.dir/os_wrapper_cmsis_rtos_v2.o
 .text.os_wrapper_thread_new
                0x0000000000000000       0x36 CMakeFiles/tfm_ns.dir/os_wrapper_cmsis_rtos_v2.o
 .text.os_wrapper_semaphore_create
                0x0000000000000000       0x18 CMakeFiles/tfm_ns.dir/os_wrapper_cmsis_rtos_v2.o
 .text.os_wrapper_semaphore_acquire
                0x0000000000000000       0x10 CMakeFiles/tfm_ns.dir/os_wrapper_cmsis_rtos_v2.o
 .text.os_wrapper_semaphore_release
                0x0000000000000000       0x10 CMakeFiles/tfm_ns.dir/os_wrapper_cmsis_rtos_v2.o
 .text.os_wrapper_semaphore_delete
                0x0000000000000000       0x10 CMakeFiles/tfm_ns.dir/os_wrapper_cmsis_rtos_v2.o
 .text.os_wrapper_mutex_acquire
                0x0000000000000000       0x18 CMakeFiles/tfm_ns.dir/os_wrapper_cmsis_rtos_v2.o
 .text.os_wrapper_mutex_release
                0x0000000000000000       0x18 CMakeFiles/tfm_ns.dir/os_wrapper_cmsis_rtos_v2.o
 .text.os_wrapper_mutex_delete
                0x0000000000000000       0x18 CMakeFiles/tfm_ns.dir/os_wrapper_cmsis_rtos_v2.o
 .text.os_wrapper_thread_get_handle
                0x0000000000000000        0x4 CMakeFiles/tfm_ns.dir/os_wrapper_cmsis_rtos_v2.o
 .text.os_wrapper_thread_get_priority
                0x0000000000000000       0x12 CMakeFiles/tfm_ns.dir/os_wrapper_cmsis_rtos_v2.o
 .text.os_wrapper_thread_exit
                0x0000000000000000        0x6 CMakeFiles/tfm_ns.dir/os_wrapper_cmsis_rtos_v2.o
 .text.os_wrapper_thread_set_flag
                0x0000000000000000        0xa CMakeFiles/tfm_ns.dir/os_wrapper_cmsis_rtos_v2.o
 .text.os_wrapper_thread_set_flag_isr
                0x0000000000000000        0x4 CMakeFiles/tfm_ns.dir/os_wrapper_cmsis_rtos_v2.o
 .text.os_wrapper_thread_wait_flag
                0x0000000000000000        0xe CMakeFiles/tfm_ns.dir/os_wrapper_cmsis_rtos_v2.o
 .text.os_wrapper_get_tick
                0x0000000000000000        0x4 CMakeFiles/tfm_ns.dir/os_wrapper_cmsis_rtos_v2.o
 .text.os_wrapper_msg_queue_create
                0x0000000000000000        0xc CMakeFiles/tfm_ns.dir/os_wrapper_cmsis_rtos_v2.o
 .text.os_wrapper_msg_queue_send
                0x0000000000000000       0x14 CMakeFiles/tfm_ns.dir/os_wrapper_cmsis_rtos_v2.o
 .text.os_wrapper_msg_queue_receive
                0x0000000000000000       0x16 CMakeFiles/tfm_ns.dir/os_wrapper_cmsis_rtos_v2.o
 .text.os_wrapper_delay
                0x0000000000000000       0x10 CMakeFiles/tfm_ns.dir/os_wrapper_cmsis_rtos_v2.o
 .text          0x0000000000000000        0x0 CMakeFiles/tfm_ns.dir/__/log/tfm_log_raw.o
 .data          0x0000000000000000        0x0 CMakeFiles/tfm_ns.dir/__/log/tfm_log_raw.o
 .bss           0x0000000000000000        0x0 CMakeFiles/tfm_ns.dir/__/log/tfm_log_raw.o
 .text          0x0000000000000000        0x0 ../../platform/ns/libplatform_ns.a(uart_stdout.o)
 .data          0x0000000000000000        0x0 ../../platform/ns/libplatform_ns.a(uart_stdout.o)
 .bss           0x0000000000000000        0x0 ../../platform/ns/libplatform_ns.a(uart_stdout.o)
 .text.stdio_uninit
                0x0000000000000000       0x30 ../../platform/ns/libplatform_ns.a(uart_stdout.o)
 .rodata.__func__.4608
                0x0000000000000000        0xd ../../platform/ns/libplatform_ns.a(uart_stdout.o)
 .text          0x0000000000000000        0x0 ../../platform/ns/libplatform_ns.a(system_stm32l5xx.o)
 .data          0x0000000000000000        0x0 ../../platform/ns/libplatform_ns.a(system_stm32l5xx.o)
 .bss           0x0000000000000000        0x0 ../../platform/ns/libplatform_ns.a(system_stm32l5xx.o)
 .text.SystemCoreClockUpdate
                0x0000000000000000       0x9c ../../platform/ns/libplatform_ns.a(system_stm32l5xx.o)
 .data.SystemCoreClock
                0x0000000000000000        0x4 ../../platform/ns/libplatform_ns.a(system_stm32l5xx.o)
 .text          0x0000000000000000        0x0 ../../platform/ns/libplatform_ns.a(low_level_com.o)
 .data          0x0000000000000000        0x0 ../../platform/ns/libplatform_ns.a(low_level_com.o)
 .bss           0x0000000000000000        0x0 ../../platform/ns/libplatform_ns.a(low_level_com.o)
 .text          0x0000000000000000        0x0 ../../platform/ns/libplatform_ns.a(stm32l5xx_hal_pwr_ex.o)
 .data          0x0000000000000000        0x0 ../../platform/ns/libplatform_ns.a(stm32l5xx_hal_pwr_ex.o)
 .bss           0x0000000000000000        0x0 ../../platform/ns/libplatform_ns.a(stm32l5xx_hal_pwr_ex.o)
 .text.HAL_PWREx_GetVoltageRange
                0x0000000000000000       0x10 ../../platform/ns/libplatform_ns.a(stm32l5xx_hal_pwr_ex.o)
 .text.HAL_PWREx_EnableBatteryCharging
                0x0000000000000000       0x1c ../../platform/ns/libplatform_ns.a(stm32l5xx_hal_pwr_ex.o)
 .text.HAL_PWREx_DisableBatteryCharging
                0x0000000000000000       0x10 ../../platform/ns/libplatform_ns.a(stm32l5xx_hal_pwr_ex.o)
 .text.HAL_PWREx_EnableVddUSB
                0x0000000000000000       0x10 ../../platform/ns/libplatform_ns.a(stm32l5xx_hal_pwr_ex.o)
 .text.HAL_PWREx_DisableVddUSB
                0x0000000000000000       0x10 ../../platform/ns/libplatform_ns.a(stm32l5xx_hal_pwr_ex.o)
 .text.HAL_PWREx_DisableVddIO2
                0x0000000000000000       0x10 ../../platform/ns/libplatform_ns.a(stm32l5xx_hal_pwr_ex.o)
 .text.HAL_PWREx_EnableGPIOPullUp
                0x0000000000000000       0xbc ../../platform/ns/libplatform_ns.a(stm32l5xx_hal_pwr_ex.o)
 .text.HAL_PWREx_DisableGPIOPullUp
                0x0000000000000000       0x84 ../../platform/ns/libplatform_ns.a(stm32l5xx_hal_pwr_ex.o)
 .text.HAL_PWREx_EnableGPIOPullDown
                0x0000000000000000       0xbc ../../platform/ns/libplatform_ns.a(stm32l5xx_hal_pwr_ex.o)
 .text.HAL_PWREx_DisableGPIOPullDown
                0x0000000000000000       0x88 ../../platform/ns/libplatform_ns.a(stm32l5xx_hal_pwr_ex.o)
 .text.HAL_PWREx_EnablePullUpPullDownConfig
                0x0000000000000000       0x10 ../../platform/ns/libplatform_ns.a(stm32l5xx_hal_pwr_ex.o)
 .text.HAL_PWREx_DisablePullUpPullDownConfig
                0x0000000000000000       0x10 ../../platform/ns/libplatform_ns.a(stm32l5xx_hal_pwr_ex.o)
 .text.HAL_PWREx_ConfigSRAM2ContentRetention
                0x0000000000000000       0x14 ../../platform/ns/libplatform_ns.a(stm32l5xx_hal_pwr_ex.o)
 .text.HAL_PWREx_EnableSRAM2ContentRetention
                0x0000000000000000        0x8 ../../platform/ns/libplatform_ns.a(stm32l5xx_hal_pwr_ex.o)
 .text.HAL_PWREx_DisableSRAM2ContentRetention
                0x0000000000000000        0x6 ../../platform/ns/libplatform_ns.a(stm32l5xx_hal_pwr_ex.o)
 .text.HAL_PWREx_EnablePVM1
                0x0000000000000000       0x10 ../../platform/ns/libplatform_ns.a(stm32l5xx_hal_pwr_ex.o)
 .text.HAL_PWREx_DisablePVM1
                0x0000000000000000       0x10 ../../platform/ns/libplatform_ns.a(stm32l5xx_hal_pwr_ex.o)
 .text.HAL_PWREx_EnablePVM2
                0x0000000000000000       0x10 ../../platform/ns/libplatform_ns.a(stm32l5xx_hal_pwr_ex.o)
 .text.HAL_PWREx_DisablePVM2
                0x0000000000000000       0x10 ../../platform/ns/libplatform_ns.a(stm32l5xx_hal_pwr_ex.o)
 .text.HAL_PWREx_EnablePVM3
                0x0000000000000000       0x10 ../../platform/ns/libplatform_ns.a(stm32l5xx_hal_pwr_ex.o)
 .text.HAL_PWREx_DisablePVM3
                0x0000000000000000       0x10 ../../platform/ns/libplatform_ns.a(stm32l5xx_hal_pwr_ex.o)
 .text.HAL_PWREx_EnablePVM4
                0x0000000000000000       0x10 ../../platform/ns/libplatform_ns.a(stm32l5xx_hal_pwr_ex.o)
 .text.HAL_PWREx_DisablePVM4
                0x0000000000000000       0x10 ../../platform/ns/libplatform_ns.a(stm32l5xx_hal_pwr_ex.o)
 .text.HAL_PWREx_ConfigPVM
                0x0000000000000000      0x1c4 ../../platform/ns/libplatform_ns.a(stm32l5xx_hal_pwr_ex.o)
 .text.HAL_PWREx_EnableLowPowerRunMode
                0x0000000000000000       0x10 ../../platform/ns/libplatform_ns.a(stm32l5xx_hal_pwr_ex.o)
 .text.HAL_PWREx_DisableLowPowerRunMode
                0x0000000000000000       0x4c ../../platform/ns/libplatform_ns.a(stm32l5xx_hal_pwr_ex.o)
 .text.HAL_PWREx_EnterSTOP0Mode
                0x0000000000000000       0x34 ../../platform/ns/libplatform_ns.a(stm32l5xx_hal_pwr_ex.o)
 .text.HAL_PWREx_EnterSTOP1Mode
                0x0000000000000000       0x38 ../../platform/ns/libplatform_ns.a(stm32l5xx_hal_pwr_ex.o)
 .text.HAL_PWREx_EnterSTOP2Mode
                0x0000000000000000       0x38 ../../platform/ns/libplatform_ns.a(stm32l5xx_hal_pwr_ex.o)
 .text.HAL_PWREx_EnterSHUTDOWNMode
                0x0000000000000000       0x24 ../../platform/ns/libplatform_ns.a(stm32l5xx_hal_pwr_ex.o)
 .text.HAL_PWREx_PVM1Callback
                0x0000000000000000        0x2 ../../platform/ns/libplatform_ns.a(stm32l5xx_hal_pwr_ex.o)
 .text.HAL_PWREx_PVM2Callback
                0x0000000000000000        0x2 ../../platform/ns/libplatform_ns.a(stm32l5xx_hal_pwr_ex.o)
 .text.HAL_PWREx_PVM3Callback
                0x0000000000000000        0x2 ../../platform/ns/libplatform_ns.a(stm32l5xx_hal_pwr_ex.o)
 .text.HAL_PWREx_PVM4Callback
                0x0000000000000000        0x2 ../../platform/ns/libplatform_ns.a(stm32l5xx_hal_pwr_ex.o)
 .text.HAL_PWREx_PVD_PVM_IRQHandler
                0x0000000000000000       0x64 ../../platform/ns/libplatform_ns.a(stm32l5xx_hal_pwr_ex.o)
 .text.HAL_PWREx_EnableUCPDStandbyMode
                0x0000000000000000       0x10 ../../platform/ns/libplatform_ns.a(stm32l5xx_hal_pwr_ex.o)
 .text.HAL_PWREx_DisableUCPDStandbyMode
                0x0000000000000000       0x10 ../../platform/ns/libplatform_ns.a(stm32l5xx_hal_pwr_ex.o)
 .text.HAL_PWREx_EnableUCPDDeadBattery
                0x0000000000000000       0x10 ../../platform/ns/libplatform_ns.a(stm32l5xx_hal_pwr_ex.o)
 .text.HAL_PWREx_DisableUCPDDeadBattery
                0x0000000000000000       0x10 ../../platform/ns/libplatform_ns.a(stm32l5xx_hal_pwr_ex.o)
 .text.HAL_PWREx_EnableUltraLowPowerMode
                0x0000000000000000       0x10 ../../platform/ns/libplatform_ns.a(stm32l5xx_hal_pwr_ex.o)
 .text.HAL_PWREx_DisableUltraLowPowerMode
                0x0000000000000000       0x10 ../../platform/ns/libplatform_ns.a(stm32l5xx_hal_pwr_ex.o)
 .text.HAL_PWREx_SMPS_GetEffectiveMode
                0x0000000000000000       0x20 ../../platform/ns/libplatform_ns.a(stm32l5xx_hal_pwr_ex.o)
 .text.HAL_PWREx_ControlVoltageScaling
                0x0000000000000000       0x6c ../../platform/ns/libplatform_ns.a(stm32l5xx_hal_pwr_ex.o)
 .text.HAL_PWREx_SMPS_EnableFastStart
                0x0000000000000000       0x10 ../../platform/ns/libplatform_ns.a(stm32l5xx_hal_pwr_ex.o)
 .text.HAL_PWREx_SMPS_DisableFastStart
                0x0000000000000000       0x10 ../../platform/ns/libplatform_ns.a(stm32l5xx_hal_pwr_ex.o)
 .text.HAL_PWREx_SMPS_DisableBypassMode
                0x0000000000000000       0x10 ../../platform/ns/libplatform_ns.a(stm32l5xx_hal_pwr_ex.o)
 .text.HAL_PWREx_SMPS_EnableBypassMode
                0x0000000000000000       0x10 ../../platform/ns/libplatform_ns.a(stm32l5xx_hal_pwr_ex.o)
 .text.HAL_PWREx_SMPS_SetMode
                0x0000000000000000       0x84 ../../platform/ns/libplatform_ns.a(stm32l5xx_hal_pwr_ex.o)
 .text.HAL_PWREx_SMPS_EnableExternal
                0x0000000000000000       0x10 ../../platform/ns/libplatform_ns.a(stm32l5xx_hal_pwr_ex.o)
 .text.HAL_PWREx_SMPS_DisableExternal
                0x0000000000000000       0x10 ../../platform/ns/libplatform_ns.a(stm32l5xx_hal_pwr_ex.o)
 .text.HAL_PWREx_SMPS_GetMainRegulatorExtSMPSReadyStatus
                0x0000000000000000       0x10 ../../platform/ns/libplatform_ns.a(stm32l5xx_hal_pwr_ex.o)
 .text          0x0000000000000000        0x0 ../../platform/ns/libplatform_ns.a(stm32l5xx_hal_gpio.o)
 .data          0x0000000000000000        0x0 ../../platform/ns/libplatform_ns.a(stm32l5xx_hal_gpio.o)
 .bss           0x0000000000000000        0x0 ../../platform/ns/libplatform_ns.a(stm32l5xx_hal_gpio.o)
 .text.HAL_GPIO_DeInit
                0x0000000000000000      0x124 ../../platform/ns/libplatform_ns.a(stm32l5xx_hal_gpio.o)
 .text.HAL_GPIO_ReadPin
                0x0000000000000000        0xc ../../platform/ns/libplatform_ns.a(stm32l5xx_hal_gpio.o)
 .text.HAL_GPIO_WritePin
                0x0000000000000000        0xa ../../platform/ns/libplatform_ns.a(stm32l5xx_hal_gpio.o)
 .text.HAL_GPIO_TogglePin
                0x0000000000000000       0x12 ../../platform/ns/libplatform_ns.a(stm32l5xx_hal_gpio.o)
 .text.HAL_GPIO_LockPin
                0x0000000000000000       0x2a ../../platform/ns/libplatform_ns.a(stm32l5xx_hal_gpio.o)
 .text.HAL_GPIO_EXTI_Rising_Callback
                0x0000000000000000        0x2 ../../platform/ns/libplatform_ns.a(stm32l5xx_hal_gpio.o)
 .text.HAL_GPIO_EXTI_Falling_Callback
                0x0000000000000000        0x2 ../../platform/ns/libplatform_ns.a(stm32l5xx_hal_gpio.o)
 .text.HAL_GPIO_EXTI_IRQHandler
                0x0000000000000000       0x28 ../../platform/ns/libplatform_ns.a(stm32l5xx_hal_gpio.o)
 .text          0x0000000000000000        0x0 ../../platform/ns/libplatform_ns.a(stm32l5xx_hal_uart.o)
 .data          0x0000000000000000        0x0 ../../platform/ns/libplatform_ns.a(stm32l5xx_hal_uart.o)
 .bss           0x0000000000000000        0x0 ../../platform/ns/libplatform_ns.a(stm32l5xx_hal_uart.o)
 .text.UART_EndRxTransfer
                0x0000000000000000       0x32 ../../platform/ns/libplatform_ns.a(stm32l5xx_hal_uart.o)
 .text.UART_TxISR_8BIT
                0x0000000000000000       0x3c ../../platform/ns/libplatform_ns.a(stm32l5xx_hal_uart.o)
 .text.UART_TxISR_16BIT
                0x0000000000000000       0x40 ../../platform/ns/libplatform_ns.a(stm32l5xx_hal_uart.o)
 .text.UART_TxISR_16BIT_FIFOEN
                0x0000000000000000       0x52 ../../platform/ns/libplatform_ns.a(stm32l5xx_hal_uart.o)
 .text.UART_TxISR_8BIT_FIFOEN
                0x0000000000000000       0x4e ../../platform/ns/libplatform_ns.a(stm32l5xx_hal_uart.o)
 .text.HAL_UART_MspDeInit
                0x0000000000000000        0x2 ../../platform/ns/libplatform_ns.a(stm32l5xx_hal_uart.o)
 .text.HAL_UART_DeInit
                0x0000000000000000       0x3c ../../platform/ns/libplatform_ns.a(stm32l5xx_hal_uart.o)
 .text.HAL_UART_Transmit_IT
                0x0000000000000000       0xac ../../platform/ns/libplatform_ns.a(stm32l5xx_hal_uart.o)
 .text.HAL_UART_Transmit_DMA
                0x0000000000000000       0x94 ../../platform/ns/libplatform_ns.a(stm32l5xx_hal_uart.o)
 .text.HAL_UART_DMAPause
                0x0000000000000000       0x5c ../../platform/ns/libplatform_ns.a(stm32l5xx_hal_uart.o)
 .text.HAL_UART_DMAResume
                0x0000000000000000       0x54 ../../platform/ns/libplatform_ns.a(stm32l5xx_hal_uart.o)
 .text.HAL_UART_DMAStop
                0x0000000000000000       0x8a ../../platform/ns/libplatform_ns.a(stm32l5xx_hal_uart.o)
 .text.HAL_UART_Abort
                0x0000000000000000       0xbc ../../platform/ns/libplatform_ns.a(stm32l5xx_hal_uart.o)
 .text.HAL_UART_AbortTransmit
                0x0000000000000000       0x68 ../../platform/ns/libplatform_ns.a(stm32l5xx_hal_uart.o)
 .text.HAL_UART_AbortReceive
                0x0000000000000000       0x76 ../../platform/ns/libplatform_ns.a(stm32l5xx_hal_uart.o)
 .text.HAL_UART_TxCpltCallback
                0x0000000000000000        0x2 ../../platform/ns/libplatform_ns.a(stm32l5xx_hal_uart.o)
 .text.UART_DMATransmitCplt
                0x0000000000000000       0x2e ../../platform/ns/libplatform_ns.a(stm32l5xx_hal_uart.o)
 .text.HAL_UART_TxHalfCpltCallback
                0x0000000000000000        0x2 ../../platform/ns/libplatform_ns.a(stm32l5xx_hal_uart.o)
 .text.UART_DMATxHalfCplt
                0x0000000000000000        0xa ../../platform/ns/libplatform_ns.a(stm32l5xx_hal_uart.o)
 .text.HAL_UART_RxHalfCpltCallback
                0x0000000000000000        0x2 ../../platform/ns/libplatform_ns.a(stm32l5xx_hal_uart.o)
 .text.UART_DMAError
                0x0000000000000000       0x5a ../../platform/ns/libplatform_ns.a(stm32l5xx_hal_uart.o)
 .text.UART_DMAAbortOnError
                0x0000000000000000       0x14 ../../platform/ns/libplatform_ns.a(stm32l5xx_hal_uart.o)
 .text.HAL_UART_AbortCpltCallback
                0x0000000000000000        0x2 ../../platform/ns/libplatform_ns.a(stm32l5xx_hal_uart.o)
 .text.HAL_UART_Abort_IT
                0x0000000000000000       0xe8 ../../platform/ns/libplatform_ns.a(stm32l5xx_hal_uart.o)
 .text.UART_DMARxAbortCallback
                0x0000000000000000       0x3e ../../platform/ns/libplatform_ns.a(stm32l5xx_hal_uart.o)
 .text.UART_DMATxAbortCallback
                0x0000000000000000       0x48 ../../platform/ns/libplatform_ns.a(stm32l5xx_hal_uart.o)
 .text.HAL_UART_AbortTransmitCpltCallback
                0x0000000000000000        0x2 ../../platform/ns/libplatform_ns.a(stm32l5xx_hal_uart.o)
 .text.HAL_UART_AbortTransmit_IT
                0x0000000000000000       0x74 ../../platform/ns/libplatform_ns.a(stm32l5xx_hal_uart.o)
 .text.UART_DMATxOnlyAbortCallback
                0x0000000000000000       0x28 ../../platform/ns/libplatform_ns.a(stm32l5xx_hal_uart.o)
 .text.HAL_UART_AbortReceiveCpltCallback
                0x0000000000000000        0x2 ../../platform/ns/libplatform_ns.a(stm32l5xx_hal_uart.o)
 .text.HAL_UART_AbortReceive_IT
                0x0000000000000000       0x8c ../../platform/ns/libplatform_ns.a(stm32l5xx_hal_uart.o)
 .text.UART_DMARxOnlyAbortCallback
                0x0000000000000000       0x26 ../../platform/ns/libplatform_ns.a(stm32l5xx_hal_uart.o)
 .text.HAL_UART_IRQHandler
                0x0000000000000000      0x278 ../../platform/ns/libplatform_ns.a(stm32l5xx_hal_uart.o)
 .text.UART_DMARxHalfCplt
                0x0000000000000000       0x1c ../../platform/ns/libplatform_ns.a(stm32l5xx_hal_uart.o)
 .text.UART_DMAReceiveCplt
                0x0000000000000000       0x58 ../../platform/ns/libplatform_ns.a(stm32l5xx_hal_uart.o)
 .text.HAL_UART_ReceiverTimeout_Config
                0x0000000000000000       0x18 ../../platform/ns/libplatform_ns.a(stm32l5xx_hal_uart.o)
 .text.HAL_UART_EnableReceiverTimeout
                0x0000000000000000       0x40 ../../platform/ns/libplatform_ns.a(stm32l5xx_hal_uart.o)
 .text.HAL_UART_DisableReceiverTimeout
                0x0000000000000000       0x40 ../../platform/ns/libplatform_ns.a(stm32l5xx_hal_uart.o)
 .text.HAL_MultiProcessor_EnterMuteMode
                0x0000000000000000        0xc ../../platform/ns/libplatform_ns.a(stm32l5xx_hal_uart.o)
 .text.HAL_HalfDuplex_EnableTransmitter
                0x0000000000000000       0x34 ../../platform/ns/libplatform_ns.a(stm32l5xx_hal_uart.o)
 .text.HAL_HalfDuplex_EnableReceiver
                0x0000000000000000       0x34 ../../platform/ns/libplatform_ns.a(stm32l5xx_hal_uart.o)
 .text.HAL_LIN_SendBreak
                0x0000000000000000       0x2c ../../platform/ns/libplatform_ns.a(stm32l5xx_hal_uart.o)
 .text.HAL_UART_GetState
                0x0000000000000000        0xc ../../platform/ns/libplatform_ns.a(stm32l5xx_hal_uart.o)
 .text.HAL_UART_GetError
                0x0000000000000000        0x6 ../../platform/ns/libplatform_ns.a(stm32l5xx_hal_uart.o)
 .text.HAL_UART_Receive
                0x0000000000000000       0xf2 ../../platform/ns/libplatform_ns.a(stm32l5xx_hal_uart.o)
 .text.HAL_HalfDuplex_Init
                0x0000000000000000       0x68 ../../platform/ns/libplatform_ns.a(stm32l5xx_hal_uart.o)
 .text.HAL_LIN_Init
                0x0000000000000000       0x84 ../../platform/ns/libplatform_ns.a(stm32l5xx_hal_uart.o)
 .text.HAL_MultiProcessor_Init
                0x0000000000000000       0x82 ../../platform/ns/libplatform_ns.a(stm32l5xx_hal_uart.o)
 .text.HAL_MultiProcessor_EnableMuteMode
                0x0000000000000000       0x2c ../../platform/ns/libplatform_ns.a(stm32l5xx_hal_uart.o)
 .text.HAL_MultiProcessor_DisableMuteMode
                0x0000000000000000       0x2c ../../platform/ns/libplatform_ns.a(stm32l5xx_hal_uart.o)
 .text.UART_Start_Receive_DMA
                0x0000000000000000       0x7c ../../platform/ns/libplatform_ns.a(stm32l5xx_hal_uart.o)
 .text.HAL_UART_Receive_DMA
                0x0000000000000000       0x4c ../../platform/ns/libplatform_ns.a(stm32l5xx_hal_uart.o)
 .text          0x0000000000000000        0x0 ../../platform/ns/libplatform_ns.a(stm32l5xx_hal_uart_ex.o)
 .data          0x0000000000000000        0x0 ../../platform/ns/libplatform_ns.a(stm32l5xx_hal_uart_ex.o)
 .bss           0x0000000000000000        0x0 ../../platform/ns/libplatform_ns.a(stm32l5xx_hal_uart_ex.o)
 .text.UARTEx_SetNbDataToProcess
                0x0000000000000000       0x44 ../../platform/ns/libplatform_ns.a(stm32l5xx_hal_uart_ex.o)
 .text.HAL_RS485Ex_Init
                0x0000000000000000       0x7e ../../platform/ns/libplatform_ns.a(stm32l5xx_hal_uart_ex.o)
 .text.HAL_UARTEx_WakeupCallback
                0x0000000000000000        0x2 ../../platform/ns/libplatform_ns.a(stm32l5xx_hal_uart_ex.o)
 .text.HAL_UARTEx_RxFifoFullCallback
                0x0000000000000000        0x2 ../../platform/ns/libplatform_ns.a(stm32l5xx_hal_uart_ex.o)
 .text.HAL_UARTEx_TxFifoEmptyCallback
                0x0000000000000000        0x2 ../../platform/ns/libplatform_ns.a(stm32l5xx_hal_uart_ex.o)
 .text.HAL_MultiProcessorEx_AddressLength_Set
                0x0000000000000000       0x2c ../../platform/ns/libplatform_ns.a(stm32l5xx_hal_uart_ex.o)
 .text.HAL_UARTEx_StopModeWakeUpSourceConfig
                0x0000000000000000       0x8e ../../platform/ns/libplatform_ns.a(stm32l5xx_hal_uart_ex.o)
 .text.HAL_UARTEx_EnableStopMode
                0x0000000000000000       0x20 ../../platform/ns/libplatform_ns.a(stm32l5xx_hal_uart_ex.o)
 .text.HAL_UARTEx_DisableStopMode
                0x0000000000000000       0x20 ../../platform/ns/libplatform_ns.a(stm32l5xx_hal_uart_ex.o)
 .text.HAL_UARTEx_EnableFifoMode
                0x0000000000000000       0x46 ../../platform/ns/libplatform_ns.a(stm32l5xx_hal_uart_ex.o)
 .text.HAL_UARTEx_DisableFifoMode
                0x0000000000000000       0x36 ../../platform/ns/libplatform_ns.a(stm32l5xx_hal_uart_ex.o)
 .text.HAL_UARTEx_SetTxFifoThreshold
                0x0000000000000000       0x48 ../../platform/ns/libplatform_ns.a(stm32l5xx_hal_uart_ex.o)
 .text.HAL_UARTEx_SetRxFifoThreshold
                0x0000000000000000       0x48 ../../platform/ns/libplatform_ns.a(stm32l5xx_hal_uart_ex.o)
 .text.HAL_UARTEx_ReceiveToIdle
                0x0000000000000000      0x13c ../../platform/ns/libplatform_ns.a(stm32l5xx_hal_uart_ex.o)
 .text.HAL_UARTEx_ReceiveToIdle_IT
                0x0000000000000000       0x48 ../../platform/ns/libplatform_ns.a(stm32l5xx_hal_uart_ex.o)
 .text.HAL_UARTEx_ReceiveToIdle_DMA
                0x0000000000000000       0x48 ../../platform/ns/libplatform_ns.a(stm32l5xx_hal_uart_ex.o)
 .rodata.denominator.7295
                0x0000000000000000        0x8 ../../platform/ns/libplatform_ns.a(stm32l5xx_hal_uart_ex.o)
 .rodata.numerator.7294
                0x0000000000000000        0x8 ../../platform/ns/libplatform_ns.a(stm32l5xx_hal_uart_ex.o)
 .debug_info    0x0000000000000000     0x114c ../../platform/ns/libplatform_ns.a(stm32l5xx_hal_uart_ex.o)
 .debug_abbrev  0x0000000000000000      0x2e1 ../../platform/ns/libplatform_ns.a(stm32l5xx_hal_uart_ex.o)
 .debug_loc     0x0000000000000000      0x953 ../../platform/ns/libplatform_ns.a(stm32l5xx_hal_uart_ex.o)
 .debug_aranges
                0x0000000000000000       0x88 ../../platform/ns/libplatform_ns.a(stm32l5xx_hal_uart_ex.o)
 .debug_ranges  0x0000000000000000       0x90 ../../platform/ns/libplatform_ns.a(stm32l5xx_hal_uart_ex.o)
 .debug_line    0x0000000000000000      0xb5d ../../platform/ns/libplatform_ns.a(stm32l5xx_hal_uart_ex.o)
 .debug_str     0x0000000000000000      0xc85 ../../platform/ns/libplatform_ns.a(stm32l5xx_hal_uart_ex.o)
 .comment       0x0000000000000000       0x5a ../../platform/ns/libplatform_ns.a(stm32l5xx_hal_uart_ex.o)
 .debug_frame   0x0000000000000000      0x198 ../../platform/ns/libplatform_ns.a(stm32l5xx_hal_uart_ex.o)
 .ARM.attributes
                0x0000000000000000       0x34 ../../platform/ns/libplatform_ns.a(stm32l5xx_hal_uart_ex.o)
 .text          0x0000000000000000        0x0 ../../platform/ns/libplatform_ns.a(stm32l5xx_hal.o)
 .data          0x0000000000000000        0x0 ../../platform/ns/libplatform_ns.a(stm32l5xx_hal.o)
 .bss           0x0000000000000000        0x0 ../../platform/ns/libplatform_ns.a(stm32l5xx_hal.o)
 .text.HAL_MspInit
                0x0000000000000000        0x2 ../../platform/ns/libplatform_ns.a(stm32l5xx_hal.o)
 .text.HAL_MspDeInit
                0x0000000000000000        0x2 ../../platform/ns/libplatform_ns.a(stm32l5xx_hal.o)
 .text.HAL_DeInit
                0x0000000000000000       0x30 ../../platform/ns/libplatform_ns.a(stm32l5xx_hal.o)
 .text.HAL_InitTick
                0x0000000000000000       0x4c ../../platform/ns/libplatform_ns.a(stm32l5xx_hal.o)
 .text.HAL_Init
                0x0000000000000000       0x22 ../../platform/ns/libplatform_ns.a(stm32l5xx_hal.o)
 .text.HAL_IncTick
                0x0000000000000000       0x18 ../../platform/ns/libplatform_ns.a(stm32l5xx_hal.o)
 .text.HAL_GetTickPrio
                0x0000000000000000        0xc ../../platform/ns/libplatform_ns.a(stm32l5xx_hal.o)
 .text.HAL_SetTickFreq
                0x0000000000000000       0x28 ../../platform/ns/libplatform_ns.a(stm32l5xx_hal.o)
 .text.HAL_GetTickFreq
                0x0000000000000000        0xc ../../platform/ns/libplatform_ns.a(stm32l5xx_hal.o)
 .text.HAL_Delay
                0x0000000000000000       0x24 ../../platform/ns/libplatform_ns.a(stm32l5xx_hal.o)
 .text.HAL_SuspendTick
                0x0000000000000000       0x10 ../../platform/ns/libplatform_ns.a(stm32l5xx_hal.o)
 .text.HAL_ResumeTick
                0x0000000000000000       0x10 ../../platform/ns/libplatform_ns.a(stm32l5xx_hal.o)
 .text.HAL_GetHalVersion
                0x0000000000000000        0x8 ../../platform/ns/libplatform_ns.a(stm32l5xx_hal.o)
 .text.HAL_GetREVID
                0x0000000000000000        0xc ../../platform/ns/libplatform_ns.a(stm32l5xx_hal.o)
 .text.HAL_GetDEVID
                0x0000000000000000       0x10 ../../platform/ns/libplatform_ns.a(stm32l5xx_hal.o)
 .text.HAL_GetUIDw0
                0x0000000000000000        0xc ../../platform/ns/libplatform_ns.a(stm32l5xx_hal.o)
 .text.HAL_GetUIDw1
                0x0000000000000000        0xc ../../platform/ns/libplatform_ns.a(stm32l5xx_hal.o)
 .text.HAL_GetUIDw2
                0x0000000000000000        0xc ../../platform/ns/libplatform_ns.a(stm32l5xx_hal.o)
 .text.HAL_DBGMCU_EnableDBGStopMode
                0x0000000000000000       0x10 ../../platform/ns/libplatform_ns.a(stm32l5xx_hal.o)
 .text.HAL_DBGMCU_DisableDBGStopMode
                0x0000000000000000       0x10 ../../platform/ns/libplatform_ns.a(stm32l5xx_hal.o)
 .text.HAL_DBGMCU_EnableDBGStandbyMode
                0x0000000000000000       0x10 ../../platform/ns/libplatform_ns.a(stm32l5xx_hal.o)
 .text.HAL_DBGMCU_DisableDBGStandbyMode
                0x0000000000000000       0x10 ../../platform/ns/libplatform_ns.a(stm32l5xx_hal.o)
 .text.HAL_SYSCFG_SRAM2Erase
                0x0000000000000000       0x18 ../../platform/ns/libplatform_ns.a(stm32l5xx_hal.o)
 .text.HAL_SYSCFG_VREFBUF_HighImpedanceConfig
                0x0000000000000000       0x14 ../../platform/ns/libplatform_ns.a(stm32l5xx_hal.o)
 .text.HAL_SYSCFG_VREFBUF_TrimmingConfig
                0x0000000000000000       0x14 ../../platform/ns/libplatform_ns.a(stm32l5xx_hal.o)
 .text.HAL_SYSCFG_VREFBUF_VoltageScalingConfig
                0x0000000000000000       0x2c ../../platform/ns/libplatform_ns.a(stm32l5xx_hal.o)
 .text.HAL_SYSCFG_EnableVREFBUF
                0x0000000000000000       0x30 ../../platform/ns/libplatform_ns.a(stm32l5xx_hal.o)
 .text.HAL_SYSCFG_DisableVREFBUF
                0x0000000000000000       0x10 ../../platform/ns/libplatform_ns.a(stm32l5xx_hal.o)
 .text.HAL_SYSCFG_EnableIOAnalogBooster
                0x0000000000000000       0x14 ../../platform/ns/libplatform_ns.a(stm32l5xx_hal.o)
 .text.HAL_SYSCFG_DisableIOAnalogBooster
                0x0000000000000000       0x10 ../../platform/ns/libplatform_ns.a(stm32l5xx_hal.o)
 .text.HAL_SYSCFG_EnableIOAnalogSwitchVdd
                0x0000000000000000       0x14 ../../platform/ns/libplatform_ns.a(stm32l5xx_hal.o)
 .text.HAL_SYSCFG_DisableIOAnalogSwitchVdd
                0x0000000000000000       0x10 ../../platform/ns/libplatform_ns.a(stm32l5xx_hal.o)
 .text.HAL_SYSCFG_Lock
                0x0000000000000000        0xc ../../platform/ns/libplatform_ns.a(stm32l5xx_hal.o)
 .text.HAL_SYSCFG_GetLock
                0x0000000000000000       0x14 ../../platform/ns/libplatform_ns.a(stm32l5xx_hal.o)
 .data.uwTickFreq
                0x0000000000000000        0x1 ../../platform/ns/libplatform_ns.a(stm32l5xx_hal.o)
 .data.uwTickPrio
                0x0000000000000000        0x4 ../../platform/ns/libplatform_ns.a(stm32l5xx_hal.o)
 .text          0x0000000000000000        0x0 ../../platform/ns/libplatform_ns.a(stm32l5xx_hal_dma.o)
 .data          0x0000000000000000        0x0 ../../platform/ns/libplatform_ns.a(stm32l5xx_hal_dma.o)
 .bss           0x0000000000000000        0x0 ../../platform/ns/libplatform_ns.a(stm32l5xx_hal_dma.o)
 .text.DMA_SetConfig
                0x0000000000000000       0x34 ../../platform/ns/libplatform_ns.a(stm32l5xx_hal_dma.o)
 .text.DMA_CalcDMAMUXChannelBaseAndMask
                0x0000000000000000       0x48 ../../platform/ns/libplatform_ns.a(stm32l5xx_hal_dma.o)
 .text.HAL_DMA_Init
                0x0000000000000000       0xdc ../../platform/ns/libplatform_ns.a(stm32l5xx_hal_dma.o)
 .text.HAL_DMA_DeInit
                0x0000000000000000       0xb0 ../../platform/ns/libplatform_ns.a(stm32l5xx_hal_dma.o)
 .text.HAL_DMA_Start
                0x0000000000000000       0x48 ../../platform/ns/libplatform_ns.a(stm32l5xx_hal_dma.o)
 .text.HAL_DMA_Start_IT
                0x0000000000000000       0x82 ../../platform/ns/libplatform_ns.a(stm32l5xx_hal_dma.o)
 .text.HAL_DMA_Abort
                0x0000000000000000       0x68 ../../platform/ns/libplatform_ns.a(stm32l5xx_hal_dma.o)
 .text.HAL_DMA_Abort_IT
                0x0000000000000000       0x6e ../../platform/ns/libplatform_ns.a(stm32l5xx_hal_dma.o)
 .text.HAL_DMA_PollForTransfer
                0x0000000000000000      0x102 ../../platform/ns/libplatform_ns.a(stm32l5xx_hal_dma.o)
 .text.HAL_DMA_IRQHandler
                0x0000000000000000       0xc2 ../../platform/ns/libplatform_ns.a(stm32l5xx_hal_dma.o)
 .text.HAL_DMA_RegisterCallback
                0x0000000000000000       0x4e ../../platform/ns/libplatform_ns.a(stm32l5xx_hal_dma.o)
 .text.HAL_DMA_UnRegisterCallback
                0x0000000000000000       0x62 ../../platform/ns/libplatform_ns.a(stm32l5xx_hal_dma.o)
 .text.HAL_DMA_GetState
                0x0000000000000000        0x6 ../../platform/ns/libplatform_ns.a(stm32l5xx_hal_dma.o)
 .text.HAL_DMA_GetError
                0x0000000000000000        0x4 ../../platform/ns/libplatform_ns.a(stm32l5xx_hal_dma.o)
 .text.HAL_DMA_ConfigChannelAttributes
                0x0000000000000000       0x20 ../../platform/ns/libplatform_ns.a(stm32l5xx_hal_dma.o)
 .text.HAL_DMA_GetConfigChannelAttributes
                0x0000000000000000       0x1e ../../platform/ns/libplatform_ns.a(stm32l5xx_hal_dma.o)
 .debug_info    0x0000000000000000      0xd13 ../../platform/ns/libplatform_ns.a(stm32l5xx_hal_dma.o)
 .debug_abbrev  0x0000000000000000      0x2fa ../../platform/ns/libplatform_ns.a(stm32l5xx_hal_dma.o)
 .debug_loc     0x0000000000000000      0x8ce ../../platform/ns/libplatform_ns.a(stm32l5xx_hal_dma.o)
 .debug_aranges
                0x0000000000000000       0x98 ../../platform/ns/libplatform_ns.a(stm32l5xx_hal_dma.o)
 .debug_ranges  0x0000000000000000       0xa0 ../../platform/ns/libplatform_ns.a(stm32l5xx_hal_dma.o)
 .debug_line    0x0000000000000000      0xd89 ../../platform/ns/libplatform_ns.a(stm32l5xx_hal_dma.o)
 .debug_str     0x0000000000000000      0x9ea ../../platform/ns/libplatform_ns.a(stm32l5xx_hal_dma.o)
 .comment       0x0000000000000000       0x5a ../../platform/ns/libplatform_ns.a(stm32l5xx_hal_dma.o)
 .debug_frame   0x0000000000000000      0x1a0 ../../platform/ns/libplatform_ns.a(stm32l5xx_hal_dma.o)
 .ARM.attributes
                0x0000000000000000       0x34 ../../platform/ns/libplatform_ns.a(stm32l5xx_hal_dma.o)
 .text          0x0000000000000000        0x0 ../../platform/ns/libplatform_ns.a(stm32l5xx_hal_pwr.o)
 .data          0x0000000000000000        0x0 ../../platform/ns/libplatform_ns.a(stm32l5xx_hal_pwr.o)
 .bss           0x0000000000000000        0x0 ../../platform/ns/libplatform_ns.a(stm32l5xx_hal_pwr.o)
 .text.HAL_PWR_DeInit
                0x0000000000000000       0x18 ../../platform/ns/libplatform_ns.a(stm32l5xx_hal_pwr.o)
 .text.HAL_PWR_EnableBkUpAccess
                0x0000000000000000       0x10 ../../platform/ns/libplatform_ns.a(stm32l5xx_hal_pwr.o)
 .text.HAL_PWR_DisableBkUpAccess
                0x0000000000000000       0x10 ../../platform/ns/libplatform_ns.a(stm32l5xx_hal_pwr.o)
 .text.HAL_PWR_ConfigPVD
                0x0000000000000000       0x88 ../../platform/ns/libplatform_ns.a(stm32l5xx_hal_pwr.o)
 .text.HAL_PWR_EnablePVD
                0x0000000000000000       0x10 ../../platform/ns/libplatform_ns.a(stm32l5xx_hal_pwr.o)
 .text.HAL_PWR_DisablePVD
                0x0000000000000000       0x10 ../../platform/ns/libplatform_ns.a(stm32l5xx_hal_pwr.o)
 .text.HAL_PWR_EnableWakeUpPin
                0x0000000000000000       0x20 ../../platform/ns/libplatform_ns.a(stm32l5xx_hal_pwr.o)
 .text.HAL_PWR_DisableWakeUpPin
                0x0000000000000000       0x14 ../../platform/ns/libplatform_ns.a(stm32l5xx_hal_pwr.o)
 .text.HAL_PWR_EnterSLEEPMode
                0x0000000000000000       0x40 ../../platform/ns/libplatform_ns.a(stm32l5xx_hal_pwr.o)
 .text.HAL_PWR_EnterSTOPMode
                0x0000000000000000       0x12 ../../platform/ns/libplatform_ns.a(stm32l5xx_hal_pwr.o)
 .text.HAL_PWR_EnterSTANDBYMode
                0x0000000000000000       0x24 ../../platform/ns/libplatform_ns.a(stm32l5xx_hal_pwr.o)
 .text.HAL_PWR_EnableSleepOnExit
                0x0000000000000000       0x10 ../../platform/ns/libplatform_ns.a(stm32l5xx_hal_pwr.o)
 .text.HAL_PWR_DisableSleepOnExit
                0x0000000000000000       0x10 ../../platform/ns/libplatform_ns.a(stm32l5xx_hal_pwr.o)
 .text.HAL_PWR_EnableSEVOnPend
                0x0000000000000000       0x10 ../../platform/ns/libplatform_ns.a(stm32l5xx_hal_pwr.o)
 .text.HAL_PWR_DisableSEVOnPend
                0x0000000000000000       0x10 ../../platform/ns/libplatform_ns.a(stm32l5xx_hal_pwr.o)
 .text.HAL_PWR_PVDCallback
                0x0000000000000000        0x2 ../../platform/ns/libplatform_ns.a(stm32l5xx_hal_pwr.o)
 .text.HAL_PWR_ConfigAttributes
                0x0000000000000000       0x2c ../../platform/ns/libplatform_ns.a(stm32l5xx_hal_pwr.o)
 .text.HAL_PWR_GetConfigAttributes
                0x0000000000000000       0x24 ../../platform/ns/libplatform_ns.a(stm32l5xx_hal_pwr.o)
 .debug_info    0x0000000000000000      0xf47 ../../platform/ns/libplatform_ns.a(stm32l5xx_hal_pwr.o)
 .debug_abbrev  0x0000000000000000      0x200 ../../platform/ns/libplatform_ns.a(stm32l5xx_hal_pwr.o)
 .debug_loc     0x0000000000000000      0x1db ../../platform/ns/libplatform_ns.a(stm32l5xx_hal_pwr.o)
 .debug_aranges
                0x0000000000000000       0xa8 ../../platform/ns/libplatform_ns.a(stm32l5xx_hal_pwr.o)
 .debug_ranges  0x0000000000000000       0x98 ../../platform/ns/libplatform_ns.a(stm32l5xx_hal_pwr.o)
 .debug_line    0x0000000000000000      0x530 ../../platform/ns/libplatform_ns.a(stm32l5xx_hal_pwr.o)
 .debug_str     0x0000000000000000      0xa26 ../../platform/ns/libplatform_ns.a(stm32l5xx_hal_pwr.o)
 .comment       0x0000000000000000       0x5a ../../platform/ns/libplatform_ns.a(stm32l5xx_hal_pwr.o)
 .debug_frame   0x0000000000000000      0x138 ../../platform/ns/libplatform_ns.a(stm32l5xx_hal_pwr.o)
 .ARM.attributes
                0x0000000000000000       0x34 ../../platform/ns/libplatform_ns.a(stm32l5xx_hal_pwr.o)
 .text          0x0000000000000000        0x0 ../../platform/ns/libplatform_ns.a(stm32l5xx_hal_rcc.o)
 .data          0x0000000000000000        0x0 ../../platform/ns/libplatform_ns.a(stm32l5xx_hal_rcc.o)
 .bss           0x0000000000000000        0x0 ../../platform/ns/libplatform_ns.a(stm32l5xx_hal_rcc.o)
 .text.RCC_SetFlashLatencyFromMSIRange
                0x0000000000000000       0x74 ../../platform/ns/libplatform_ns.a(stm32l5xx_hal_rcc.o)
 .text.HAL_RCC_DeInit
                0x0000000000000000      0x1a0 ../../platform/ns/libplatform_ns.a(stm32l5xx_hal_rcc.o)
 .text.HAL_RCC_MCOConfig
                0x0000000000000000       0x50 ../../platform/ns/libplatform_ns.a(stm32l5xx_hal_rcc.o)
 .text.HAL_RCC_OscConfig
                0x0000000000000000      0x644 ../../platform/ns/libplatform_ns.a(stm32l5xx_hal_rcc.o)
 .text.HAL_RCC_ClockConfig
                0x0000000000000000      0x1f4 ../../platform/ns/libplatform_ns.a(stm32l5xx_hal_rcc.o)
 .text.HAL_RCC_GetOscConfig
                0x0000000000000000       0xe0 ../../platform/ns/libplatform_ns.a(stm32l5xx_hal_rcc.o)
 .text.HAL_RCC_GetClockConfig
                0x0000000000000000       0x3c ../../platform/ns/libplatform_ns.a(stm32l5xx_hal_rcc.o)
 .text.HAL_RCC_EnableCSS
                0x0000000000000000       0x10 ../../platform/ns/libplatform_ns.a(stm32l5xx_hal_rcc.o)
 .text.HAL_RCC_CSSCallback
                0x0000000000000000        0x2 ../../platform/ns/libplatform_ns.a(stm32l5xx_hal_rcc.o)
 .text.HAL_RCC_NMI_IRQHandler
                0x0000000000000000       0x1c ../../platform/ns/libplatform_ns.a(stm32l5xx_hal_rcc.o)
 .text.HAL_RCC_ConfigAttributes
                0x0000000000000000       0x28 ../../platform/ns/libplatform_ns.a(stm32l5xx_hal_rcc.o)
 .text.HAL_RCC_GetConfigAttributes
                0x0000000000000000       0x20 ../../platform/ns/libplatform_ns.a(stm32l5xx_hal_rcc.o)
 .text          0x0000000000000000        0x0 ../../platform/ns/libplatform_ns.a(stm32l5xx_hal_cortex.o)
 .data          0x0000000000000000        0x0 ../../platform/ns/libplatform_ns.a(stm32l5xx_hal_cortex.o)
 .bss           0x0000000000000000        0x0 ../../platform/ns/libplatform_ns.a(stm32l5xx_hal_cortex.o)
 .text.HAL_NVIC_SetPriorityGrouping
                0x0000000000000000       0x24 ../../platform/ns/libplatform_ns.a(stm32l5xx_hal_cortex.o)
 .text.HAL_NVIC_SetPriority
                0x0000000000000000       0x64 ../../platform/ns/libplatform_ns.a(stm32l5xx_hal_cortex.o)
 .text.HAL_NVIC_EnableIRQ
                0x0000000000000000       0x1c ../../platform/ns/libplatform_ns.a(stm32l5xx_hal_cortex.o)
 .text.HAL_NVIC_DisableIRQ
                0x0000000000000000       0x28 ../../platform/ns/libplatform_ns.a(stm32l5xx_hal_cortex.o)
 .text.HAL_NVIC_SystemReset
                0x0000000000000000       0x24 ../../platform/ns/libplatform_ns.a(stm32l5xx_hal_cortex.o)
 .text.HAL_SYSTICK_Config
                0x0000000000000000       0x2c ../../platform/ns/libplatform_ns.a(stm32l5xx_hal_cortex.o)
 .text.HAL_NVIC_GetPriorityGrouping
                0x0000000000000000       0x10 ../../platform/ns/libplatform_ns.a(stm32l5xx_hal_cortex.o)
 .text.HAL_NVIC_GetPriority
                0x0000000000000000       0x60 ../../platform/ns/libplatform_ns.a(stm32l5xx_hal_cortex.o)
 .text.HAL_NVIC_SetPendingIRQ
                0x0000000000000000       0x20 ../../platform/ns/libplatform_ns.a(stm32l5xx_hal_cortex.o)
 .text.HAL_NVIC_GetPendingIRQ
                0x0000000000000000       0x24 ../../platform/ns/libplatform_ns.a(stm32l5xx_hal_cortex.o)
 .text.HAL_NVIC_ClearPendingIRQ
                0x0000000000000000       0x20 ../../platform/ns/libplatform_ns.a(stm32l5xx_hal_cortex.o)
 .text.HAL_NVIC_GetActive
                0x0000000000000000       0x24 ../../platform/ns/libplatform_ns.a(stm32l5xx_hal_cortex.o)
 .text.HAL_SYSTICK_CLKSourceConfig
                0x0000000000000000       0x18 ../../platform/ns/libplatform_ns.a(stm32l5xx_hal_cortex.o)
 .text.HAL_SYSTICK_Callback
                0x0000000000000000        0x2 ../../platform/ns/libplatform_ns.a(stm32l5xx_hal_cortex.o)
 .text.HAL_SYSTICK_IRQHandler
                0x0000000000000000        0x8 ../../platform/ns/libplatform_ns.a(stm32l5xx_hal_cortex.o)
 .text.HAL_MPU_Enable
                0x0000000000000000       0x24 ../../platform/ns/libplatform_ns.a(stm32l5xx_hal_cortex.o)
 .text.HAL_MPU_Disable
                0x0000000000000000       0x14 ../../platform/ns/libplatform_ns.a(stm32l5xx_hal_cortex.o)
 .text.HAL_MPU_ConfigRegion
                0x0000000000000000       0x44 ../../platform/ns/libplatform_ns.a(stm32l5xx_hal_cortex.o)
 .text.HAL_MPU_ConfigMemoryAttributes
                0x0000000000000000       0x34 ../../platform/ns/libplatform_ns.a(stm32l5xx_hal_cortex.o)
 .debug_info    0x0000000000000000     0x1613 ../../platform/ns/libplatform_ns.a(stm32l5xx_hal_cortex.o)
 .debug_abbrev  0x0000000000000000      0x3b9 ../../platform/ns/libplatform_ns.a(stm32l5xx_hal_cortex.o)
 .debug_loc     0x0000000000000000      0x614 ../../platform/ns/libplatform_ns.a(stm32l5xx_hal_cortex.o)
 .debug_aranges
                0x0000000000000000       0xb0 ../../platform/ns/libplatform_ns.a(stm32l5xx_hal_cortex.o)
 .debug_ranges  0x0000000000000000      0x1d8 ../../platform/ns/libplatform_ns.a(stm32l5xx_hal_cortex.o)
 .debug_line    0x0000000000000000      0x905 ../../platform/ns/libplatform_ns.a(stm32l5xx_hal_cortex.o)
 .debug_str     0x0000000000000000     0x1024 ../../platform/ns/libplatform_ns.a(stm32l5xx_hal_cortex.o)
 .comment       0x0000000000000000       0x5a ../../platform/ns/libplatform_ns.a(stm32l5xx_hal_cortex.o)
 .debug_frame   0x0000000000000000      0x170 ../../platform/ns/libplatform_ns.a(stm32l5xx_hal_cortex.o)
 .ARM.attributes
                0x0000000000000000       0x34 ../../platform/ns/libplatform_ns.a(stm32l5xx_hal_cortex.o)
 .text          0x0000000000000000        0x0 libtfm_test_app.a(test_app.o)
 .data          0x0000000000000000        0x0 libtfm_test_app.a(test_app.o)
 .bss           0x0000000000000000        0x0 libtfm_test_app.a(test_app.o)
 .data          0x0000000000000000        0x0 ../../lib/ext/tfm_test_repo-src/CMSIS/RTOS2/RTX/Library/GCC/libRTX_V8MMN.a(irq_armv8mml.o)
 .bss           0x0000000000000000        0x0 ../../lib/ext/tfm_test_repo-src/CMSIS/RTOS2/RTX/Library/GCC/libRTX_V8MMN.a(irq_armv8mml.o)
 .rodata        0x0000000000000000        0x1 ../../lib/ext/tfm_test_repo-src/CMSIS/RTOS2/RTX/Library/GCC/libRTX_V8MMN.a(irq_armv8mml.o)
 .ARM.extab     0x0000000000000000        0x0 ../../lib/ext/tfm_test_repo-src/CMSIS/RTOS2/RTX/Library/GCC/libRTX_V8MMN.a(irq_armv8mml.o)
 .text          0x0000000000000000        0x0 ../../lib/ext/tfm_test_repo-src/CMSIS/RTOS2/RTX/Library/GCC/libRTX_V8MMN.a(rtx_system.o)
 .data          0x0000000000000000        0x0 ../../lib/ext/tfm_test_repo-src/CMSIS/RTOS2/RTX/Library/GCC/libRTX_V8MMN.a(rtx_system.o)
 .bss           0x0000000000000000        0x0 ../../lib/ext/tfm_test_repo-src/CMSIS/RTOS2/RTX/Library/GCC/libRTX_V8MMN.a(rtx_system.o)
 .text.osRtxPostProcess
                0x0000000000000000       0x74 ../../lib/ext/tfm_test_repo-src/CMSIS/RTOS2/RTX/Library/GCC/libRTX_V8MMN.a(rtx_system.o)
 .text          0x0000000000000000        0x0 ../../lib/ext/tfm_test_repo-src/CMSIS/RTOS2/RTX/Library/GCC/libRTX_V8MMN.a(rtx_msgqueue.o)
 .data          0x0000000000000000        0x0 ../../lib/ext/tfm_test_repo-src/CMSIS/RTOS2/RTX/Library/GCC/libRTX_V8MMN.a(rtx_msgqueue.o)
 .bss           0x0000000000000000        0x0 ../../lib/ext/tfm_test_repo-src/CMSIS/RTOS2/RTX/Library/GCC/libRTX_V8MMN.a(rtx_msgqueue.o)
 .text.svcRtxMessageQueueGetName
                0x0000000000000000       0x10 ../../lib/ext/tfm_test_repo-src/CMSIS/RTOS2/RTX/Library/GCC/libRTX_V8MMN.a(rtx_msgqueue.o)
 .text.svcRtxMessageQueueGetCapacity
                0x0000000000000000       0x10 ../../lib/ext/tfm_test_repo-src/CMSIS/RTOS2/RTX/Library/GCC/libRTX_V8MMN.a(rtx_msgqueue.o)
 .text.svcRtxMessageQueueGetMsgSize
                0x0000000000000000       0x10 ../../lib/ext/tfm_test_repo-src/CMSIS/RTOS2/RTX/Library/GCC/libRTX_V8MMN.a(rtx_msgqueue.o)
 .text.svcRtxMessageQueueGetCount
                0x0000000000000000       0x10 ../../lib/ext/tfm_test_repo-src/CMSIS/RTOS2/RTX/Library/GCC/libRTX_V8MMN.a(rtx_msgqueue.o)
 .text.svcRtxMessageQueueGetSpace
                0x0000000000000000       0x14 ../../lib/ext/tfm_test_repo-src/CMSIS/RTOS2/RTX/Library/GCC/libRTX_V8MMN.a(rtx_msgqueue.o)
 .text.svcRtxMessageQueueNew
                0x0000000000000000      0x16c ../../lib/ext/tfm_test_repo-src/CMSIS/RTOS2/RTX/Library/GCC/libRTX_V8MMN.a(rtx_msgqueue.o)
 .text.svcRtxMessageQueueGet
                0x0000000000000000      0x188 ../../lib/ext/tfm_test_repo-src/CMSIS/RTOS2/RTX/Library/GCC/libRTX_V8MMN.a(rtx_msgqueue.o)
 .text.svcRtxMessageQueueDelete
                0x0000000000000000       0x74 ../../lib/ext/tfm_test_repo-src/CMSIS/RTOS2/RTX/Library/GCC/libRTX_V8MMN.a(rtx_msgqueue.o)
 .text.svcRtxMessageQueuePut
                0x0000000000000000      0x108 ../../lib/ext/tfm_test_repo-src/CMSIS/RTOS2/RTX/Library/GCC/libRTX_V8MMN.a(rtx_msgqueue.o)
 .text.svcRtxMessageQueueReset
                0x0000000000000000      0x198 ../../lib/ext/tfm_test_repo-src/CMSIS/RTOS2/RTX/Library/GCC/libRTX_V8MMN.a(rtx_msgqueue.o)
 .text.osRtxMessageQueuePostProcess
                0x0000000000000000      0x154 ../../lib/ext/tfm_test_repo-src/CMSIS/RTOS2/RTX/Library/GCC/libRTX_V8MMN.a(rtx_msgqueue.o)
 .text.osMessageQueueNew
                0x0000000000000000       0x24 ../../lib/ext/tfm_test_repo-src/CMSIS/RTOS2/RTX/Library/GCC/libRTX_V8MMN.a(rtx_msgqueue.o)
 .text.osMessageQueueGetName
                0x0000000000000000       0x24 ../../lib/ext/tfm_test_repo-src/CMSIS/RTOS2/RTX/Library/GCC/libRTX_V8MMN.a(rtx_msgqueue.o)
 .text.osMessageQueuePut
                0x0000000000000000       0x7c ../../lib/ext/tfm_test_repo-src/CMSIS/RTOS2/RTX/Library/GCC/libRTX_V8MMN.a(rtx_msgqueue.o)
 .text.osMessageQueueGet
                0x0000000000000000       0xbc ../../lib/ext/tfm_test_repo-src/CMSIS/RTOS2/RTX/Library/GCC/libRTX_V8MMN.a(rtx_msgqueue.o)
 .text.osMessageQueueGetCapacity
                0x0000000000000000       0x34 ../../lib/ext/tfm_test_repo-src/CMSIS/RTOS2/RTX/Library/GCC/libRTX_V8MMN.a(rtx_msgqueue.o)
 .text.osMessageQueueGetMsgSize
                0x0000000000000000       0x34 ../../lib/ext/tfm_test_repo-src/CMSIS/RTOS2/RTX/Library/GCC/libRTX_V8MMN.a(rtx_msgqueue.o)
 .text.osMessageQueueGetCount
                0x0000000000000000       0x34 ../../lib/ext/tfm_test_repo-src/CMSIS/RTOS2/RTX/Library/GCC/libRTX_V8MMN.a(rtx_msgqueue.o)
 .text.osMessageQueueGetSpace
                0x0000000000000000       0x38 ../../lib/ext/tfm_test_repo-src/CMSIS/RTOS2/RTX/Library/GCC/libRTX_V8MMN.a(rtx_msgqueue.o)
 .text.osMessageQueueReset
                0x0000000000000000       0x24 ../../lib/ext/tfm_test_repo-src/CMSIS/RTOS2/RTX/Library/GCC/libRTX_V8MMN.a(rtx_msgqueue.o)
 .text.osMessageQueueDelete
                0x0000000000000000       0x24 ../../lib/ext/tfm_test_repo-src/CMSIS/RTOS2/RTX/Library/GCC/libRTX_V8MMN.a(rtx_msgqueue.o)
 .debug_info    0x0000000000000000     0x442b ../../lib/ext/tfm_test_repo-src/CMSIS/RTOS2/RTX/Library/GCC/libRTX_V8MMN.a(rtx_msgqueue.o)
 .debug_abbrev  0x0000000000000000      0x578 ../../lib/ext/tfm_test_repo-src/CMSIS/RTOS2/RTX/Library/GCC/libRTX_V8MMN.a(rtx_msgqueue.o)
 .debug_loc     0x0000000000000000     0x2a23 ../../lib/ext/tfm_test_repo-src/CMSIS/RTOS2/RTX/Library/GCC/libRTX_V8MMN.a(rtx_msgqueue.o)
 .debug_aranges
                0x0000000000000000       0xc0 ../../lib/ext/tfm_test_repo-src/CMSIS/RTOS2/RTX/Library/GCC/libRTX_V8MMN.a(rtx_msgqueue.o)
 .debug_ranges  0x0000000000000000      0x5f8 ../../lib/ext/tfm_test_repo-src/CMSIS/RTOS2/RTX/Library/GCC/libRTX_V8MMN.a(rtx_msgqueue.o)
 .debug_line    0x0000000000000000     0x1b10 ../../lib/ext/tfm_test_repo-src/CMSIS/RTOS2/RTX/Library/GCC/libRTX_V8MMN.a(rtx_msgqueue.o)
 .debug_str     0x0000000000000000     0x1620 ../../lib/ext/tfm_test_repo-src/CMSIS/RTOS2/RTX/Library/GCC/libRTX_V8MMN.a(rtx_msgqueue.o)
 .comment       0x0000000000000000       0x76 ../../lib/ext/tfm_test_repo-src/CMSIS/RTOS2/RTX/Library/GCC/libRTX_V8MMN.a(rtx_msgqueue.o)
 .debug_frame   0x0000000000000000      0x204 ../../lib/ext/tfm_test_repo-src/CMSIS/RTOS2/RTX/Library/GCC/libRTX_V8MMN.a(rtx_msgqueue.o)
 .ARM.attributes
                0x0000000000000000       0x32 ../../lib/ext/tfm_test_repo-src/CMSIS/RTOS2/RTX/Library/GCC/libRTX_V8MMN.a(rtx_msgqueue.o)
 .text          0x0000000000000000        0x0 ../../lib/ext/tfm_test_repo-src/CMSIS/RTOS2/RTX/Library/GCC/libRTX_V8MMN.a(rtx_mempool.o)
 .data          0x0000000000000000        0x0 ../../lib/ext/tfm_test_repo-src/CMSIS/RTOS2/RTX/Library/GCC/libRTX_V8MMN.a(rtx_mempool.o)
 .bss           0x0000000000000000        0x0 ../../lib/ext/tfm_test_repo-src/CMSIS/RTOS2/RTX/Library/GCC/libRTX_V8MMN.a(rtx_mempool.o)
 .text.svcRtxMemoryPoolGetName
                0x0000000000000000       0x10 ../../lib/ext/tfm_test_repo-src/CMSIS/RTOS2/RTX/Library/GCC/libRTX_V8MMN.a(rtx_mempool.o)
 .text.svcRtxMemoryPoolGetCapacity
                0x0000000000000000       0x10 ../../lib/ext/tfm_test_repo-src/CMSIS/RTOS2/RTX/Library/GCC/libRTX_V8MMN.a(rtx_mempool.o)
 .text.svcRtxMemoryPoolGetBlockSize
                0x0000000000000000       0x10 ../../lib/ext/tfm_test_repo-src/CMSIS/RTOS2/RTX/Library/GCC/libRTX_V8MMN.a(rtx_mempool.o)
 .text.svcRtxMemoryPoolGetCount
                0x0000000000000000       0x10 ../../lib/ext/tfm_test_repo-src/CMSIS/RTOS2/RTX/Library/GCC/libRTX_V8MMN.a(rtx_mempool.o)
 .text.svcRtxMemoryPoolGetSpace
                0x0000000000000000       0x14 ../../lib/ext/tfm_test_repo-src/CMSIS/RTOS2/RTX/Library/GCC/libRTX_V8MMN.a(rtx_mempool.o)
 .text.svcRtxMemoryPoolAlloc
                0x0000000000000000       0x60 ../../lib/ext/tfm_test_repo-src/CMSIS/RTOS2/RTX/Library/GCC/libRTX_V8MMN.a(rtx_mempool.o)
 .text.osRtxMemoryPoolPostProcess
                0x0000000000000000       0x48 ../../lib/ext/tfm_test_repo-src/CMSIS/RTOS2/RTX/Library/GCC/libRTX_V8MMN.a(rtx_mempool.o)
 .text.svcRtxMemoryPoolFree
                0x0000000000000000       0x88 ../../lib/ext/tfm_test_repo-src/CMSIS/RTOS2/RTX/Library/GCC/libRTX_V8MMN.a(rtx_mempool.o)
 .text.svcRtxMemoryPoolDelete
                0x0000000000000000       0xac ../../lib/ext/tfm_test_repo-src/CMSIS/RTOS2/RTX/Library/GCC/libRTX_V8MMN.a(rtx_mempool.o)
 .text.svcRtxMemoryPoolNew
                0x0000000000000000      0x224 ../../lib/ext/tfm_test_repo-src/CMSIS/RTOS2/RTX/Library/GCC/libRTX_V8MMN.a(rtx_mempool.o)
 .text.osMemoryPoolNew
                0x0000000000000000       0x24 ../../lib/ext/tfm_test_repo-src/CMSIS/RTOS2/RTX/Library/GCC/libRTX_V8MMN.a(rtx_mempool.o)
 .text.osMemoryPoolGetName
                0x0000000000000000       0x24 ../../lib/ext/tfm_test_repo-src/CMSIS/RTOS2/RTX/Library/GCC/libRTX_V8MMN.a(rtx_mempool.o)
 .text.osMemoryPoolAlloc
                0x0000000000000000       0x6c ../../lib/ext/tfm_test_repo-src/CMSIS/RTOS2/RTX/Library/GCC/libRTX_V8MMN.a(rtx_mempool.o)
 .text.osMemoryPoolFree
                0x0000000000000000       0x80 ../../lib/ext/tfm_test_repo-src/CMSIS/RTOS2/RTX/Library/GCC/libRTX_V8MMN.a(rtx_mempool.o)
 .text.osMemoryPoolGetCapacity
                0x0000000000000000       0x34 ../../lib/ext/tfm_test_repo-src/CMSIS/RTOS2/RTX/Library/GCC/libRTX_V8MMN.a(rtx_mempool.o)
 .text.osMemoryPoolGetBlockSize
                0x0000000000000000       0x34 ../../lib/ext/tfm_test_repo-src/CMSIS/RTOS2/RTX/Library/GCC/libRTX_V8MMN.a(rtx_mempool.o)
 .text.osMemoryPoolGetCount
                0x0000000000000000       0x34 ../../lib/ext/tfm_test_repo-src/CMSIS/RTOS2/RTX/Library/GCC/libRTX_V8MMN.a(rtx_mempool.o)
 .text.osMemoryPoolGetSpace
                0x0000000000000000       0x38 ../../lib/ext/tfm_test_repo-src/CMSIS/RTOS2/RTX/Library/GCC/libRTX_V8MMN.a(rtx_mempool.o)
 .text.osMemoryPoolDelete
                0x0000000000000000       0x24 ../../lib/ext/tfm_test_repo-src/CMSIS/RTOS2/RTX/Library/GCC/libRTX_V8MMN.a(rtx_mempool.o)
 .text          0x0000000000000000        0x0 ../../lib/ext/tfm_test_repo-src/CMSIS/RTOS2/RTX/Library/GCC/libRTX_V8MMN.a(rtx_memory.o)
 .data          0x0000000000000000        0x0 ../../lib/ext/tfm_test_repo-src/CMSIS/RTOS2/RTX/Library/GCC/libRTX_V8MMN.a(rtx_memory.o)
 .bss           0x0000000000000000        0x0 ../../lib/ext/tfm_test_repo-src/CMSIS/RTOS2/RTX/Library/GCC/libRTX_V8MMN.a(rtx_memory.o)
 .text          0x0000000000000000        0x0 ../../lib/ext/tfm_test_repo-src/CMSIS/RTOS2/RTX/Library/GCC/libRTX_V8MMN.a(rtx_semaphore.o)
 .data          0x0000000000000000        0x0 ../../lib/ext/tfm_test_repo-src/CMSIS/RTOS2/RTX/Library/GCC/libRTX_V8MMN.a(rtx_semaphore.o)
 .bss           0x0000000000000000        0x0 ../../lib/ext/tfm_test_repo-src/CMSIS/RTOS2/RTX/Library/GCC/libRTX_V8MMN.a(rtx_semaphore.o)
 .text.svcRtxSemaphoreGetName
                0x0000000000000000       0x10 ../../lib/ext/tfm_test_repo-src/CMSIS/RTOS2/RTX/Library/GCC/libRTX_V8MMN.a(rtx_semaphore.o)
 .text.svcRtxSemaphoreGetCount
                0x0000000000000000       0x10 ../../lib/ext/tfm_test_repo-src/CMSIS/RTOS2/RTX/Library/GCC/libRTX_V8MMN.a(rtx_semaphore.o)
 .text.svcRtxSemaphoreNew
                0x0000000000000000       0x7c ../../lib/ext/tfm_test_repo-src/CMSIS/RTOS2/RTX/Library/GCC/libRTX_V8MMN.a(rtx_semaphore.o)
 .text.osRtxSemaphorePostProcess
                0x0000000000000000       0x38 ../../lib/ext/tfm_test_repo-src/CMSIS/RTOS2/RTX/Library/GCC/libRTX_V8MMN.a(rtx_semaphore.o)
 .text.svcRtxSemaphoreRelease
                0x0000000000000000       0x54 ../../lib/ext/tfm_test_repo-src/CMSIS/RTOS2/RTX/Library/GCC/libRTX_V8MMN.a(rtx_semaphore.o)
 .text.svcRtxSemaphoreAcquire
                0x0000000000000000       0x60 ../../lib/ext/tfm_test_repo-src/CMSIS/RTOS2/RTX/Library/GCC/libRTX_V8MMN.a(rtx_semaphore.o)
 .text.svcRtxSemaphoreDelete
                0x0000000000000000       0x60 ../../lib/ext/tfm_test_repo-src/CMSIS/RTOS2/RTX/Library/GCC/libRTX_V8MMN.a(rtx_semaphore.o)
 .text.osSemaphoreNew
                0x0000000000000000       0x24 ../../lib/ext/tfm_test_repo-src/CMSIS/RTOS2/RTX/Library/GCC/libRTX_V8MMN.a(rtx_semaphore.o)
 .text.osSemaphoreGetName
                0x0000000000000000       0x24 ../../lib/ext/tfm_test_repo-src/CMSIS/RTOS2/RTX/Library/GCC/libRTX_V8MMN.a(rtx_semaphore.o)
 .text.osSemaphoreAcquire
                0x0000000000000000       0x60 ../../lib/ext/tfm_test_repo-src/CMSIS/RTOS2/RTX/Library/GCC/libRTX_V8MMN.a(rtx_semaphore.o)
 .text.osSemaphoreRelease
                0x0000000000000000       0x68 ../../lib/ext/tfm_test_repo-src/CMSIS/RTOS2/RTX/Library/GCC/libRTX_V8MMN.a(rtx_semaphore.o)
 .text.osSemaphoreGetCount
                0x0000000000000000       0x34 ../../lib/ext/tfm_test_repo-src/CMSIS/RTOS2/RTX/Library/GCC/libRTX_V8MMN.a(rtx_semaphore.o)
 .text.osSemaphoreDelete
                0x0000000000000000       0x24 ../../lib/ext/tfm_test_repo-src/CMSIS/RTOS2/RTX/Library/GCC/libRTX_V8MMN.a(rtx_semaphore.o)
 .debug_info    0x0000000000000000     0x3120 ../../lib/ext/tfm_test_repo-src/CMSIS/RTOS2/RTX/Library/GCC/libRTX_V8MMN.a(rtx_semaphore.o)
 .debug_abbrev  0x0000000000000000      0x4b3 ../../lib/ext/tfm_test_repo-src/CMSIS/RTOS2/RTX/Library/GCC/libRTX_V8MMN.a(rtx_semaphore.o)
 .debug_loc     0x0000000000000000     0x1131 ../../lib/ext/tfm_test_repo-src/CMSIS/RTOS2/RTX/Library/GCC/libRTX_V8MMN.a(rtx_semaphore.o)
 .debug_aranges
                0x0000000000000000       0x80 ../../lib/ext/tfm_test_repo-src/CMSIS/RTOS2/RTX/Library/GCC/libRTX_V8MMN.a(rtx_semaphore.o)
 .debug_ranges  0x0000000000000000      0x2d8 ../../lib/ext/tfm_test_repo-src/CMSIS/RTOS2/RTX/Library/GCC/libRTX_V8MMN.a(rtx_semaphore.o)
 .debug_line    0x0000000000000000      0xc31 ../../lib/ext/tfm_test_repo-src/CMSIS/RTOS2/RTX/Library/GCC/libRTX_V8MMN.a(rtx_semaphore.o)
 .debug_str     0x0000000000000000     0x1441 ../../lib/ext/tfm_test_repo-src/CMSIS/RTOS2/RTX/Library/GCC/libRTX_V8MMN.a(rtx_semaphore.o)
 .comment       0x0000000000000000       0x76 ../../lib/ext/tfm_test_repo-src/CMSIS/RTOS2/RTX/Library/GCC/libRTX_V8MMN.a(rtx_semaphore.o)
 .debug_frame   0x0000000000000000      0x144 ../../lib/ext/tfm_test_repo-src/CMSIS/RTOS2/RTX/Library/GCC/libRTX_V8MMN.a(rtx_semaphore.o)
 .ARM.attributes
                0x0000000000000000       0x32 ../../lib/ext/tfm_test_repo-src/CMSIS/RTOS2/RTX/Library/GCC/libRTX_V8MMN.a(rtx_semaphore.o)
 .text          0x0000000000000000        0x0 ../../lib/ext/tfm_test_repo-src/CMSIS/RTOS2/RTX/Library/GCC/libRTX_V8MMN.a(rtx_mutex.o)
 .data          0x0000000000000000        0x0 ../../lib/ext/tfm_test_repo-src/CMSIS/RTOS2/RTX/Library/GCC/libRTX_V8MMN.a(rtx_mutex.o)
 .bss           0x0000000000000000        0x0 ../../lib/ext/tfm_test_repo-src/CMSIS/RTOS2/RTX/Library/GCC/libRTX_V8MMN.a(rtx_mutex.o)
 .text.svcRtxMutexGetName
                0x0000000000000000       0x10 ../../lib/ext/tfm_test_repo-src/CMSIS/RTOS2/RTX/Library/GCC/libRTX_V8MMN.a(rtx_mutex.o)
 .text.svcRtxMutexAcquire
                0x0000000000000000       0xa4 ../../lib/ext/tfm_test_repo-src/CMSIS/RTOS2/RTX/Library/GCC/libRTX_V8MMN.a(rtx_mutex.o)
 .text.svcRtxMutexRelease
                0x0000000000000000       0xac ../../lib/ext/tfm_test_repo-src/CMSIS/RTOS2/RTX/Library/GCC/libRTX_V8MMN.a(rtx_mutex.o)
 .text.svcRtxMutexDelete
                0x0000000000000000       0xb4 ../../lib/ext/tfm_test_repo-src/CMSIS/RTOS2/RTX/Library/GCC/libRTX_V8MMN.a(rtx_mutex.o)
 .text.svcRtxMutexGetOwner
                0x0000000000000000       0x18 ../../lib/ext/tfm_test_repo-src/CMSIS/RTOS2/RTX/Library/GCC/libRTX_V8MMN.a(rtx_mutex.o)
 .text.osMutexGetName
                0x0000000000000000       0x24 ../../lib/ext/tfm_test_repo-src/CMSIS/RTOS2/RTX/Library/GCC/libRTX_V8MMN.a(rtx_mutex.o)
 .text.osMutexAcquire
                0x0000000000000000       0x24 ../../lib/ext/tfm_test_repo-src/CMSIS/RTOS2/RTX/Library/GCC/libRTX_V8MMN.a(rtx_mutex.o)
 .text.osMutexRelease
                0x0000000000000000       0x24 ../../lib/ext/tfm_test_repo-src/CMSIS/RTOS2/RTX/Library/GCC/libRTX_V8MMN.a(rtx_mutex.o)
 .text.osMutexGetOwner
                0x0000000000000000       0x24 ../../lib/ext/tfm_test_repo-src/CMSIS/RTOS2/RTX/Library/GCC/libRTX_V8MMN.a(rtx_mutex.o)
 .text.osMutexDelete
                0x0000000000000000       0x24 ../../lib/ext/tfm_test_repo-src/CMSIS/RTOS2/RTX/Library/GCC/libRTX_V8MMN.a(rtx_mutex.o)
 .text          0x0000000000000000        0x0 ../../lib/ext/tfm_test_repo-src/CMSIS/RTOS2/RTX/Library/GCC/libRTX_V8MMN.a(rtx_delay.o)
 .data          0x0000000000000000        0x0 ../../lib/ext/tfm_test_repo-src/CMSIS/RTOS2/RTX/Library/GCC/libRTX_V8MMN.a(rtx_delay.o)
 .bss           0x0000000000000000        0x0 ../../lib/ext/tfm_test_repo-src/CMSIS/RTOS2/RTX/Library/GCC/libRTX_V8MMN.a(rtx_delay.o)
 .text.svcRtxDelay
                0x0000000000000000       0x14 ../../lib/ext/tfm_test_repo-src/CMSIS/RTOS2/RTX/Library/GCC/libRTX_V8MMN.a(rtx_delay.o)
 .text.svcRtxDelayUntil
                0x0000000000000000       0x20 ../../lib/ext/tfm_test_repo-src/CMSIS/RTOS2/RTX/Library/GCC/libRTX_V8MMN.a(rtx_delay.o)
 .text.osDelay  0x0000000000000000       0x24 ../../lib/ext/tfm_test_repo-src/CMSIS/RTOS2/RTX/Library/GCC/libRTX_V8MMN.a(rtx_delay.o)
 .text.osDelayUntil
                0x0000000000000000       0x24 ../../lib/ext/tfm_test_repo-src/CMSIS/RTOS2/RTX/Library/GCC/libRTX_V8MMN.a(rtx_delay.o)
 .debug_info    0x0000000000000000     0x1fe8 ../../lib/ext/tfm_test_repo-src/CMSIS/RTOS2/RTX/Library/GCC/libRTX_V8MMN.a(rtx_delay.o)
 .debug_abbrev  0x0000000000000000      0x33b ../../lib/ext/tfm_test_repo-src/CMSIS/RTOS2/RTX/Library/GCC/libRTX_V8MMN.a(rtx_delay.o)
 .debug_loc     0x0000000000000000      0x1ea ../../lib/ext/tfm_test_repo-src/CMSIS/RTOS2/RTX/Library/GCC/libRTX_V8MMN.a(rtx_delay.o)
 .debug_aranges
                0x0000000000000000       0x38 ../../lib/ext/tfm_test_repo-src/CMSIS/RTOS2/RTX/Library/GCC/libRTX_V8MMN.a(rtx_delay.o)
 .debug_ranges  0x0000000000000000       0x58 ../../lib/ext/tfm_test_repo-src/CMSIS/RTOS2/RTX/Library/GCC/libRTX_V8MMN.a(rtx_delay.o)
 .debug_line    0x0000000000000000      0x44f ../../lib/ext/tfm_test_repo-src/CMSIS/RTOS2/RTX/Library/GCC/libRTX_V8MMN.a(rtx_delay.o)
 .debug_str     0x0000000000000000     0x114a ../../lib/ext/tfm_test_repo-src/CMSIS/RTOS2/RTX/Library/GCC/libRTX_V8MMN.a(rtx_delay.o)
 .comment       0x0000000000000000       0x76 ../../lib/ext/tfm_test_repo-src/CMSIS/RTOS2/RTX/Library/GCC/libRTX_V8MMN.a(rtx_delay.o)
 .debug_frame   0x0000000000000000       0x60 ../../lib/ext/tfm_test_repo-src/CMSIS/RTOS2/RTX/Library/GCC/libRTX_V8MMN.a(rtx_delay.o)
 .ARM.attributes
                0x0000000000000000       0x32 ../../lib/ext/tfm_test_repo-src/CMSIS/RTOS2/RTX/Library/GCC/libRTX_V8MMN.a(rtx_delay.o)
 .text          0x0000000000000000        0x0 ../../lib/ext/tfm_test_repo-src/CMSIS/RTOS2/RTX/Library/GCC/libRTX_V8MMN.a(rtx_thread.o)
 .data          0x0000000000000000        0x0 ../../lib/ext/tfm_test_repo-src/CMSIS/RTOS2/RTX/Library/GCC/libRTX_V8MMN.a(rtx_thread.o)
 .bss           0x0000000000000000        0x0 ../../lib/ext/tfm_test_repo-src/CMSIS/RTOS2/RTX/Library/GCC/libRTX_V8MMN.a(rtx_thread.o)
 .text.svcRtxThreadGetName
                0x0000000000000000       0x10 ../../lib/ext/tfm_test_repo-src/CMSIS/RTOS2/RTX/Library/GCC/libRTX_V8MMN.a(rtx_thread.o)
 .text.svcRtxThreadGetId
                0x0000000000000000        0xc ../../lib/ext/tfm_test_repo-src/CMSIS/RTOS2/RTX/Library/GCC/libRTX_V8MMN.a(rtx_thread.o)
 .text.svcRtxThreadGetState
                0x0000000000000000       0x18 ../../lib/ext/tfm_test_repo-src/CMSIS/RTOS2/RTX/Library/GCC/libRTX_V8MMN.a(rtx_thread.o)
 .text.svcRtxThreadGetStackSize
                0x0000000000000000       0x10 ../../lib/ext/tfm_test_repo-src/CMSIS/RTOS2/RTX/Library/GCC/libRTX_V8MMN.a(rtx_thread.o)
 .text.svcRtxThreadGetPriority
                0x0000000000000000       0x1c ../../lib/ext/tfm_test_repo-src/CMSIS/RTOS2/RTX/Library/GCC/libRTX_V8MMN.a(rtx_thread.o)
 .text.svcRtxThreadGetCount
                0x0000000000000000       0x30 ../../lib/ext/tfm_test_repo-src/CMSIS/RTOS2/RTX/Library/GCC/libRTX_V8MMN.a(rtx_thread.o)
 .text.svcRtxThreadFlagsClear
                0x0000000000000000       0x38 ../../lib/ext/tfm_test_repo-src/CMSIS/RTOS2/RTX/Library/GCC/libRTX_V8MMN.a(rtx_thread.o)
 .text.svcRtxThreadFlagsGet
                0x0000000000000000       0x10 ../../lib/ext/tfm_test_repo-src/CMSIS/RTOS2/RTX/Library/GCC/libRTX_V8MMN.a(rtx_thread.o)
 .text.svcRtxThreadGetStackSpace
                0x0000000000000000       0x54 ../../lib/ext/tfm_test_repo-src/CMSIS/RTOS2/RTX/Library/GCC/libRTX_V8MMN.a(rtx_thread.o)
 .text.svcRtxThreadEnumerate
                0x0000000000000000       0x74 ../../lib/ext/tfm_test_repo-src/CMSIS/RTOS2/RTX/Library/GCC/libRTX_V8MMN.a(rtx_thread.o)
 .text.svcRtxThreadDetach
                0x0000000000000000       0x54 ../../lib/ext/tfm_test_repo-src/CMSIS/RTOS2/RTX/Library/GCC/libRTX_V8MMN.a(rtx_thread.o)
 .text.osRtxThreadListPut
                0x0000000000000000       0x44 ../../lib/ext/tfm_test_repo-src/CMSIS/RTOS2/RTX/Library/GCC/libRTX_V8MMN.a(rtx_thread.o)
 .text.osRtxThreadListSort
                0x0000000000000000       0x6c ../../lib/ext/tfm_test_repo-src/CMSIS/RTOS2/RTX/Library/GCC/libRTX_V8MMN.a(rtx_thread.o)
 .text.osRtxThreadRegPtr
                0x0000000000000000        0x8 ../../lib/ext/tfm_test_repo-src/CMSIS/RTOS2/RTX/Library/GCC/libRTX_V8MMN.a(rtx_thread.o)
 .text.svcRtxThreadFlagsSet
                0x0000000000000000      0x104 ../../lib/ext/tfm_test_repo-src/CMSIS/RTOS2/RTX/Library/GCC/libRTX_V8MMN.a(rtx_thread.o)
 .text.svcRtxThreadSetPriority
                0x0000000000000000       0xa4 ../../lib/ext/tfm_test_repo-src/CMSIS/RTOS2/RTX/Library/GCC/libRTX_V8MMN.a(rtx_thread.o)
 .text.svcRtxThreadResume
                0x0000000000000000       0x74 ../../lib/ext/tfm_test_repo-src/CMSIS/RTOS2/RTX/Library/GCC/libRTX_V8MMN.a(rtx_thread.o)
 .text.svcRtxThreadFlagsWait
                0x0000000000000000      0x164 ../../lib/ext/tfm_test_repo-src/CMSIS/RTOS2/RTX/Library/GCC/libRTX_V8MMN.a(rtx_thread.o)
 .text.svcRtxThreadYield
                0x0000000000000000       0x84 ../../lib/ext/tfm_test_repo-src/CMSIS/RTOS2/RTX/Library/GCC/libRTX_V8MMN.a(rtx_thread.o)
 .text.svcRtxThreadSuspend
                0x0000000000000000       0xfc ../../lib/ext/tfm_test_repo-src/CMSIS/RTOS2/RTX/Library/GCC/libRTX_V8MMN.a(rtx_thread.o)
 .text.svcRtxThreadTerminate
                0x0000000000000000      0x194 ../../lib/ext/tfm_test_repo-src/CMSIS/RTOS2/RTX/Library/GCC/libRTX_V8MMN.a(rtx_thread.o)
 .text.svcRtxThreadJoin
                0x0000000000000000       0xb0 ../../lib/ext/tfm_test_repo-src/CMSIS/RTOS2/RTX/Library/GCC/libRTX_V8MMN.a(rtx_thread.o)
 .text.osRtxThreadWaitEnter
                0x0000000000000000       0xb4 ../../lib/ext/tfm_test_repo-src/CMSIS/RTOS2/RTX/Library/GCC/libRTX_V8MMN.a(rtx_thread.o)
 .text.osRtxThreadStartup
                0x0000000000000000       0x40 ../../lib/ext/tfm_test_repo-src/CMSIS/RTOS2/RTX/Library/GCC/libRTX_V8MMN.a(rtx_thread.o)
 .text.osThreadGetName
                0x0000000000000000       0x24 ../../lib/ext/tfm_test_repo-src/CMSIS/RTOS2/RTX/Library/GCC/libRTX_V8MMN.a(rtx_thread.o)
 .text.osThreadGetId
                0x0000000000000000       0x2c ../../lib/ext/tfm_test_repo-src/CMSIS/RTOS2/RTX/Library/GCC/libRTX_V8MMN.a(rtx_thread.o)
 .text.osThreadGetState
                0x0000000000000000       0x24 ../../lib/ext/tfm_test_repo-src/CMSIS/RTOS2/RTX/Library/GCC/libRTX_V8MMN.a(rtx_thread.o)
 .text.osThreadGetStackSize
                0x0000000000000000       0x24 ../../lib/ext/tfm_test_repo-src/CMSIS/RTOS2/RTX/Library/GCC/libRTX_V8MMN.a(rtx_thread.o)
 .text.osThreadGetStackSpace
                0x0000000000000000       0x24 ../../lib/ext/tfm_test_repo-src/CMSIS/RTOS2/RTX/Library/GCC/libRTX_V8MMN.a(rtx_thread.o)
 .text.osThreadSetPriority
                0x0000000000000000       0x24 ../../lib/ext/tfm_test_repo-src/CMSIS/RTOS2/RTX/Library/GCC/libRTX_V8MMN.a(rtx_thread.o)
 .text.osThreadGetPriority
                0x0000000000000000       0x24 ../../lib/ext/tfm_test_repo-src/CMSIS/RTOS2/RTX/Library/GCC/libRTX_V8MMN.a(rtx_thread.o)
 .text.osThreadYield
                0x0000000000000000       0x24 ../../lib/ext/tfm_test_repo-src/CMSIS/RTOS2/RTX/Library/GCC/libRTX_V8MMN.a(rtx_thread.o)
 .text.osThreadSuspend
                0x0000000000000000       0x24 ../../lib/ext/tfm_test_repo-src/CMSIS/RTOS2/RTX/Library/GCC/libRTX_V8MMN.a(rtx_thread.o)
 .text.osThreadResume
                0x0000000000000000       0x24 ../../lib/ext/tfm_test_repo-src/CMSIS/RTOS2/RTX/Library/GCC/libRTX_V8MMN.a(rtx_thread.o)
 .text.osThreadDetach
                0x0000000000000000       0x24 ../../lib/ext/tfm_test_repo-src/CMSIS/RTOS2/RTX/Library/GCC/libRTX_V8MMN.a(rtx_thread.o)
 .text.osThreadJoin
                0x0000000000000000       0x24 ../../lib/ext/tfm_test_repo-src/CMSIS/RTOS2/RTX/Library/GCC/libRTX_V8MMN.a(rtx_thread.o)
 .text.osThreadTerminate
                0x0000000000000000       0x24 ../../lib/ext/tfm_test_repo-src/CMSIS/RTOS2/RTX/Library/GCC/libRTX_V8MMN.a(rtx_thread.o)
 .text.osThreadGetCount
                0x0000000000000000       0x24 ../../lib/ext/tfm_test_repo-src/CMSIS/RTOS2/RTX/Library/GCC/libRTX_V8MMN.a(rtx_thread.o)
 .text.osThreadEnumerate
                0x0000000000000000       0x24 ../../lib/ext/tfm_test_repo-src/CMSIS/RTOS2/RTX/Library/GCC/libRTX_V8MMN.a(rtx_thread.o)
 .text.osThreadFlagsSet
                0x0000000000000000       0x68 ../../lib/ext/tfm_test_repo-src/CMSIS/RTOS2/RTX/Library/GCC/libRTX_V8MMN.a(rtx_thread.o)
 .text.osThreadFlagsClear
                0x0000000000000000       0x28 ../../lib/ext/tfm_test_repo-src/CMSIS/RTOS2/RTX/Library/GCC/libRTX_V8MMN.a(rtx_thread.o)
 .text.osThreadFlagsGet
                0x0000000000000000       0x24 ../../lib/ext/tfm_test_repo-src/CMSIS/RTOS2/RTX/Library/GCC/libRTX_V8MMN.a(rtx_thread.o)
 .text.osThreadFlagsWait
                0x0000000000000000       0x28 ../../lib/ext/tfm_test_repo-src/CMSIS/RTOS2/RTX/Library/GCC/libRTX_V8MMN.a(rtx_thread.o)
 .text          0x0000000000000000        0x0 ../../lib/ext/tfm_test_repo-src/CMSIS/RTOS2/RTX/Library/GCC/libRTX_V8MMN.a(rtx_kernel.o)
 .data          0x0000000000000000        0x0 ../../lib/ext/tfm_test_repo-src/CMSIS/RTOS2/RTX/Library/GCC/libRTX_V8MMN.a(rtx_kernel.o)
 .bss           0x0000000000000000        0x0 ../../lib/ext/tfm_test_repo-src/CMSIS/RTOS2/RTX/Library/GCC/libRTX_V8MMN.a(rtx_kernel.o)
 .text.svcRtxKernelGetState
                0x0000000000000000        0xc ../../lib/ext/tfm_test_repo-src/CMSIS/RTOS2/RTX/Library/GCC/libRTX_V8MMN.a(rtx_kernel.o)
 .text.svcRtxKernelLock
                0x0000000000000000       0x20 ../../lib/ext/tfm_test_repo-src/CMSIS/RTOS2/RTX/Library/GCC/libRTX_V8MMN.a(rtx_kernel.o)
 .text.svcRtxKernelUnlock
                0x0000000000000000       0x24 ../../lib/ext/tfm_test_repo-src/CMSIS/RTOS2/RTX/Library/GCC/libRTX_V8MMN.a(rtx_kernel.o)
 .text.svcRtxKernelGetTickCount
                0x0000000000000000        0xc ../../lib/ext/tfm_test_repo-src/CMSIS/RTOS2/RTX/Library/GCC/libRTX_V8MMN.a(rtx_kernel.o)
 .text.svcRtxKernelGetTickFreq
                0x0000000000000000        0xc ../../lib/ext/tfm_test_repo-src/CMSIS/RTOS2/RTX/Library/GCC/libRTX_V8MMN.a(rtx_kernel.o)
 .text.svcRtxKernelStart
                0x0000000000000000       0xa0 ../../lib/ext/tfm_test_repo-src/CMSIS/RTOS2/RTX/Library/GCC/libRTX_V8MMN.a(rtx_kernel.o)
 .text.svcRtxKernelGetSysTimerCount
                0x0000000000000000       0x34 ../../lib/ext/tfm_test_repo-src/CMSIS/RTOS2/RTX/Library/GCC/libRTX_V8MMN.a(rtx_kernel.o)
 .text.svcRtxKernelGetSysTimerFreq
                0x0000000000000000        0x4 ../../lib/ext/tfm_test_repo-src/CMSIS/RTOS2/RTX/Library/GCC/libRTX_V8MMN.a(rtx_kernel.o)
 .text.svcRtxKernelRestoreLock
                0x0000000000000000       0x28 ../../lib/ext/tfm_test_repo-src/CMSIS/RTOS2/RTX/Library/GCC/libRTX_V8MMN.a(rtx_kernel.o)
 .text.svcRtxKernelSuspend
                0x0000000000000000       0x54 ../../lib/ext/tfm_test_repo-src/CMSIS/RTOS2/RTX/Library/GCC/libRTX_V8MMN.a(rtx_kernel.o)
 .text.svcRtxKernelResume
                0x0000000000000000       0x90 ../../lib/ext/tfm_test_repo-src/CMSIS/RTOS2/RTX/Library/GCC/libRTX_V8MMN.a(rtx_kernel.o)
 .text.svcRtxKernelGetInfo
                0x0000000000000000       0x30 ../../lib/ext/tfm_test_repo-src/CMSIS/RTOS2/RTX/Library/GCC/libRTX_V8MMN.a(rtx_kernel.o)
 .text.osKernelGetInfo
                0x0000000000000000       0x64 ../../lib/ext/tfm_test_repo-src/CMSIS/RTOS2/RTX/Library/GCC/libRTX_V8MMN.a(rtx_kernel.o)
 .text.osKernelGetState
                0x0000000000000000       0x34 ../../lib/ext/tfm_test_repo-src/CMSIS/RTOS2/RTX/Library/GCC/libRTX_V8MMN.a(rtx_kernel.o)
 .text.osKernelStart
                0x0000000000000000       0x24 ../../lib/ext/tfm_test_repo-src/CMSIS/RTOS2/RTX/Library/GCC/libRTX_V8MMN.a(rtx_kernel.o)
 .text.osKernelLock
                0x0000000000000000       0x24 ../../lib/ext/tfm_test_repo-src/CMSIS/RTOS2/RTX/Library/GCC/libRTX_V8MMN.a(rtx_kernel.o)
 .text.osKernelUnlock
                0x0000000000000000       0x24 ../../lib/ext/tfm_test_repo-src/CMSIS/RTOS2/RTX/Library/GCC/libRTX_V8MMN.a(rtx_kernel.o)
 .text.osKernelRestoreLock
                0x0000000000000000       0x24 ../../lib/ext/tfm_test_repo-src/CMSIS/RTOS2/RTX/Library/GCC/libRTX_V8MMN.a(rtx_kernel.o)
 .text.osKernelSuspend
                0x0000000000000000       0x24 ../../lib/ext/tfm_test_repo-src/CMSIS/RTOS2/RTX/Library/GCC/libRTX_V8MMN.a(rtx_kernel.o)
 .text.osKernelResume
                0x0000000000000000       0x24 ../../lib/ext/tfm_test_repo-src/CMSIS/RTOS2/RTX/Library/GCC/libRTX_V8MMN.a(rtx_kernel.o)
 .text.osKernelGetTickCount
                0x0000000000000000       0x2c ../../lib/ext/tfm_test_repo-src/CMSIS/RTOS2/RTX/Library/GCC/libRTX_V8MMN.a(rtx_kernel.o)
 .text.osKernelGetTickFreq
                0x0000000000000000       0x2c ../../lib/ext/tfm_test_repo-src/CMSIS/RTOS2/RTX/Library/GCC/libRTX_V8MMN.a(rtx_kernel.o)
 .text.osKernelGetSysTimerCount
                0x0000000000000000       0x4c ../../lib/ext/tfm_test_repo-src/CMSIS/RTOS2/RTX/Library/GCC/libRTX_V8MMN.a(rtx_kernel.o)
 .text.osKernelGetSysTimerFreq
                0x0000000000000000       0x24 ../../lib/ext/tfm_test_repo-src/CMSIS/RTOS2/RTX/Library/GCC/libRTX_V8MMN.a(rtx_kernel.o)
 .text          0x0000000000000000        0x0 ../../lib/ext/tfm_test_repo-src/CMSIS/RTOS2/RTX/Library/GCC/libRTX_V8MMN.a(os_systick.o)
 .data          0x0000000000000000        0x0 ../../lib/ext/tfm_test_repo-src/CMSIS/RTOS2/RTX/Library/GCC/libRTX_V8MMN.a(os_systick.o)
 .bss           0x0000000000000000        0x1 ../../lib/ext/tfm_test_repo-src/CMSIS/RTOS2/RTX/Library/GCC/libRTX_V8MMN.a(os_systick.o)
 .text.OS_Tick_Setup
                0x0000000000000000       0x48 ../../lib/ext/tfm_test_repo-src/CMSIS/RTOS2/RTX/Library/GCC/libRTX_V8MMN.a(os_systick.o)
 .text.OS_Tick_Enable
                0x0000000000000000       0x2c ../../lib/ext/tfm_test_repo-src/CMSIS/RTOS2/RTX/Library/GCC/libRTX_V8MMN.a(os_systick.o)
 .text.OS_Tick_Disable
                0x0000000000000000       0x2c ../../lib/ext/tfm_test_repo-src/CMSIS/RTOS2/RTX/Library/GCC/libRTX_V8MMN.a(os_systick.o)
 .text.OS_Tick_GetIRQn
                0x0000000000000000        0x8 ../../lib/ext/tfm_test_repo-src/CMSIS/RTOS2/RTX/Library/GCC/libRTX_V8MMN.a(os_systick.o)
 .text.OS_Tick_GetClock
                0x0000000000000000        0xc ../../lib/ext/tfm_test_repo-src/CMSIS/RTOS2/RTX/Library/GCC/libRTX_V8MMN.a(os_systick.o)
 .text.OS_Tick_GetInterval
                0x0000000000000000        0xc ../../lib/ext/tfm_test_repo-src/CMSIS/RTOS2/RTX/Library/GCC/libRTX_V8MMN.a(os_systick.o)
 .text.OS_Tick_GetCount
                0x0000000000000000       0x10 ../../lib/ext/tfm_test_repo-src/CMSIS/RTOS2/RTX/Library/GCC/libRTX_V8MMN.a(os_systick.o)
 .text.OS_Tick_GetOverflow
                0x0000000000000000       0x10 ../../lib/ext/tfm_test_repo-src/CMSIS/RTOS2/RTX/Library/GCC/libRTX_V8MMN.a(os_systick.o)
 .text          0x0000000000000000        0x0 ../../lib/ext/tfm_test_repo-src/CMSIS/RTOS2/RTX/Library/GCC/libRTX_V8MMN.a(rtx_timer.o)
 .data          0x0000000000000000        0x0 ../../lib/ext/tfm_test_repo-src/CMSIS/RTOS2/RTX/Library/GCC/libRTX_V8MMN.a(rtx_timer.o)
 .bss           0x0000000000000000        0x0 ../../lib/ext/tfm_test_repo-src/CMSIS/RTOS2/RTX/Library/GCC/libRTX_V8MMN.a(rtx_timer.o)
 .text.svcRtxTimerGetName
                0x0000000000000000       0x10 ../../lib/ext/tfm_test_repo-src/CMSIS/RTOS2/RTX/Library/GCC/libRTX_V8MMN.a(rtx_timer.o)
 .text.svcRtxTimerStop
                0x0000000000000000       0x4c ../../lib/ext/tfm_test_repo-src/CMSIS/RTOS2/RTX/Library/GCC/libRTX_V8MMN.a(rtx_timer.o)
 .text.svcRtxTimerIsRunning
                0x0000000000000000       0x1c ../../lib/ext/tfm_test_repo-src/CMSIS/RTOS2/RTX/Library/GCC/libRTX_V8MMN.a(rtx_timer.o)
 .text.osRtxTimerTick
                0x0000000000000000       0xc8 ../../lib/ext/tfm_test_repo-src/CMSIS/RTOS2/RTX/Library/GCC/libRTX_V8MMN.a(rtx_timer.o)
 .text.svcRtxTimerNew
                0x0000000000000000       0x80 ../../lib/ext/tfm_test_repo-src/CMSIS/RTOS2/RTX/Library/GCC/libRTX_V8MMN.a(rtx_timer.o)
 .text.svcRtxTimerDelete
                0x0000000000000000       0x68 ../../lib/ext/tfm_test_repo-src/CMSIS/RTOS2/RTX/Library/GCC/libRTX_V8MMN.a(rtx_timer.o)
 .text.svcRtxTimerStart
                0x0000000000000000       0xb8 ../../lib/ext/tfm_test_repo-src/CMSIS/RTOS2/RTX/Library/GCC/libRTX_V8MMN.a(rtx_timer.o)
 .text.osRtxTimerThread
                0x0000000000000000       0x3c ../../lib/ext/tfm_test_repo-src/CMSIS/RTOS2/RTX/Library/GCC/libRTX_V8MMN.a(rtx_timer.o)
 .text.osTimerNew
                0x0000000000000000       0x2c ../../lib/ext/tfm_test_repo-src/CMSIS/RTOS2/RTX/Library/GCC/libRTX_V8MMN.a(rtx_timer.o)
 .text.osTimerGetName
                0x0000000000000000       0x24 ../../lib/ext/tfm_test_repo-src/CMSIS/RTOS2/RTX/Library/GCC/libRTX_V8MMN.a(rtx_timer.o)
 .text.osTimerStart
                0x0000000000000000       0x24 ../../lib/ext/tfm_test_repo-src/CMSIS/RTOS2/RTX/Library/GCC/libRTX_V8MMN.a(rtx_timer.o)
 .text.osTimerStop
                0x0000000000000000       0x24 ../../lib/ext/tfm_test_repo-src/CMSIS/RTOS2/RTX/Library/GCC/libRTX_V8MMN.a(rtx_timer.o)
 .text.osTimerIsRunning
                0x0000000000000000       0x24 ../../lib/ext/tfm_test_repo-src/CMSIS/RTOS2/RTX/Library/GCC/libRTX_V8MMN.a(rtx_timer.o)
 .text.osTimerDelete
                0x0000000000000000       0x24 ../../lib/ext/tfm_test_repo-src/CMSIS/RTOS2/RTX/Library/GCC/libRTX_V8MMN.a(rtx_timer.o)
 .debug_info    0x0000000000000000     0x2c72 ../../lib/ext/tfm_test_repo-src/CMSIS/RTOS2/RTX/Library/GCC/libRTX_V8MMN.a(rtx_timer.o)
 .debug_abbrev  0x0000000000000000      0x525 ../../lib/ext/tfm_test_repo-src/CMSIS/RTOS2/RTX/Library/GCC/libRTX_V8MMN.a(rtx_timer.o)
 .debug_loc     0x0000000000000000      0xf53 ../../lib/ext/tfm_test_repo-src/CMSIS/RTOS2/RTX/Library/GCC/libRTX_V8MMN.a(rtx_timer.o)
 .debug_aranges
                0x0000000000000000       0x88 ../../lib/ext/tfm_test_repo-src/CMSIS/RTOS2/RTX/Library/GCC/libRTX_V8MMN.a(rtx_timer.o)
 .debug_ranges  0x0000000000000000      0x200 ../../lib/ext/tfm_test_repo-src/CMSIS/RTOS2/RTX/Library/GCC/libRTX_V8MMN.a(rtx_timer.o)
 .debug_line    0x0000000000000000      0xcab ../../lib/ext/tfm_test_repo-src/CMSIS/RTOS2/RTX/Library/GCC/libRTX_V8MMN.a(rtx_timer.o)
 .debug_str     0x0000000000000000     0x1316 ../../lib/ext/tfm_test_repo-src/CMSIS/RTOS2/RTX/Library/GCC/libRTX_V8MMN.a(rtx_timer.o)
 .comment       0x0000000000000000       0x76 ../../lib/ext/tfm_test_repo-src/CMSIS/RTOS2/RTX/Library/GCC/libRTX_V8MMN.a(rtx_timer.o)
 .debug_frame   0x0000000000000000      0x164 ../../lib/ext/tfm_test_repo-src/CMSIS/RTOS2/RTX/Library/GCC/libRTX_V8MMN.a(rtx_timer.o)
 .ARM.attributes
                0x0000000000000000       0x32 ../../lib/ext/tfm_test_repo-src/CMSIS/RTOS2/RTX/Library/GCC/libRTX_V8MMN.a(rtx_timer.o)
 .text          0x0000000000000000        0x0 libtfm_api_ns.a(tfm_psa_ns_api.o)
 .data          0x0000000000000000        0x0 libtfm_api_ns.a(tfm_psa_ns_api.o)
 .bss           0x0000000000000000        0x0 libtfm_api_ns.a(tfm_psa_ns_api.o)
 .text.psa_framework_version
                0x0000000000000000       0x1c libtfm_api_ns.a(tfm_psa_ns_api.o)
 .text.psa_version
                0x0000000000000000       0x1c libtfm_api_ns.a(tfm_psa_ns_api.o)
 .text          0x0000000000000000        0x0 libtfm_api_ns.a(tfm_ns_interface.o)
 .data          0x0000000000000000        0x0 libtfm_api_ns.a(tfm_ns_interface.o)
 .bss           0x0000000000000000        0x0 libtfm_api_ns.a(tfm_ns_interface.o)
 .text          0x0000000000000000       0xa0 /usr/lib/gcc/arm-none-eabi/9.2.1/thumb/v8-m.main/nofp/libgcc.a(_aeabi_ldivmod.o)
 .data          0x0000000000000000        0x0 /usr/lib/gcc/arm-none-eabi/9.2.1/thumb/v8-m.main/nofp/libgcc.a(_aeabi_ldivmod.o)
 .bss           0x0000000000000000        0x0 /usr/lib/gcc/arm-none-eabi/9.2.1/thumb/v8-m.main/nofp/libgcc.a(_aeabi_ldivmod.o)
 .debug_line    0x0000000000000000       0x7e /usr/lib/gcc/arm-none-eabi/9.2.1/thumb/v8-m.main/nofp/libgcc.a(_aeabi_ldivmod.o)
 .debug_info    0x0000000000000000       0x26 /usr/lib/gcc/arm-none-eabi/9.2.1/thumb/v8-m.main/nofp/libgcc.a(_aeabi_ldivmod.o)
 .debug_abbrev  0x0000000000000000       0x14 /usr/lib/gcc/arm-none-eabi/9.2.1/thumb/v8-m.main/nofp/libgcc.a(_aeabi_ldivmod.o)
 .debug_aranges
                0x0000000000000000       0x20 /usr/lib/gcc/arm-none-eabi/9.2.1/thumb/v8-m.main/nofp/libgcc.a(_aeabi_ldivmod.o)
 .debug_str     0x0000000000000000       0xa4 /usr/lib/gcc/arm-none-eabi/9.2.1/thumb/v8-m.main/nofp/libgcc.a(_aeabi_ldivmod.o)
 .debug_frame   0x0000000000000000       0x44 /usr/lib/gcc/arm-none-eabi/9.2.1/thumb/v8-m.main/nofp/libgcc.a(_aeabi_ldivmod.o)
 .ARM.attributes
                0x0000000000000000       0x22 /usr/lib/gcc/arm-none-eabi/9.2.1/thumb/v8-m.main/nofp/libgcc.a(_aeabi_ldivmod.o)
 .data          0x0000000000000000        0x0 /usr/lib/gcc/arm-none-eabi/9.2.1/thumb/v8-m.main/nofp/libgcc.a(_aeabi_uldivmod.o)
 .bss           0x0000000000000000        0x0 /usr/lib/gcc/arm-none-eabi/9.2.1/thumb/v8-m.main/nofp/libgcc.a(_aeabi_uldivmod.o)
 .data          0x0000000000000000        0x0 /usr/lib/gcc/arm-none-eabi/9.2.1/thumb/v8-m.main/nofp/libgcc.a(_udivmoddi4.o)
 .bss           0x0000000000000000        0x0 /usr/lib/gcc/arm-none-eabi/9.2.1/thumb/v8-m.main/nofp/libgcc.a(_udivmoddi4.o)
 .ARM.extab     0x0000000000000000        0x0 /usr/lib/gcc/arm-none-eabi/9.2.1/thumb/v8-m.main/nofp/libgcc.a(_udivmoddi4.o)
 .data          0x0000000000000000        0x0 /usr/lib/gcc/arm-none-eabi/9.2.1/thumb/v8-m.main/nofp/libgcc.a(_dvmd_tls.o)
 .bss           0x0000000000000000        0x0 /usr/lib/gcc/arm-none-eabi/9.2.1/thumb/v8-m.main/nofp/libgcc.a(_dvmd_tls.o)
 .data          0x0000000000000000        0x0 /usr/lib/gcc/arm-none-eabi/9.2.1/../../../arm-none-eabi/lib/thumb/v8-m.main/nofp/libg_nano.a(lib_a-assert.o)
 .bss           0x0000000000000000        0x0 /usr/lib/gcc/arm-none-eabi/9.2.1/../../../arm-none-eabi/lib/thumb/v8-m.main/nofp/libg_nano.a(lib_a-assert.o)
 .data          0x0000000000000000        0x0 /usr/lib/gcc/arm-none-eabi/9.2.1/../../../arm-none-eabi/lib/thumb/v8-m.main/nofp/libg_nano.a(lib_a-atexit.o)
 .bss           0x0000000000000000        0x0 /usr/lib/gcc/arm-none-eabi/9.2.1/../../../arm-none-eabi/lib/thumb/v8-m.main/nofp/libg_nano.a(lib_a-atexit.o)
 .data          0x0000000000000000        0x0 /usr/lib/gcc/arm-none-eabi/9.2.1/../../../arm-none-eabi/lib/thumb/v8-m.main/nofp/libg_nano.a(lib_a-exit.o)
 .bss           0x0000000000000000        0x0 /usr/lib/gcc/arm-none-eabi/9.2.1/../../../arm-none-eabi/lib/thumb/v8-m.main/nofp/libg_nano.a(lib_a-exit.o)
 .data          0x0000000000000000        0x0 /usr/lib/gcc/arm-none-eabi/9.2.1/../../../arm-none-eabi/lib/thumb/v8-m.main/nofp/libg_nano.a(lib_a-fini.o)
 .bss           0x0000000000000000        0x0 /usr/lib/gcc/arm-none-eabi/9.2.1/../../../arm-none-eabi/lib/thumb/v8-m.main/nofp/libg_nano.a(lib_a-fini.o)
 .data          0x0000000000000000        0x0 /usr/lib/gcc/arm-none-eabi/9.2.1/../../../arm-none-eabi/lib/thumb/v8-m.main/nofp/libg_nano.a(lib_a-fprintf.o)
 .bss           0x0000000000000000        0x0 /usr/lib/gcc/arm-none-eabi/9.2.1/../../../arm-none-eabi/lib/thumb/v8-m.main/nofp/libg_nano.a(lib_a-fprintf.o)
 .text          0x0000000000000000        0x0 /usr/lib/gcc/arm-none-eabi/9.2.1/../../../arm-none-eabi/lib/thumb/v8-m.main/nofp/libg_nano.a(lib_a-impure.o)
 .bss           0x0000000000000000        0x0 /usr/lib/gcc/arm-none-eabi/9.2.1/../../../arm-none-eabi/lib/thumb/v8-m.main/nofp/libg_nano.a(lib_a-impure.o)
 .data          0x0000000000000000        0x0 /usr/lib/gcc/arm-none-eabi/9.2.1/../../../arm-none-eabi/lib/thumb/v8-m.main/nofp/libg_nano.a(lib_a-init.o)
 .bss           0x0000000000000000        0x0 /usr/lib/gcc/arm-none-eabi/9.2.1/../../../arm-none-eabi/lib/thumb/v8-m.main/nofp/libg_nano.a(lib_a-init.o)
 .data          0x0000000000000000        0x0 /usr/lib/gcc/arm-none-eabi/9.2.1/../../../arm-none-eabi/lib/thumb/v8-m.main/nofp/libg_nano.a(lib_a-memcpy.o)
 .bss           0x0000000000000000        0x0 /usr/lib/gcc/arm-none-eabi/9.2.1/../../../arm-none-eabi/lib/thumb/v8-m.main/nofp/libg_nano.a(lib_a-memcpy.o)
 .data          0x0000000000000000        0x0 /usr/lib/gcc/arm-none-eabi/9.2.1/../../../arm-none-eabi/lib/thumb/v8-m.main/nofp/libg_nano.a(lib_a-memset.o)
 .bss           0x0000000000000000        0x0 /usr/lib/gcc/arm-none-eabi/9.2.1/../../../arm-none-eabi/lib/thumb/v8-m.main/nofp/libg_nano.a(lib_a-memset.o)
 .data          0x0000000000000000        0x0 /usr/lib/gcc/arm-none-eabi/9.2.1/../../../arm-none-eabi/lib/thumb/v8-m.main/nofp/libg_nano.a(lib_a-nano-vfprintf.o)
 .bss           0x0000000000000000        0x0 /usr/lib/gcc/arm-none-eabi/9.2.1/../../../arm-none-eabi/lib/thumb/v8-m.main/nofp/libg_nano.a(lib_a-nano-vfprintf.o)
 .data          0x0000000000000000        0x0 /usr/lib/gcc/arm-none-eabi/9.2.1/../../../arm-none-eabi/lib/thumb/v8-m.main/nofp/libg_nano.a(lib_a-nano-vfprintf_i.o)
 .bss           0x0000000000000000        0x0 /usr/lib/gcc/arm-none-eabi/9.2.1/../../../arm-none-eabi/lib/thumb/v8-m.main/nofp/libg_nano.a(lib_a-nano-vfprintf_i.o)
 .data          0x0000000000000000        0x0 /usr/lib/gcc/arm-none-eabi/9.2.1/../../../arm-none-eabi/lib/thumb/v8-m.main/nofp/libg_nano.a(lib_a-wbuf.o)
 .bss           0x0000000000000000        0x0 /usr/lib/gcc/arm-none-eabi/9.2.1/../../../arm-none-eabi/lib/thumb/v8-m.main/nofp/libg_nano.a(lib_a-wbuf.o)
 .data          0x0000000000000000        0x0 /usr/lib/gcc/arm-none-eabi/9.2.1/../../../arm-none-eabi/lib/thumb/v8-m.main/nofp/libg_nano.a(lib_a-wsetup.o)
 .bss           0x0000000000000000        0x0 /usr/lib/gcc/arm-none-eabi/9.2.1/../../../arm-none-eabi/lib/thumb/v8-m.main/nofp/libg_nano.a(lib_a-wsetup.o)
 .data          0x0000000000000000        0x4 /usr/lib/gcc/arm-none-eabi/9.2.1/../../../arm-none-eabi/lib/thumb/v8-m.main/nofp/libg_nano.a(lib_a-__atexit.o)
 .data          0x0000000000000000        0x0 /usr/lib/gcc/arm-none-eabi/9.2.1/../../../arm-none-eabi/lib/thumb/v8-m.main/nofp/libg_nano.a(lib_a-__call_atexit.o)
 .data          0x0000000000000000        0x0 /usr/lib/gcc/arm-none-eabi/9.2.1/../../../arm-none-eabi/lib/thumb/v8-m.main/nofp/libg_nano.a(lib_a-abort.o)
 .bss           0x0000000000000000        0x0 /usr/lib/gcc/arm-none-eabi/9.2.1/../../../arm-none-eabi/lib/thumb/v8-m.main/nofp/libg_nano.a(lib_a-abort.o)
 .data          0x0000000000000000        0x0 /usr/lib/gcc/arm-none-eabi/9.2.1/../../../arm-none-eabi/lib/thumb/v8-m.main/nofp/libg_nano.a(lib_a-fflush.o)
 .bss           0x0000000000000000        0x0 /usr/lib/gcc/arm-none-eabi/9.2.1/../../../arm-none-eabi/lib/thumb/v8-m.main/nofp/libg_nano.a(lib_a-fflush.o)
 .data          0x0000000000000000        0x0 /usr/lib/gcc/arm-none-eabi/9.2.1/../../../arm-none-eabi/lib/thumb/v8-m.main/nofp/libg_nano.a(lib_a-findfp.o)
 .bss           0x0000000000000000        0x0 /usr/lib/gcc/arm-none-eabi/9.2.1/../../../arm-none-eabi/lib/thumb/v8-m.main/nofp/libg_nano.a(lib_a-findfp.o)
 .data          0x0000000000000000        0x0 /usr/lib/gcc/arm-none-eabi/9.2.1/../../../arm-none-eabi/lib/thumb/v8-m.main/nofp/libg_nano.a(lib_a-fvwrite.o)
 .bss           0x0000000000000000        0x0 /usr/lib/gcc/arm-none-eabi/9.2.1/../../../arm-none-eabi/lib/thumb/v8-m.main/nofp/libg_nano.a(lib_a-fvwrite.o)
 .data          0x0000000000000000        0x0 /usr/lib/gcc/arm-none-eabi/9.2.1/../../../arm-none-eabi/lib/thumb/v8-m.main/nofp/libg_nano.a(lib_a-fwalk.o)
 .bss           0x0000000000000000        0x0 /usr/lib/gcc/arm-none-eabi/9.2.1/../../../arm-none-eabi/lib/thumb/v8-m.main/nofp/libg_nano.a(lib_a-fwalk.o)
 .data          0x0000000000000000        0x0 /usr/lib/gcc/arm-none-eabi/9.2.1/../../../arm-none-eabi/lib/thumb/v8-m.main/nofp/libg_nano.a(lib_a-makebuf.o)
 .bss           0x0000000000000000        0x0 /usr/lib/gcc/arm-none-eabi/9.2.1/../../../arm-none-eabi/lib/thumb/v8-m.main/nofp/libg_nano.a(lib_a-makebuf.o)
 .data          0x0000000000000000        0x0 /usr/lib/gcc/arm-none-eabi/9.2.1/../../../arm-none-eabi/lib/thumb/v8-m.main/nofp/libg_nano.a(lib_a-memchr-stub.o)
 .bss           0x0000000000000000        0x0 /usr/lib/gcc/arm-none-eabi/9.2.1/../../../arm-none-eabi/lib/thumb/v8-m.main/nofp/libg_nano.a(lib_a-memchr-stub.o)
 .data          0x0000000000000000        0x0 /usr/lib/gcc/arm-none-eabi/9.2.1/../../../arm-none-eabi/lib/thumb/v8-m.main/nofp/libg_nano.a(lib_a-memmove.o)
 .bss           0x0000000000000000        0x0 /usr/lib/gcc/arm-none-eabi/9.2.1/../../../arm-none-eabi/lib/thumb/v8-m.main/nofp/libg_nano.a(lib_a-memmove.o)
 .data          0x0000000000000000        0x0 /usr/lib/gcc/arm-none-eabi/9.2.1/../../../arm-none-eabi/lib/thumb/v8-m.main/nofp/libg_nano.a(lib_a-nano-freer.o)
 .bss           0x0000000000000000        0x0 /usr/lib/gcc/arm-none-eabi/9.2.1/../../../arm-none-eabi/lib/thumb/v8-m.main/nofp/libg_nano.a(lib_a-nano-freer.o)
 .data          0x0000000000000000        0x0 /usr/lib/gcc/arm-none-eabi/9.2.1/../../../arm-none-eabi/lib/thumb/v8-m.main/nofp/libg_nano.a(lib_a-nano-mallocr.o)
 .data          0x0000000000000000        0x0 /usr/lib/gcc/arm-none-eabi/9.2.1/../../../arm-none-eabi/lib/thumb/v8-m.main/nofp/libg_nano.a(lib_a-nano-reallocr.o)
 .bss           0x0000000000000000        0x0 /usr/lib/gcc/arm-none-eabi/9.2.1/../../../arm-none-eabi/lib/thumb/v8-m.main/nofp/libg_nano.a(lib_a-nano-reallocr.o)
 .data          0x0000000000000000        0x0 /usr/lib/gcc/arm-none-eabi/9.2.1/../../../arm-none-eabi/lib/thumb/v8-m.main/nofp/libg_nano.a(lib_a-sbrkr.o)
 .bss           0x0000000000000000        0x0 /usr/lib/gcc/arm-none-eabi/9.2.1/../../../arm-none-eabi/lib/thumb/v8-m.main/nofp/libg_nano.a(lib_a-sbrkr.o)
 .data          0x0000000000000000        0x0 /usr/lib/gcc/arm-none-eabi/9.2.1/../../../arm-none-eabi/lib/thumb/v8-m.main/nofp/libg_nano.a(lib_a-signal.o)
 .bss           0x0000000000000000        0x0 /usr/lib/gcc/arm-none-eabi/9.2.1/../../../arm-none-eabi/lib/thumb/v8-m.main/nofp/libg_nano.a(lib_a-signal.o)
 .data          0x0000000000000000        0x0 /usr/lib/gcc/arm-none-eabi/9.2.1/../../../arm-none-eabi/lib/thumb/v8-m.main/nofp/libg_nano.a(lib_a-signalr.o)
 .bss           0x0000000000000000        0x0 /usr/lib/gcc/arm-none-eabi/9.2.1/../../../arm-none-eabi/lib/thumb/v8-m.main/nofp/libg_nano.a(lib_a-signalr.o)
 .data          0x0000000000000000        0x0 /usr/lib/gcc/arm-none-eabi/9.2.1/../../../arm-none-eabi/lib/thumb/v8-m.main/nofp/libg_nano.a(lib_a-stdio.o)
 .bss           0x0000000000000000        0x0 /usr/lib/gcc/arm-none-eabi/9.2.1/../../../arm-none-eabi/lib/thumb/v8-m.main/nofp/libg_nano.a(lib_a-stdio.o)
 .data          0x0000000000000000        0x0 /usr/lib/gcc/arm-none-eabi/9.2.1/../../../arm-none-eabi/lib/thumb/v8-m.main/nofp/libg_nano.a(lib_a-writer.o)
 .bss           0x0000000000000000        0x0 /usr/lib/gcc/arm-none-eabi/9.2.1/../../../arm-none-eabi/lib/thumb/v8-m.main/nofp/libg_nano.a(lib_a-writer.o)
 .data          0x0000000000000000        0x0 /usr/lib/gcc/arm-none-eabi/9.2.1/../../../arm-none-eabi/lib/thumb/v8-m.main/nofp/libg_nano.a(lib_a-closer.o)
 .bss           0x0000000000000000        0x0 /usr/lib/gcc/arm-none-eabi/9.2.1/../../../arm-none-eabi/lib/thumb/v8-m.main/nofp/libg_nano.a(lib_a-closer.o)
 .data          0x0000000000000000        0x0 /usr/lib/gcc/arm-none-eabi/9.2.1/../../../arm-none-eabi/lib/thumb/v8-m.main/nofp/libg_nano.a(lib_a-fstatr.o)
 .bss           0x0000000000000000        0x0 /usr/lib/gcc/arm-none-eabi/9.2.1/../../../arm-none-eabi/lib/thumb/v8-m.main/nofp/libg_nano.a(lib_a-fstatr.o)
 .data          0x0000000000000000        0x0 /usr/lib/gcc/arm-none-eabi/9.2.1/../../../arm-none-eabi/lib/thumb/v8-m.main/nofp/libg_nano.a(lib_a-isattyr.o)
 .bss           0x0000000000000000        0x0 /usr/lib/gcc/arm-none-eabi/9.2.1/../../../arm-none-eabi/lib/thumb/v8-m.main/nofp/libg_nano.a(lib_a-isattyr.o)
 .data          0x0000000000000000        0x0 /usr/lib/gcc/arm-none-eabi/9.2.1/../../../arm-none-eabi/lib/thumb/v8-m.main/nofp/libg_nano.a(lib_a-lseekr.o)
 .bss           0x0000000000000000        0x0 /usr/lib/gcc/arm-none-eabi/9.2.1/../../../arm-none-eabi/lib/thumb/v8-m.main/nofp/libg_nano.a(lib_a-lseekr.o)
 .data          0x0000000000000000        0x0 /usr/lib/gcc/arm-none-eabi/9.2.1/../../../arm-none-eabi/lib/thumb/v8-m.main/nofp/libg_nano.a(lib_a-mlock.o)
 .bss           0x0000000000000000        0x0 /usr/lib/gcc/arm-none-eabi/9.2.1/../../../arm-none-eabi/lib/thumb/v8-m.main/nofp/libg_nano.a(lib_a-mlock.o)
 .data          0x0000000000000000        0x0 /usr/lib/gcc/arm-none-eabi/9.2.1/../../../arm-none-eabi/lib/thumb/v8-m.main/nofp/libg_nano.a(lib_a-nano-msizer.o)
 .bss           0x0000000000000000        0x0 /usr/lib/gcc/arm-none-eabi/9.2.1/../../../arm-none-eabi/lib/thumb/v8-m.main/nofp/libg_nano.a(lib_a-nano-msizer.o)
 .data          0x0000000000000000        0x0 /usr/lib/gcc/arm-none-eabi/9.2.1/../../../arm-none-eabi/lib/thumb/v8-m.main/nofp/libg_nano.a(lib_a-readr.o)
 .bss           0x0000000000000000        0x0 /usr/lib/gcc/arm-none-eabi/9.2.1/../../../arm-none-eabi/lib/thumb/v8-m.main/nofp/libg_nano.a(lib_a-readr.o)
 .text          0x0000000000000000       0xe8 /usr/lib/gcc/arm-none-eabi/9.2.1/../../../arm-none-eabi/lib/thumb/v8-m.main/nofp/libg_nano.a(lib_a-reent.o)
 .data          0x0000000000000000        0x0 /usr/lib/gcc/arm-none-eabi/9.2.1/../../../arm-none-eabi/lib/thumb/v8-m.main/nofp/libg_nano.a(lib_a-reent.o)
 .bss           0x0000000000000000        0x0 /usr/lib/gcc/arm-none-eabi/9.2.1/../../../arm-none-eabi/lib/thumb/v8-m.main/nofp/libg_nano.a(lib_a-reent.o)
 .text          0x0000000000000000        0x0 /usr/lib/gcc/arm-none-eabi/9.2.1/thumb/v8-m.main/nofp/crtend.o
 .data          0x0000000000000000        0x0 /usr/lib/gcc/arm-none-eabi/9.2.1/thumb/v8-m.main/nofp/crtend.o
 .bss           0x0000000000000000        0x0 /usr/lib/gcc/arm-none-eabi/9.2.1/thumb/v8-m.main/nofp/crtend.o
 .text          0x0000000000000000        0x0 /usr/lib/gcc/arm-none-eabi/9.2.1/thumb/v8-m.main/nofp/crtn.o
 .data          0x0000000000000000        0x0 /usr/lib/gcc/arm-none-eabi/9.2.1/thumb/v8-m.main/nofp/crtn.o
 .bss           0x0000000000000000        0x0 /usr/lib/gcc/arm-none-eabi/9.2.1/thumb/v8-m.main/nofp/crtn.o
 .data          0x0000000000000000        0x0 /usr/lib/gcc/arm-none-eabi/9.2.1/../../../arm-none-eabi/lib/thumb/v8-m.main/nofp/libnosys.a(close.o)
 .bss           0x0000000000000000        0x0 /usr/lib/gcc/arm-none-eabi/9.2.1/../../../arm-none-eabi/lib/thumb/v8-m.main/nofp/libnosys.a(close.o)
 .data          0x0000000000000000        0x0 /usr/lib/gcc/arm-none-eabi/9.2.1/../../../arm-none-eabi/lib/thumb/v8-m.main/nofp/libnosys.a(fstat.o)
 .bss           0x0000000000000000        0x0 /usr/lib/gcc/arm-none-eabi/9.2.1/../../../arm-none-eabi/lib/thumb/v8-m.main/nofp/libnosys.a(fstat.o)
 .data          0x0000000000000000        0x0 /usr/lib/gcc/arm-none-eabi/9.2.1/../../../arm-none-eabi/lib/thumb/v8-m.main/nofp/libnosys.a(getpid.o)
 .bss           0x0000000000000000        0x0 /usr/lib/gcc/arm-none-eabi/9.2.1/../../../arm-none-eabi/lib/thumb/v8-m.main/nofp/libnosys.a(getpid.o)
 .data          0x0000000000000000        0x0 /usr/lib/gcc/arm-none-eabi/9.2.1/../../../arm-none-eabi/lib/thumb/v8-m.main/nofp/libnosys.a(isatty.o)
 .bss           0x0000000000000000        0x0 /usr/lib/gcc/arm-none-eabi/9.2.1/../../../arm-none-eabi/lib/thumb/v8-m.main/nofp/libnosys.a(isatty.o)
 .data          0x0000000000000000        0x0 /usr/lib/gcc/arm-none-eabi/9.2.1/../../../arm-none-eabi/lib/thumb/v8-m.main/nofp/libnosys.a(kill.o)
 .bss           0x0000000000000000        0x0 /usr/lib/gcc/arm-none-eabi/9.2.1/../../../arm-none-eabi/lib/thumb/v8-m.main/nofp/libnosys.a(kill.o)
 .data          0x0000000000000000        0x0 /usr/lib/gcc/arm-none-eabi/9.2.1/../../../arm-none-eabi/lib/thumb/v8-m.main/nofp/libnosys.a(lseek.o)
 .bss           0x0000000000000000        0x0 /usr/lib/gcc/arm-none-eabi/9.2.1/../../../arm-none-eabi/lib/thumb/v8-m.main/nofp/libnosys.a(lseek.o)
 .data          0x0000000000000000        0x0 /usr/lib/gcc/arm-none-eabi/9.2.1/../../../arm-none-eabi/lib/thumb/v8-m.main/nofp/libnosys.a(read.o)
 .bss           0x0000000000000000        0x0 /usr/lib/gcc/arm-none-eabi/9.2.1/../../../arm-none-eabi/lib/thumb/v8-m.main/nofp/libnosys.a(read.o)
 .data          0x0000000000000000        0x0 /usr/lib/gcc/arm-none-eabi/9.2.1/../../../arm-none-eabi/lib/thumb/v8-m.main/nofp/libnosys.a(sbrk.o)
 .data          0x0000000000000000        0x0 /usr/lib/gcc/arm-none-eabi/9.2.1/../../../arm-none-eabi/lib/thumb/v8-m.main/nofp/libnosys.a(_exit.o)
 .bss           0x0000000000000000        0x0 /usr/lib/gcc/arm-none-eabi/9.2.1/../../../arm-none-eabi/lib/thumb/v8-m.main/nofp/libnosys.a(_exit.o)

Memory Configuration

Name             Origin             Length             Attributes
FLASH            0x0000000008041400 0x0000000000006c00 xr
RAM              0x0000000020000000 0x0000000000020000 xrw
*default*        0x0000000000000000 0xffffffffffffffff

Linker script and memory map

LOAD /usr/lib/gcc/arm-none-eabi/9.2.1/thumb/v8-m.main/nofp/crti.o
LOAD /usr/lib/gcc/arm-none-eabi/9.2.1/thumb/v8-m.main/nofp/crtbegin.o
LOAD /usr/lib/gcc/arm-none-eabi/9.2.1/../../../arm-none-eabi/lib/thumb/v8-m.main/nofp/crt0.o
LOAD CMakeFiles/tfm_ns.dir/main_ns.o
LOAD CMakeFiles/tfm_ns.dir/__/__/__/platform/ext/target/stm/common/stm32l5xx/Device/Source/startup_stm32l5xx_ns.o
LOAD CMakeFiles/tfm_ns.dir/__/ns_interface/ns_client_ext/tz_shim_layer.o
LOAD CMakeFiles/tfm_ns.dir/__/CMSIS/RTOS2/RTX/Config/RTX_Config.o
LOAD CMakeFiles/tfm_ns.dir/__/CMSIS/RTOS2/RTX/Source/rtx_lib.o
LOAD CMakeFiles/tfm_ns.dir/os_wrapper_cmsis_rtos_v2.o
LOAD CMakeFiles/tfm_ns.dir/__/log/tfm_log_raw.o
LOAD ../../platform/ns/libplatform_ns.a
LOAD libtfm_test_app.a
LOAD ../../lib/ext/tfm_test_repo-src/CMSIS/RTOS2/RTX/Library/GCC/libRTX_V8MMN.a
LOAD libtfm_api_ns.a
LOAD ../../platform/ns/libplatform_ns.a
LOAD ../../secure_fw/libtfm_s_veneers.a
START GROUP
LOAD /usr/lib/gcc/arm-none-eabi/9.2.1/thumb/v8-m.main/nofp/libgcc.a
LOAD /usr/lib/gcc/arm-none-eabi/9.2.1/../../../arm-none-eabi/lib/thumb/v8-m.main/nofp/libg_nano.a
LOAD /usr/lib/gcc/arm-none-eabi/9.2.1/../../../arm-none-eabi/lib/thumb/v8-m.main/nofp/libc_nano.a
END GROUP
START GROUP
LOAD /usr/lib/gcc/arm-none-eabi/9.2.1/thumb/v8-m.main/nofp/libgcc.a
LOAD /usr/lib/gcc/arm-none-eabi/9.2.1/../../../arm-none-eabi/lib/thumb/v8-m.main/nofp/libc_nano.a
END GROUP
LOAD /usr/lib/gcc/arm-none-eabi/9.2.1/thumb/v8-m.main/nofp/crtend.o
LOAD /usr/lib/gcc/arm-none-eabi/9.2.1/thumb/v8-m.main/nofp/crtn.o
                0x0000000000001000                __heap_size__ = 0x1000
                0x0000000000001000                __stack_size__ = 0x1000
START GROUP
LOAD /usr/lib/gcc/arm-none-eabi/9.2.1/thumb/v8-m.main/nofp/libgcc.a
LOAD /usr/lib/gcc/arm-none-eabi/9.2.1/../../../arm-none-eabi/lib/thumb/v8-m.main/nofp/libc.a
LOAD /usr/lib/gcc/arm-none-eabi/9.2.1/../../../arm-none-eabi/lib/thumb/v8-m.main/nofp/libm.a
LOAD /usr/lib/gcc/arm-none-eabi/9.2.1/../../../arm-none-eabi/lib/thumb/v8-m.main/nofp/libnosys.a
END GROUP

.text           0x0000000008041400     0x4878
 *(.vectors)
 .vectors       0x0000000008041400      0x1f4 CMakeFiles/tfm_ns.dir/__/__/__/platform/ext/target/stm/common/stm32l5xx/Device/Source/startup_stm32l5xx_ns.o
                0x0000000008041400                __Vectors
                0x00000000080415f4                __Vectors_End = .
                0x00000000080415f4                __Vectors_Size = (__Vectors_End - __Vectors)
                0x00000000200036c0                __end__ = .
 *(.text*)
 .text          0x00000000080415f4       0x8c /usr/lib/gcc/arm-none-eabi/9.2.1/thumb/v8-m.main/nofp/crtbegin.o
 .text          0x0000000008041680       0x70 /usr/lib/gcc/arm-none-eabi/9.2.1/../../../arm-none-eabi/lib/thumb/v8-m.main/nofp/crt0.o
                0x0000000008041680                _stack_init
                0x0000000008041688                _mainCRTStartup
                0x0000000008041688                _start
 .text.tfm_ns_platform_init
                0x00000000080416f0        0xa CMakeFiles/tfm_ns.dir/main_ns.o
                0x00000000080416f0                tfm_ns_platform_init
 .text.tfm_ns_cp_init
                0x00000000080416fa        0x4 CMakeFiles/tfm_ns.dir/main_ns.o
                0x00000000080416fa                tfm_ns_cp_init
 *fill*         0x00000000080416fe        0x2 
 .text.send_test
                0x0000000008041700       0x70 CMakeFiles/tfm_ns.dir/main_ns.o
                0x0000000008041700                send_test
 .text.startup.main
                0x0000000008041770       0x40 CMakeFiles/tfm_ns.dir/main_ns.o
                0x0000000008041770                main
 .text.NMI_Handler
                0x00000000080417b0        0x2 CMakeFiles/tfm_ns.dir/__/__/__/platform/ext/target/stm/common/stm32l5xx/Device/Source/startup_stm32l5xx_ns.o
                0x00000000080417b0                NMI_Handler
 .text.HardFault_Handler
                0x00000000080417b2        0x2 CMakeFiles/tfm_ns.dir/__/__/__/platform/ext/target/stm/common/stm32l5xx/Device/Source/startup_stm32l5xx_ns.o
                0x00000000080417b2                HardFault_Handler
 .text.MemManage_Handler
                0x00000000080417b4        0x2 CMakeFiles/tfm_ns.dir/__/__/__/platform/ext/target/stm/common/stm32l5xx/Device/Source/startup_stm32l5xx_ns.o
                0x00000000080417b4                MemManage_Handler
 .text.BusFault_Handler
                0x00000000080417b6        0x2 CMakeFiles/tfm_ns.dir/__/__/__/platform/ext/target/stm/common/stm32l5xx/Device/Source/startup_stm32l5xx_ns.o
                0x00000000080417b6                BusFault_Handler
 .text.UsageFault_Handler
                0x00000000080417b8        0x2 CMakeFiles/tfm_ns.dir/__/__/__/platform/ext/target/stm/common/stm32l5xx/Device/Source/startup_stm32l5xx_ns.o
                0x00000000080417b8                UsageFault_Handler
 .text.SecureFault_Handler
                0x00000000080417ba        0x2 CMakeFiles/tfm_ns.dir/__/__/__/platform/ext/target/stm/common/stm32l5xx/Device/Source/startup_stm32l5xx_ns.o
                0x00000000080417ba                SecureFault_Handler
 .text.DebugMon_Handler
                0x00000000080417bc        0x2 CMakeFiles/tfm_ns.dir/__/__/__/platform/ext/target/stm/common/stm32l5xx/Device/Source/startup_stm32l5xx_ns.o
                0x00000000080417bc                DebugMon_Handler
 .text.WWDG_IRQHandler
                0x00000000080417be        0x2 CMakeFiles/tfm_ns.dir/__/__/__/platform/ext/target/stm/common/stm32l5xx/Device/Source/startup_stm32l5xx_ns.o
                0x00000000080417be                WWDG_IRQHandler
 .text.PVD_PVM_IRQHandler
                0x00000000080417c0        0x2 CMakeFiles/tfm_ns.dir/__/__/__/platform/ext/target/stm/common/stm32l5xx/Device/Source/startup_stm32l5xx_ns.o
                0x00000000080417c0                PVD_PVM_IRQHandler
 .text.RTC_IRQHandler
                0x00000000080417c2        0x2 CMakeFiles/tfm_ns.dir/__/__/__/platform/ext/target/stm/common/stm32l5xx/Device/Source/startup_stm32l5xx_ns.o
                0x00000000080417c2                RTC_IRQHandler
 .text.RTC_IRQHandler_S
                0x00000000080417c4        0x2 CMakeFiles/tfm_ns.dir/__/__/__/platform/ext/target/stm/common/stm32l5xx/Device/Source/startup_stm32l5xx_ns.o
                0x00000000080417c4                RTC_IRQHandler_S
 .text.TAMP_IRQHandler
                0x00000000080417c6        0x2 CMakeFiles/tfm_ns.dir/__/__/__/platform/ext/target/stm/common/stm32l5xx/Device/Source/startup_stm32l5xx_ns.o
                0x00000000080417c6                TAMP_IRQHandler
 .text.TAMP_IRQHandler_S
                0x00000000080417c8        0x2 CMakeFiles/tfm_ns.dir/__/__/__/platform/ext/target/stm/common/stm32l5xx/Device/Source/startup_stm32l5xx_ns.o
                0x00000000080417c8                TAMP_IRQHandler_S
 .text.FLASH_IRQHandler
                0x00000000080417ca        0x2 CMakeFiles/tfm_ns.dir/__/__/__/platform/ext/target/stm/common/stm32l5xx/Device/Source/startup_stm32l5xx_ns.o
                0x00000000080417ca                FLASH_IRQHandler
 .text.FLASH_IRQHandler_S
                0x00000000080417cc        0x2 CMakeFiles/tfm_ns.dir/__/__/__/platform/ext/target/stm/common/stm32l5xx/Device/Source/startup_stm32l5xx_ns.o
                0x00000000080417cc                FLASH_IRQHandler_S
 .text.SERR_IRQHandler
                0x00000000080417ce        0x2 CMakeFiles/tfm_ns.dir/__/__/__/platform/ext/target/stm/common/stm32l5xx/Device/Source/startup_stm32l5xx_ns.o
                0x00000000080417ce                SERR_IRQHandler
 .text.RCC_IRQHandler
                0x00000000080417d0        0x2 CMakeFiles/tfm_ns.dir/__/__/__/platform/ext/target/stm/common/stm32l5xx/Device/Source/startup_stm32l5xx_ns.o
                0x00000000080417d0                RCC_IRQHandler
 .text.RCC_IRQHandler_S
                0x00000000080417d2        0x2 CMakeFiles/tfm_ns.dir/__/__/__/platform/ext/target/stm/common/stm32l5xx/Device/Source/startup_stm32l5xx_ns.o
                0x00000000080417d2                RCC_IRQHandler_S
 .text.EXTI0_IRQHandler
                0x00000000080417d4        0x2 CMakeFiles/tfm_ns.dir/__/__/__/platform/ext/target/stm/common/stm32l5xx/Device/Source/startup_stm32l5xx_ns.o
                0x00000000080417d4                EXTI0_IRQHandler
 .text.EXTI1_IRQHandler
                0x00000000080417d6        0x2 CMakeFiles/tfm_ns.dir/__/__/__/platform/ext/target/stm/common/stm32l5xx/Device/Source/startup_stm32l5xx_ns.o
                0x00000000080417d6                EXTI1_IRQHandler
 .text.EXTI2_IRQHandler
                0x00000000080417d8        0x2 CMakeFiles/tfm_ns.dir/__/__/__/platform/ext/target/stm/common/stm32l5xx/Device/Source/startup_stm32l5xx_ns.o
                0x00000000080417d8                EXTI2_IRQHandler
 .text.EXTI3_IRQHandler
                0x00000000080417da        0x2 CMakeFiles/tfm_ns.dir/__/__/__/platform/ext/target/stm/common/stm32l5xx/Device/Source/startup_stm32l5xx_ns.o
                0x00000000080417da                EXTI3_IRQHandler
 .text.EXTI4_IRQHandler
                0x00000000080417dc        0x2 CMakeFiles/tfm_ns.dir/__/__/__/platform/ext/target/stm/common/stm32l5xx/Device/Source/startup_stm32l5xx_ns.o
                0x00000000080417dc                EXTI4_IRQHandler
 .text.EXTI5_IRQHandler
                0x00000000080417de        0x2 CMakeFiles/tfm_ns.dir/__/__/__/platform/ext/target/stm/common/stm32l5xx/Device/Source/startup_stm32l5xx_ns.o
                0x00000000080417de                EXTI5_IRQHandler
 .text.EXTI6_IRQHandler
                0x00000000080417e0        0x2 CMakeFiles/tfm_ns.dir/__/__/__/platform/ext/target/stm/common/stm32l5xx/Device/Source/startup_stm32l5xx_ns.o
                0x00000000080417e0                EXTI6_IRQHandler
 .text.EXTI7_IRQHandler
                0x00000000080417e2        0x2 CMakeFiles/tfm_ns.dir/__/__/__/platform/ext/target/stm/common/stm32l5xx/Device/Source/startup_stm32l5xx_ns.o
                0x00000000080417e2                EXTI7_IRQHandler
 .text.EXTI8_IRQHandler
                0x00000000080417e4        0x2 CMakeFiles/tfm_ns.dir/__/__/__/platform/ext/target/stm/common/stm32l5xx/Device/Source/startup_stm32l5xx_ns.o
                0x00000000080417e4                EXTI8_IRQHandler
 .text.EXTI9_IRQHandler
                0x00000000080417e6        0x2 CMakeFiles/tfm_ns.dir/__/__/__/platform/ext/target/stm/common/stm32l5xx/Device/Source/startup_stm32l5xx_ns.o
                0x00000000080417e6                EXTI9_IRQHandler
 .text.EXTI10_IRQHandler
                0x00000000080417e8        0x2 CMakeFiles/tfm_ns.dir/__/__/__/platform/ext/target/stm/common/stm32l5xx/Device/Source/startup_stm32l5xx_ns.o
                0x00000000080417e8                EXTI10_IRQHandler
 .text.EXTI11_IRQHandler
                0x00000000080417ea        0x2 CMakeFiles/tfm_ns.dir/__/__/__/platform/ext/target/stm/common/stm32l5xx/Device/Source/startup_stm32l5xx_ns.o
                0x00000000080417ea                EXTI11_IRQHandler
 .text.EXTI12_IRQHandler
                0x00000000080417ec        0x2 CMakeFiles/tfm_ns.dir/__/__/__/platform/ext/target/stm/common/stm32l5xx/Device/Source/startup_stm32l5xx_ns.o
                0x00000000080417ec                EXTI12_IRQHandler
 .text.EXTI13_IRQHandler
                0x00000000080417ee        0x2 CMakeFiles/tfm_ns.dir/__/__/__/platform/ext/target/stm/common/stm32l5xx/Device/Source/startup_stm32l5xx_ns.o
                0x00000000080417ee                EXTI13_IRQHandler
 .text.EXTI14_IRQHandler
                0x00000000080417f0        0x2 CMakeFiles/tfm_ns.dir/__/__/__/platform/ext/target/stm/common/stm32l5xx/Device/Source/startup_stm32l5xx_ns.o
                0x00000000080417f0                EXTI14_IRQHandler
 .text.EXTI15_IRQHandler
                0x00000000080417f2        0x2 CMakeFiles/tfm_ns.dir/__/__/__/platform/ext/target/stm/common/stm32l5xx/Device/Source/startup_stm32l5xx_ns.o
                0x00000000080417f2                EXTI15_IRQHandler
 .text.DMAMUX1_IRQHandler
                0x00000000080417f4        0x2 CMakeFiles/tfm_ns.dir/__/__/__/platform/ext/target/stm/common/stm32l5xx/Device/Source/startup_stm32l5xx_ns.o
                0x00000000080417f4                DMAMUX1_IRQHandler
 .text.DMAMUX1_IRQHandler_S
                0x00000000080417f6        0x2 CMakeFiles/tfm_ns.dir/__/__/__/platform/ext/target/stm/common/stm32l5xx/Device/Source/startup_stm32l5xx_ns.o
                0x00000000080417f6                DMAMUX1_IRQHandler_S
 .text.DMA1_Channel1_IRQHandler
                0x00000000080417f8        0x2 CMakeFiles/tfm_ns.dir/__/__/__/platform/ext/target/stm/common/stm32l5xx/Device/Source/startup_stm32l5xx_ns.o
                0x00000000080417f8                DMA1_Channel1_IRQHandler
 .text.DMA1_Channel2_IRQHandler
                0x00000000080417fa        0x2 CMakeFiles/tfm_ns.dir/__/__/__/platform/ext/target/stm/common/stm32l5xx/Device/Source/startup_stm32l5xx_ns.o
                0x00000000080417fa                DMA1_Channel2_IRQHandler
 .text.DMA1_Channel3_IRQHandler
                0x00000000080417fc        0x2 CMakeFiles/tfm_ns.dir/__/__/__/platform/ext/target/stm/common/stm32l5xx/Device/Source/startup_stm32l5xx_ns.o
                0x00000000080417fc                DMA1_Channel3_IRQHandler
 .text.DMA1_Channel4_IRQHandler
                0x00000000080417fe        0x2 CMakeFiles/tfm_ns.dir/__/__/__/platform/ext/target/stm/common/stm32l5xx/Device/Source/startup_stm32l5xx_ns.o
                0x00000000080417fe                DMA1_Channel4_IRQHandler
 .text.DMA1_Channel5_IRQHandler
                0x0000000008041800        0x2 CMakeFiles/tfm_ns.dir/__/__/__/platform/ext/target/stm/common/stm32l5xx/Device/Source/startup_stm32l5xx_ns.o
                0x0000000008041800                DMA1_Channel5_IRQHandler
 .text.DMA1_Channel6_IRQHandler
                0x0000000008041802        0x2 CMakeFiles/tfm_ns.dir/__/__/__/platform/ext/target/stm/common/stm32l5xx/Device/Source/startup_stm32l5xx_ns.o
                0x0000000008041802                DMA1_Channel6_IRQHandler
 .text.DMA1_Channel7_IRQHandler
                0x0000000008041804        0x2 CMakeFiles/tfm_ns.dir/__/__/__/platform/ext/target/stm/common/stm32l5xx/Device/Source/startup_stm32l5xx_ns.o
                0x0000000008041804                DMA1_Channel7_IRQHandler
 .text.DMA1_Channel8_IRQHandler
                0x0000000008041806        0x2 CMakeFiles/tfm_ns.dir/__/__/__/platform/ext/target/stm/common/stm32l5xx/Device/Source/startup_stm32l5xx_ns.o
                0x0000000008041806                DMA1_Channel8_IRQHandler
 .text.ADC1_2_IRQHandler
                0x0000000008041808        0x2 CMakeFiles/tfm_ns.dir/__/__/__/platform/ext/target/stm/common/stm32l5xx/Device/Source/startup_stm32l5xx_ns.o
                0x0000000008041808                ADC1_2_IRQHandler
 .text.DAC_IRQHandler
                0x000000000804180a        0x2 CMakeFiles/tfm_ns.dir/__/__/__/platform/ext/target/stm/common/stm32l5xx/Device/Source/startup_stm32l5xx_ns.o
                0x000000000804180a                DAC_IRQHandler
 .text.FDCAN1_IT0_IRQHandler
                0x000000000804180c        0x2 CMakeFiles/tfm_ns.dir/__/__/__/platform/ext/target/stm/common/stm32l5xx/Device/Source/startup_stm32l5xx_ns.o
                0x000000000804180c                FDCAN1_IT0_IRQHandler
 .text.FDCAN1_IT1_IRQHandler
                0x000000000804180e        0x2 CMakeFiles/tfm_ns.dir/__/__/__/platform/ext/target/stm/common/stm32l5xx/Device/Source/startup_stm32l5xx_ns.o
                0x000000000804180e                FDCAN1_IT1_IRQHandler
 .text.TIM1_BRK_IRQHandler
                0x0000000008041810        0x2 CMakeFiles/tfm_ns.dir/__/__/__/platform/ext/target/stm/common/stm32l5xx/Device/Source/startup_stm32l5xx_ns.o
                0x0000000008041810                TIM1_BRK_IRQHandler
 .text.TIM1_UP_IRQHandler
                0x0000000008041812        0x2 CMakeFiles/tfm_ns.dir/__/__/__/platform/ext/target/stm/common/stm32l5xx/Device/Source/startup_stm32l5xx_ns.o
                0x0000000008041812                TIM1_UP_IRQHandler
 .text.TIM1_TRG_COM_IRQHandler
                0x0000000008041814        0x2 CMakeFiles/tfm_ns.dir/__/__/__/platform/ext/target/stm/common/stm32l5xx/Device/Source/startup_stm32l5xx_ns.o
                0x0000000008041814                TIM1_TRG_COM_IRQHandler
 .text.TIM1_CC_IRQHandler
                0x0000000008041816        0x2 CMakeFiles/tfm_ns.dir/__/__/__/platform/ext/target/stm/common/stm32l5xx/Device/Source/startup_stm32l5xx_ns.o
                0x0000000008041816                TIM1_CC_IRQHandler
 .text.TIM2_IRQHandler
                0x0000000008041818        0x2 CMakeFiles/tfm_ns.dir/__/__/__/platform/ext/target/stm/common/stm32l5xx/Device/Source/startup_stm32l5xx_ns.o
                0x0000000008041818                TIM2_IRQHandler
 .text.TIM3_IRQHandler
                0x000000000804181a        0x2 CMakeFiles/tfm_ns.dir/__/__/__/platform/ext/target/stm/common/stm32l5xx/Device/Source/startup_stm32l5xx_ns.o
                0x000000000804181a                TIM3_IRQHandler
 .text.TIM4_IRQHandler
                0x000000000804181c        0x2 CMakeFiles/tfm_ns.dir/__/__/__/platform/ext/target/stm/common/stm32l5xx/Device/Source/startup_stm32l5xx_ns.o
                0x000000000804181c                TIM4_IRQHandler
 .text.TIM5_IRQHandler
                0x000000000804181e        0x2 CMakeFiles/tfm_ns.dir/__/__/__/platform/ext/target/stm/common/stm32l5xx/Device/Source/startup_stm32l5xx_ns.o
                0x000000000804181e                TIM5_IRQHandler
 .text.TIM6_IRQHandler
                0x0000000008041820        0x2 CMakeFiles/tfm_ns.dir/__/__/__/platform/ext/target/stm/common/stm32l5xx/Device/Source/startup_stm32l5xx_ns.o
                0x0000000008041820                TIM6_IRQHandler
 .text.TIM7_IRQHandler
                0x0000000008041822        0x2 CMakeFiles/tfm_ns.dir/__/__/__/platform/ext/target/stm/common/stm32l5xx/Device/Source/startup_stm32l5xx_ns.o
                0x0000000008041822                TIM7_IRQHandler
 .text.TIM8_BRK_IRQHandler
                0x0000000008041824        0x2 CMakeFiles/tfm_ns.dir/__/__/__/platform/ext/target/stm/common/stm32l5xx/Device/Source/startup_stm32l5xx_ns.o
                0x0000000008041824                TIM8_BRK_IRQHandler
 .text.TIM8_UP_IRQHandler
                0x0000000008041826        0x2 CMakeFiles/tfm_ns.dir/__/__/__/platform/ext/target/stm/common/stm32l5xx/Device/Source/startup_stm32l5xx_ns.o
                0x0000000008041826                TIM8_UP_IRQHandler
 .text.TIM8_TRG_COM_IRQHandler
                0x0000000008041828        0x2 CMakeFiles/tfm_ns.dir/__/__/__/platform/ext/target/stm/common/stm32l5xx/Device/Source/startup_stm32l5xx_ns.o
                0x0000000008041828                TIM8_TRG_COM_IRQHandler
 .text.TIM8_CC_IRQHandler
                0x000000000804182a        0x2 CMakeFiles/tfm_ns.dir/__/__/__/platform/ext/target/stm/common/stm32l5xx/Device/Source/startup_stm32l5xx_ns.o
                0x000000000804182a                TIM8_CC_IRQHandler
 .text.I2C1_EV_IRQHandler
                0x000000000804182c        0x2 CMakeFiles/tfm_ns.dir/__/__/__/platform/ext/target/stm/common/stm32l5xx/Device/Source/startup_stm32l5xx_ns.o
                0x000000000804182c                I2C1_EV_IRQHandler
 .text.I2C1_ER_IRQHandler
                0x000000000804182e        0x2 CMakeFiles/tfm_ns.dir/__/__/__/platform/ext/target/stm/common/stm32l5xx/Device/Source/startup_stm32l5xx_ns.o
                0x000000000804182e                I2C1_ER_IRQHandler
 .text.I2C2_EV_IRQHandler
                0x0000000008041830        0x2 CMakeFiles/tfm_ns.dir/__/__/__/platform/ext/target/stm/common/stm32l5xx/Device/Source/startup_stm32l5xx_ns.o
                0x0000000008041830                I2C2_EV_IRQHandler
 .text.I2C2_ER_IRQHandler
                0x0000000008041832        0x2 CMakeFiles/tfm_ns.dir/__/__/__/platform/ext/target/stm/common/stm32l5xx/Device/Source/startup_stm32l5xx_ns.o
                0x0000000008041832                I2C2_ER_IRQHandler
 .text.SPI1_IRQHandler
                0x0000000008041834        0x2 CMakeFiles/tfm_ns.dir/__/__/__/platform/ext/target/stm/common/stm32l5xx/Device/Source/startup_stm32l5xx_ns.o
                0x0000000008041834                SPI1_IRQHandler
 .text.SPI2_IRQHandler
                0x0000000008041836        0x2 CMakeFiles/tfm_ns.dir/__/__/__/platform/ext/target/stm/common/stm32l5xx/Device/Source/startup_stm32l5xx_ns.o
                0x0000000008041836                SPI2_IRQHandler
 .text.USART1_IRQHandler
                0x0000000008041838        0x2 CMakeFiles/tfm_ns.dir/__/__/__/platform/ext/target/stm/common/stm32l5xx/Device/Source/startup_stm32l5xx_ns.o
                0x0000000008041838                USART1_IRQHandler
 .text.USART2_IRQHandler
                0x000000000804183a        0x2 CMakeFiles/tfm_ns.dir/__/__/__/platform/ext/target/stm/common/stm32l5xx/Device/Source/startup_stm32l5xx_ns.o
                0x000000000804183a                USART2_IRQHandler
 .text.USART3_IRQHandler
                0x000000000804183c        0x2 CMakeFiles/tfm_ns.dir/__/__/__/platform/ext/target/stm/common/stm32l5xx/Device/Source/startup_stm32l5xx_ns.o
                0x000000000804183c                USART3_IRQHandler
 .text.UART4_IRQHandler
                0x000000000804183e        0x2 CMakeFiles/tfm_ns.dir/__/__/__/platform/ext/target/stm/common/stm32l5xx/Device/Source/startup_stm32l5xx_ns.o
                0x000000000804183e                UART4_IRQHandler
 .text.UART5_IRQHandler
                0x0000000008041840        0x2 CMakeFiles/tfm_ns.dir/__/__/__/platform/ext/target/stm/common/stm32l5xx/Device/Source/startup_stm32l5xx_ns.o
                0x0000000008041840                UART5_IRQHandler
 .text.LPUART1_IRQHandler
                0x0000000008041842        0x2 CMakeFiles/tfm_ns.dir/__/__/__/platform/ext/target/stm/common/stm32l5xx/Device/Source/startup_stm32l5xx_ns.o
                0x0000000008041842                LPUART1_IRQHandler
 .text.LPTIM1_IRQHandler
                0x0000000008041844        0x2 CMakeFiles/tfm_ns.dir/__/__/__/platform/ext/target/stm/common/stm32l5xx/Device/Source/startup_stm32l5xx_ns.o
                0x0000000008041844                LPTIM1_IRQHandler
 .text.LPTIM2_IRQHandler
                0x0000000008041846        0x2 CMakeFiles/tfm_ns.dir/__/__/__/platform/ext/target/stm/common/stm32l5xx/Device/Source/startup_stm32l5xx_ns.o
                0x0000000008041846                LPTIM2_IRQHandler
 .text.TIM15_IRQHandler
                0x0000000008041848        0x2 CMakeFiles/tfm_ns.dir/__/__/__/platform/ext/target/stm/common/stm32l5xx/Device/Source/startup_stm32l5xx_ns.o
                0x0000000008041848                TIM15_IRQHandler
 .text.TIM16_IRQHandler
                0x000000000804184a        0x2 CMakeFiles/tfm_ns.dir/__/__/__/platform/ext/target/stm/common/stm32l5xx/Device/Source/startup_stm32l5xx_ns.o
                0x000000000804184a                TIM16_IRQHandler
 .text.TIM17_IRQHandler
                0x000000000804184c        0x2 CMakeFiles/tfm_ns.dir/__/__/__/platform/ext/target/stm/common/stm32l5xx/Device/Source/startup_stm32l5xx_ns.o
                0x000000000804184c                TIM17_IRQHandler
 .text.COMP_IRQHandler
                0x000000000804184e        0x2 CMakeFiles/tfm_ns.dir/__/__/__/platform/ext/target/stm/common/stm32l5xx/Device/Source/startup_stm32l5xx_ns.o
                0x000000000804184e                COMP_IRQHandler
 .text.USB_FS_IRQHandler
                0x0000000008041850        0x2 CMakeFiles/tfm_ns.dir/__/__/__/platform/ext/target/stm/common/stm32l5xx/Device/Source/startup_stm32l5xx_ns.o
                0x0000000008041850                USB_FS_IRQHandler
 .text.CRS_IRQHandler
                0x0000000008041852        0x2 CMakeFiles/tfm_ns.dir/__/__/__/platform/ext/target/stm/common/stm32l5xx/Device/Source/startup_stm32l5xx_ns.o
                0x0000000008041852                CRS_IRQHandler
 .text.FMC_IRQHandler
                0x0000000008041854        0x2 CMakeFiles/tfm_ns.dir/__/__/__/platform/ext/target/stm/common/stm32l5xx/Device/Source/startup_stm32l5xx_ns.o
                0x0000000008041854                FMC_IRQHandler
 .text.OCTOSPI1_IRQHandler
                0x0000000008041856        0x2 CMakeFiles/tfm_ns.dir/__/__/__/platform/ext/target/stm/common/stm32l5xx/Device/Source/startup_stm32l5xx_ns.o
                0x0000000008041856                OCTOSPI1_IRQHandler
 .text.SDMMC1_IRQHandler
                0x0000000008041858        0x2 CMakeFiles/tfm_ns.dir/__/__/__/platform/ext/target/stm/common/stm32l5xx/Device/Source/startup_stm32l5xx_ns.o
                0x0000000008041858                SDMMC1_IRQHandler
 .text.DMA2_Channel1_IRQHandler
                0x000000000804185a        0x2 CMakeFiles/tfm_ns.dir/__/__/__/platform/ext/target/stm/common/stm32l5xx/Device/Source/startup_stm32l5xx_ns.o
                0x000000000804185a                DMA2_Channel1_IRQHandler
 .text.DMA2_Channel2_IRQHandler
                0x000000000804185c        0x2 CMakeFiles/tfm_ns.dir/__/__/__/platform/ext/target/stm/common/stm32l5xx/Device/Source/startup_stm32l5xx_ns.o
                0x000000000804185c                DMA2_Channel2_IRQHandler
 .text.DMA2_Channel3_IRQHandler
                0x000000000804185e        0x2 CMakeFiles/tfm_ns.dir/__/__/__/platform/ext/target/stm/common/stm32l5xx/Device/Source/startup_stm32l5xx_ns.o
                0x000000000804185e                DMA2_Channel3_IRQHandler
 .text.DMA2_Channel4_IRQHandler
                0x0000000008041860        0x2 CMakeFiles/tfm_ns.dir/__/__/__/platform/ext/target/stm/common/stm32l5xx/Device/Source/startup_stm32l5xx_ns.o
                0x0000000008041860                DMA2_Channel4_IRQHandler
 .text.DMA2_Channel5_IRQHandler
                0x0000000008041862        0x2 CMakeFiles/tfm_ns.dir/__/__/__/platform/ext/target/stm/common/stm32l5xx/Device/Source/startup_stm32l5xx_ns.o
                0x0000000008041862                DMA2_Channel5_IRQHandler
 .text.DMA2_Channel6_IRQHandler
                0x0000000008041864        0x2 CMakeFiles/tfm_ns.dir/__/__/__/platform/ext/target/stm/common/stm32l5xx/Device/Source/startup_stm32l5xx_ns.o
                0x0000000008041864                DMA2_Channel6_IRQHandler
 .text.DMA2_Channel7_IRQHandler
                0x0000000008041866        0x2 CMakeFiles/tfm_ns.dir/__/__/__/platform/ext/target/stm/common/stm32l5xx/Device/Source/startup_stm32l5xx_ns.o
                0x0000000008041866                DMA2_Channel7_IRQHandler
 .text.DMA2_Channel8_IRQHandler
                0x0000000008041868        0x2 CMakeFiles/tfm_ns.dir/__/__/__/platform/ext/target/stm/common/stm32l5xx/Device/Source/startup_stm32l5xx_ns.o
                0x0000000008041868                DMA2_Channel8_IRQHandler
 .text.I2C3_EV_IRQHandler
                0x000000000804186a        0x2 CMakeFiles/tfm_ns.dir/__/__/__/platform/ext/target/stm/common/stm32l5xx/Device/Source/startup_stm32l5xx_ns.o
                0x000000000804186a                I2C3_EV_IRQHandler
 .text.I2C3_ER_IRQHandler
                0x000000000804186c        0x2 CMakeFiles/tfm_ns.dir/__/__/__/platform/ext/target/stm/common/stm32l5xx/Device/Source/startup_stm32l5xx_ns.o
                0x000000000804186c                I2C3_ER_IRQHandler
 .text.SAI1_IRQHandler
                0x000000000804186e        0x2 CMakeFiles/tfm_ns.dir/__/__/__/platform/ext/target/stm/common/stm32l5xx/Device/Source/startup_stm32l5xx_ns.o
                0x000000000804186e                SAI1_IRQHandler
 .text.SAI2_IRQHandler
                0x0000000008041870        0x2 CMakeFiles/tfm_ns.dir/__/__/__/platform/ext/target/stm/common/stm32l5xx/Device/Source/startup_stm32l5xx_ns.o
                0x0000000008041870                SAI2_IRQHandler
 .text.TSC_IRQHandler
                0x0000000008041872        0x2 CMakeFiles/tfm_ns.dir/__/__/__/platform/ext/target/stm/common/stm32l5xx/Device/Source/startup_stm32l5xx_ns.o
                0x0000000008041872                TSC_IRQHandler
 .text.RNG_IRQHandler
                0x0000000008041874        0x2 CMakeFiles/tfm_ns.dir/__/__/__/platform/ext/target/stm/common/stm32l5xx/Device/Source/startup_stm32l5xx_ns.o
                0x0000000008041874                RNG_IRQHandler
 .text.FPU_IRQHandler
                0x0000000008041876        0x2 CMakeFiles/tfm_ns.dir/__/__/__/platform/ext/target/stm/common/stm32l5xx/Device/Source/startup_stm32l5xx_ns.o
                0x0000000008041876                FPU_IRQHandler
 .text.HASH_IRQHandler
                0x0000000008041878        0x2 CMakeFiles/tfm_ns.dir/__/__/__/platform/ext/target/stm/common/stm32l5xx/Device/Source/startup_stm32l5xx_ns.o
                0x0000000008041878                HASH_IRQHandler
 .text.LPTIM3_IRQHandler
                0x000000000804187a        0x2 CMakeFiles/tfm_ns.dir/__/__/__/platform/ext/target/stm/common/stm32l5xx/Device/Source/startup_stm32l5xx_ns.o
                0x000000000804187a                LPTIM3_IRQHandler
 .text.SPI3_IRQHandler
                0x000000000804187c        0x2 CMakeFiles/tfm_ns.dir/__/__/__/platform/ext/target/stm/common/stm32l5xx/Device/Source/startup_stm32l5xx_ns.o
                0x000000000804187c                SPI3_IRQHandler
 .text.I2C4_ER_IRQHandler
                0x000000000804187e        0x2 CMakeFiles/tfm_ns.dir/__/__/__/platform/ext/target/stm/common/stm32l5xx/Device/Source/startup_stm32l5xx_ns.o
                0x000000000804187e                I2C4_ER_IRQHandler
 .text.I2C4_EV_IRQHandler
                0x0000000008041880        0x2 CMakeFiles/tfm_ns.dir/__/__/__/platform/ext/target/stm/common/stm32l5xx/Device/Source/startup_stm32l5xx_ns.o
                0x0000000008041880                I2C4_EV_IRQHandler
 .text.DFSDM1_FLT0_IRQHandler
                0x0000000008041882        0x2 CMakeFiles/tfm_ns.dir/__/__/__/platform/ext/target/stm/common/stm32l5xx/Device/Source/startup_stm32l5xx_ns.o
                0x0000000008041882                DFSDM1_FLT0_IRQHandler
 .text.DFSDM1_FLT1_IRQHandler
                0x0000000008041884        0x2 CMakeFiles/tfm_ns.dir/__/__/__/platform/ext/target/stm/common/stm32l5xx/Device/Source/startup_stm32l5xx_ns.o
                0x0000000008041884                DFSDM1_FLT1_IRQHandler
 .text.DFSDM1_FLT2_IRQHandler
                0x0000000008041886        0x2 CMakeFiles/tfm_ns.dir/__/__/__/platform/ext/target/stm/common/stm32l5xx/Device/Source/startup_stm32l5xx_ns.o
                0x0000000008041886                DFSDM1_FLT2_IRQHandler
 .text.DFSDM1_FLT3_IRQHandler
                0x0000000008041888        0x2 CMakeFiles/tfm_ns.dir/__/__/__/platform/ext/target/stm/common/stm32l5xx/Device/Source/startup_stm32l5xx_ns.o
                0x0000000008041888                DFSDM1_FLT3_IRQHandler
 .text.UCPD1_IRQHandler
                0x000000000804188a        0x2 CMakeFiles/tfm_ns.dir/__/__/__/platform/ext/target/stm/common/stm32l5xx/Device/Source/startup_stm32l5xx_ns.o
                0x000000000804188a                UCPD1_IRQHandler
 .text.ICACHE_IRQHandler
                0x000000000804188c        0x2 CMakeFiles/tfm_ns.dir/__/__/__/platform/ext/target/stm/common/stm32l5xx/Device/Source/startup_stm32l5xx_ns.o
                0x000000000804188c                ICACHE_IRQHandler
 .text.OTFDEC1_IRQHandler
                0x000000000804188e        0x2 CMakeFiles/tfm_ns.dir/__/__/__/platform/ext/target/stm/common/stm32l5xx/Device/Source/startup_stm32l5xx_ns.o
                0x000000000804188e                OTFDEC1_IRQHandler
 .text.Reset_Handler
                0x0000000008041890       0x88 CMakeFiles/tfm_ns.dir/__/__/__/platform/ext/target/stm/common/stm32l5xx/Device/Source/startup_stm32l5xx_ns.o
                0x0000000008041890                Reset_Handler
 .text.TZ_InitContextSystem_S
                0x0000000008041918        0x4 CMakeFiles/tfm_ns.dir/__/ns_interface/ns_client_ext/tz_shim_layer.o
                0x0000000008041918                TZ_InitContextSystem_S
 .text.TZ_AllocModuleContext_S
                0x000000000804191c        0x4 CMakeFiles/tfm_ns.dir/__/ns_interface/ns_client_ext/tz_shim_layer.o
                0x000000000804191c                TZ_AllocModuleContext_S
 .text.TZ_FreeModuleContext_S
                0x0000000008041920        0x4 CMakeFiles/tfm_ns.dir/__/ns_interface/ns_client_ext/tz_shim_layer.o
                0x0000000008041920                TZ_FreeModuleContext_S
 .text.TZ_LoadContext_S
                0x0000000008041924        0x4 CMakeFiles/tfm_ns.dir/__/ns_interface/ns_client_ext/tz_shim_layer.o
                0x0000000008041924                TZ_LoadContext_S
 .text.TZ_StoreContext_S
                0x0000000008041928        0x4 CMakeFiles/tfm_ns.dir/__/ns_interface/ns_client_ext/tz_shim_layer.o
                0x0000000008041928                TZ_StoreContext_S
 .text.osRtxErrorNotify
                0x000000000804192c        0x2 CMakeFiles/tfm_ns.dir/__/CMSIS/RTOS2/RTX/Config/RTX_Config.o
                0x000000000804192c                osRtxErrorNotify
 .text.software_init_hook
                0x000000000804192e        0x4 CMakeFiles/tfm_ns.dir/__/CMSIS/RTOS2/RTX/Source/rtx_lib.o
                0x000000000804192e                software_init_hook
 .text.os_wrapper_mutex_create
                0x0000000008041932       0x1a CMakeFiles/tfm_ns.dir/os_wrapper_cmsis_rtos_v2.o
                0x0000000008041932                os_wrapper_mutex_create
 .text._tfm_flush_formatted_buffer
                0x000000000804194c       0x1c CMakeFiles/tfm_ns.dir/__/log/tfm_log_raw.o
 .text._tfm_dec_num_output
                0x0000000008041968       0x5e CMakeFiles/tfm_ns.dir/__/log/tfm_log_raw.o
 .text._tfm_hex_num_output
                0x00000000080419c6       0x3a CMakeFiles/tfm_ns.dir/__/log/tfm_log_raw.o
 .text._tfm_string_output
                0x0000000008041a00       0x1a CMakeFiles/tfm_ns.dir/__/log/tfm_log_raw.o
 *fill*         0x0000000008041a1a        0x2 
 .text.tfm_log_printf
                0x0000000008041a1c      0x110 CMakeFiles/tfm_ns.dir/__/log/tfm_log_raw.o
                0x0000000008041a1c                tfm_log_printf
 .text.stdio_output_string
                0x0000000008041b2c       0x28 ../../platform/ns/libplatform_ns.a(uart_stdout.o)
                0x0000000008041b2c                stdio_output_string
 .text._write   0x0000000008041b54        0x8 ../../platform/ns/libplatform_ns.a(uart_stdout.o)
                0x0000000008041b54                _write
 .text.stdio_init
                0x0000000008041b5c       0x58 ../../platform/ns/libplatform_ns.a(uart_stdout.o)
                0x0000000008041b5c                stdio_init
 .text.SystemInit
                0x0000000008041bb4        0x2 ../../platform/ns/libplatform_ns.a(system_stm32l5xx.o)
                0x0000000008041bb4                SystemInit
 *fill*         0x0000000008041bb6        0x2 
 .text.USART_GetVersion
                0x0000000008041bb8       0x20 ../../platform/ns/libplatform_ns.a(low_level_com.o)
 .text.USART_GetCapabilities
                0x0000000008041bd8        0x4 ../../platform/ns/libplatform_ns.a(low_level_com.o)
 .text.USART0_Uninitialize
                0x0000000008041bdc        0x4 ../../platform/ns/libplatform_ns.a(low_level_com.o)
 .text.USART0_PowerControl
                0x0000000008041be0        0x4 ../../platform/ns/libplatform_ns.a(low_level_com.o)
 .text.USART0_Transfer
                0x0000000008041be4        0x6 ../../platform/ns/libplatform_ns.a(low_level_com.o)
 .text.USART0_GetTxCount
                0x0000000008041bea        0x4 ../../platform/ns/libplatform_ns.a(low_level_com.o)
 .text.USART0_Control
                0x0000000008041bee        0x4 ../../platform/ns/libplatform_ns.a(low_level_com.o)
 .text.USART0_GetStatus
                0x0000000008041bf2        0xc ../../platform/ns/libplatform_ns.a(low_level_com.o)
 .text.USART0_SetModemControl
                0x0000000008041bfe        0x6 ../../platform/ns/libplatform_ns.a(low_level_com.o)
 .text.USART0_GetModemStatus
                0x0000000008041c04        0xc ../../platform/ns/libplatform_ns.a(low_level_com.o)
 .text.USART0_Receive
                0x0000000008041c10       0x20 ../../platform/ns/libplatform_ns.a(low_level_com.o)
 .text.USART0_Send
                0x0000000008041c30       0x24 ../../platform/ns/libplatform_ns.a(low_level_com.o)
 .text.USART0_Initialize
                0x0000000008041c54       0xc4 ../../platform/ns/libplatform_ns.a(low_level_com.o)
 .text.USART0_GetRxCount
                0x0000000008041d18        0x4 ../../platform/ns/libplatform_ns.a(low_level_com.o)
 .text.HAL_PWREx_EnableVddIO2
                0x0000000008041d1c       0x10 ../../platform/ns/libplatform_ns.a(stm32l5xx_hal_pwr_ex.o)
                0x0000000008041d1c                HAL_PWREx_EnableVddIO2
 .text.HAL_GPIO_Init
                0x0000000008041d2c      0x194 ../../platform/ns/libplatform_ns.a(stm32l5xx_hal_gpio.o)
                0x0000000008041d2c                HAL_GPIO_Init
 .text.HAL_UART_MspInit
                0x0000000008041ec0        0x2 ../../platform/ns/libplatform_ns.a(stm32l5xx_hal_uart.o)
                0x0000000008041ec0                HAL_UART_MspInit
 .text.HAL_UART_RxCpltCallback
                0x0000000008041ec2        0x2 ../../platform/ns/libplatform_ns.a(stm32l5xx_hal_uart.o)
                0x0000000008041ec2                HAL_UART_RxCpltCallback
 .text.HAL_UART_ErrorCallback
                0x0000000008041ec4        0x2 ../../platform/ns/libplatform_ns.a(stm32l5xx_hal_uart.o)
                0x0000000008041ec4                HAL_UART_ErrorCallback
 .text.HAL_UARTEx_RxEventCallback
                0x0000000008041ec6        0x2 ../../platform/ns/libplatform_ns.a(stm32l5xx_hal_uart.o)
                0x0000000008041ec6                HAL_UARTEx_RxEventCallback
 .text.UART_RxISR_8BIT
                0x0000000008041ec8       0x7a ../../platform/ns/libplatform_ns.a(stm32l5xx_hal_uart.o)
 .text.UART_RxISR_16BIT
                0x0000000008041f42       0x76 ../../platform/ns/libplatform_ns.a(stm32l5xx_hal_uart.o)
 .text.UART_RxISR_8BIT_FIFOEN
                0x0000000008041fb8      0x138 ../../platform/ns/libplatform_ns.a(stm32l5xx_hal_uart.o)
 .text.UART_RxISR_16BIT_FIFOEN
                0x00000000080420f0      0x134 ../../platform/ns/libplatform_ns.a(stm32l5xx_hal_uart.o)
 .text.UART_SetConfig
                0x0000000008042224      0x2d0 ../../platform/ns/libplatform_ns.a(stm32l5xx_hal_uart.o)
                0x0000000008042224                UART_SetConfig
 .text.UART_AdvFeatureConfig
                0x00000000080424f4       0xaa ../../platform/ns/libplatform_ns.a(stm32l5xx_hal_uart.o)
                0x00000000080424f4                UART_AdvFeatureConfig
 .text.UART_WaitOnFlagUntilTimeout
                0x000000000804259e       0x94 ../../platform/ns/libplatform_ns.a(stm32l5xx_hal_uart.o)
                0x000000000804259e                UART_WaitOnFlagUntilTimeout
 .text.HAL_UART_Transmit
                0x0000000008042632       0xb8 ../../platform/ns/libplatform_ns.a(stm32l5xx_hal_uart.o)
                0x0000000008042632                HAL_UART_Transmit
 .text.UART_CheckIdleState
                0x00000000080426ea       0x68 ../../platform/ns/libplatform_ns.a(stm32l5xx_hal_uart.o)
                0x00000000080426ea                UART_CheckIdleState
 .text.HAL_UART_Init
                0x0000000008042752       0x60 ../../platform/ns/libplatform_ns.a(stm32l5xx_hal_uart.o)
                0x0000000008042752                HAL_UART_Init
 *fill*         0x00000000080427b2        0x2 
 .text.UART_Start_Receive_IT
                0x00000000080427b4       0xd4 ../../platform/ns/libplatform_ns.a(stm32l5xx_hal_uart.o)
                0x00000000080427b4                UART_Start_Receive_IT
 .text.HAL_UART_Receive_IT
                0x0000000008042888       0x4c ../../platform/ns/libplatform_ns.a(stm32l5xx_hal_uart.o)
                0x0000000008042888                HAL_UART_Receive_IT
 .text.HAL_GetTick
                0x00000000080428d4        0xc ../../platform/ns/libplatform_ns.a(stm32l5xx_hal.o)
                0x00000000080428d4                HAL_GetTick
 .text.HAL_RCC_GetSysClockFreq
                0x00000000080428e0       0x9c ../../platform/ns/libplatform_ns.a(stm32l5xx_hal_rcc.o)
                0x00000000080428e0                HAL_RCC_GetSysClockFreq
 .text.HAL_RCC_GetHCLKFreq
                0x000000000804297c       0x20 ../../platform/ns/libplatform_ns.a(stm32l5xx_hal_rcc.o)
                0x000000000804297c                HAL_RCC_GetHCLKFreq
 .text.HAL_RCC_GetPCLK1Freq
                0x000000000804299c       0x20 ../../platform/ns/libplatform_ns.a(stm32l5xx_hal_rcc.o)
                0x000000000804299c                HAL_RCC_GetPCLK1Freq
 .text.HAL_RCC_GetPCLK2Freq
                0x00000000080429bc       0x20 ../../platform/ns/libplatform_ns.a(stm32l5xx_hal_rcc.o)
                0x00000000080429bc                HAL_RCC_GetPCLK2Freq
 .text.test_app
                0x00000000080429dc       0x10 libtfm_test_app.a(test_app.o)
                0x00000000080429dc                test_app
 .text          0x00000000080429ec      0x124 ../../lib/ext/tfm_test_repo-src/CMSIS/RTOS2/RTX/Library/GCC/libRTX_V8MMN.a(irq_armv8mml.o)
                0x00000000080429ec                SVC_Handler
                0x0000000008042a88                PendSV_Handler
                0x0000000008042a96                SysTick_Handler
                0x0000000008042aa4                Sys_Context
 .text.osRtxTick_Handler
                0x0000000008042b10       0x74 ../../lib/ext/tfm_test_repo-src/CMSIS/RTOS2/RTX/Library/GCC/libRTX_V8MMN.a(rtx_system.o)
                0x0000000008042b10                osRtxTick_Handler
 .text.osRtxPendSV_Handler
                0x0000000008042b84       0xa8 ../../lib/ext/tfm_test_repo-src/CMSIS/RTOS2/RTX/Library/GCC/libRTX_V8MMN.a(rtx_system.o)
                0x0000000008042b84                osRtxPendSV_Handler
 .text.osRtxMemoryPoolInit
                0x0000000008042c2c       0x48 ../../lib/ext/tfm_test_repo-src/CMSIS/RTOS2/RTX/Library/GCC/libRTX_V8MMN.a(rtx_mempool.o)
                0x0000000008042c2c                osRtxMemoryPoolInit
 .text.osRtxMemoryPoolAlloc
                0x0000000008042c74       0x38 ../../lib/ext/tfm_test_repo-src/CMSIS/RTOS2/RTX/Library/GCC/libRTX_V8MMN.a(rtx_mempool.o)
                0x0000000008042c74                osRtxMemoryPoolAlloc
 .text.osRtxMemoryPoolFree
                0x0000000008042cac       0x4c ../../lib/ext/tfm_test_repo-src/CMSIS/RTOS2/RTX/Library/GCC/libRTX_V8MMN.a(rtx_mempool.o)
                0x0000000008042cac                osRtxMemoryPoolFree
 .text.osRtxMemoryInit
                0x0000000008042cf8       0x3c ../../lib/ext/tfm_test_repo-src/CMSIS/RTOS2/RTX/Library/GCC/libRTX_V8MMN.a(rtx_memory.o)
                0x0000000008042cf8                osRtxMemoryInit
 .text.osRtxMemoryAlloc
                0x0000000008042d34       0x7c ../../lib/ext/tfm_test_repo-src/CMSIS/RTOS2/RTX/Library/GCC/libRTX_V8MMN.a(rtx_memory.o)
                0x0000000008042d34                osRtxMemoryAlloc
 .text.osRtxMemoryFree
                0x0000000008042db0       0x78 ../../lib/ext/tfm_test_repo-src/CMSIS/RTOS2/RTX/Library/GCC/libRTX_V8MMN.a(rtx_memory.o)
                0x0000000008042db0                osRtxMemoryFree
 .text.svcRtxMutexNew
                0x0000000008042e28       0x6c ../../lib/ext/tfm_test_repo-src/CMSIS/RTOS2/RTX/Library/GCC/libRTX_V8MMN.a(rtx_mutex.o)
 .text.osRtxMutexOwnerRelease
                0x0000000008042e94       0x44 ../../lib/ext/tfm_test_repo-src/CMSIS/RTOS2/RTX/Library/GCC/libRTX_V8MMN.a(rtx_mutex.o)
                0x0000000008042e94                osRtxMutexOwnerRelease
 .text.osMutexNew
                0x0000000008042ed8       0x24 ../../lib/ext/tfm_test_repo-src/CMSIS/RTOS2/RTX/Library/GCC/libRTX_V8MMN.a(rtx_mutex.o)
                0x0000000008042ed8                osMutexNew
 .text.osThreadExit
                0x0000000008042efc        0xc ../../lib/ext/tfm_test_repo-src/CMSIS/RTOS2/RTX/Library/GCC/libRTX_V8MMN.a(rtx_thread.o)
                0x0000000008042efc                osThreadExit
 .text.osRtxThreadFree
                0x0000000008042f08       0x60 ../../lib/ext/tfm_test_repo-src/CMSIS/RTOS2/RTX/Library/GCC/libRTX_V8MMN.a(rtx_thread.o)
 .text.osRtxThreadPostProcess
                0x0000000008042f68      0x100 ../../lib/ext/tfm_test_repo-src/CMSIS/RTOS2/RTX/Library/GCC/libRTX_V8MMN.a(rtx_thread.o)
 .text.osRtxThreadListGet
                0x0000000008043068       0x14 ../../lib/ext/tfm_test_repo-src/CMSIS/RTOS2/RTX/Library/GCC/libRTX_V8MMN.a(rtx_thread.o)
                0x0000000008043068                osRtxThreadListGet
 .text.osRtxThreadListRemove
                0x000000000804307c       0x14 ../../lib/ext/tfm_test_repo-src/CMSIS/RTOS2/RTX/Library/GCC/libRTX_V8MMN.a(rtx_thread.o)
                0x000000000804307c                osRtxThreadListRemove
 .text.osRtxThreadReadyPut
                0x0000000008043090       0x54 ../../lib/ext/tfm_test_repo-src/CMSIS/RTOS2/RTX/Library/GCC/libRTX_V8MMN.a(rtx_thread.o)
                0x0000000008043090                osRtxThreadReadyPut
 .text.osRtxThreadDelayTick
                0x00000000080430e4       0x78 ../../lib/ext/tfm_test_repo-src/CMSIS/RTOS2/RTX/Library/GCC/libRTX_V8MMN.a(rtx_thread.o)
                0x00000000080430e4                osRtxThreadDelayTick
 .text.osRtxThreadStackCheck
                0x000000000804315c       0x28 ../../lib/ext/tfm_test_repo-src/CMSIS/RTOS2/RTX/Library/GCC/libRTX_V8MMN.a(rtx_thread.o)
                0x000000000804315c                osRtxThreadStackCheck
 .text.osRtxThreadSwitch
                0x0000000008043184       0x14 ../../lib/ext/tfm_test_repo-src/CMSIS/RTOS2/RTX/Library/GCC/libRTX_V8MMN.a(rtx_thread.o)
                0x0000000008043184                osRtxThreadSwitch
 .text.osRtxThreadDispatch
                0x0000000008043198      0x120 ../../lib/ext/tfm_test_repo-src/CMSIS/RTOS2/RTX/Library/GCC/libRTX_V8MMN.a(rtx_thread.o)
                0x0000000008043198                osRtxThreadDispatch
 .text.osRtxThreadWaitExit
                0x00000000080432b8       0x98 ../../lib/ext/tfm_test_repo-src/CMSIS/RTOS2/RTX/Library/GCC/libRTX_V8MMN.a(rtx_thread.o)
                0x00000000080432b8                osRtxThreadWaitExit
 .text.svcRtxThreadNew
                0x0000000008043350      0x2b0 ../../lib/ext/tfm_test_repo-src/CMSIS/RTOS2/RTX/Library/GCC/libRTX_V8MMN.a(rtx_thread.o)
 .text.svcRtxThreadExit
                0x0000000008043600       0xf0 ../../lib/ext/tfm_test_repo-src/CMSIS/RTOS2/RTX/Library/GCC/libRTX_V8MMN.a(rtx_thread.o)
 .text.osThreadNew
                0x00000000080436f0       0x24 ../../lib/ext/tfm_test_repo-src/CMSIS/RTOS2/RTX/Library/GCC/libRTX_V8MMN.a(rtx_thread.o)
                0x00000000080436f0                osThreadNew
 .text.svcRtxKernelInitialize
                0x0000000008043714      0x16c ../../lib/ext/tfm_test_repo-src/CMSIS/RTOS2/RTX/Library/GCC/libRTX_V8MMN.a(rtx_kernel.o)
 .text.osRtxKernelPreInit
                0x0000000008043880        0x4 ../../lib/ext/tfm_test_repo-src/CMSIS/RTOS2/RTX/Library/GCC/libRTX_V8MMN.a(rtx_kernel.o)
                0x0000000008043880                osRtxKernelPreInit
 .text.osKernelInitialize
                0x0000000008043884       0x2c ../../lib/ext/tfm_test_repo-src/CMSIS/RTOS2/RTX/Library/GCC/libRTX_V8MMN.a(rtx_kernel.o)
                0x0000000008043884                osKernelInitialize
 .text.OS_Tick_AcknowledgeIRQ
                0x00000000080438b0        0xc ../../lib/ext/tfm_test_repo-src/CMSIS/RTOS2/RTX/Library/GCC/libRTX_V8MMN.a(os_systick.o)
                0x00000000080438b0                OS_Tick_AcknowledgeIRQ
 .text.psa_call
                0x00000000080438bc       0x38 libtfm_api_ns.a(tfm_psa_ns_api.o)
                0x00000000080438bc                psa_call
 .text.tfm_ns_interface_dispatch
                0x00000000080438f4       0x12 libtfm_api_ns.a(tfm_ns_interface.o)
                0x00000000080438f4                tfm_ns_interface_dispatch
 .text.tfm_ns_interface_init
                0x0000000008043906       0x10 libtfm_api_ns.a(tfm_ns_interface.o)
                0x0000000008043906                tfm_ns_interface_init
 *fill*         0x0000000008043916        0x2 
 .text          0x0000000008043918       0x30 /usr/lib/gcc/arm-none-eabi/9.2.1/thumb/v8-m.main/nofp/libgcc.a(_aeabi_uldivmod.o)
                0x0000000008043918                __aeabi_uldivmod
 .text          0x0000000008043948      0x2c8 /usr/lib/gcc/arm-none-eabi/9.2.1/thumb/v8-m.main/nofp/libgcc.a(_udivmoddi4.o)
                0x0000000008043948                __udivmoddi4
 .text          0x0000000008043c10        0x4 /usr/lib/gcc/arm-none-eabi/9.2.1/thumb/v8-m.main/nofp/libgcc.a(_dvmd_tls.o)
                0x0000000008043c10                __aeabi_ldiv0
                0x0000000008043c10                __aeabi_idiv0
 .text          0x0000000008043c14       0x48 /usr/lib/gcc/arm-none-eabi/9.2.1/../../../arm-none-eabi/lib/thumb/v8-m.main/nofp/libg_nano.a(lib_a-assert.o)
                0x0000000008043c14                __assert_func
                0x0000000008043c50                __assert
 .text          0x0000000008043c5c        0xc /usr/lib/gcc/arm-none-eabi/9.2.1/../../../arm-none-eabi/lib/thumb/v8-m.main/nofp/libg_nano.a(lib_a-atexit.o)
                0x0000000008043c5c                atexit
 .text          0x0000000008043c68       0x28 /usr/lib/gcc/arm-none-eabi/9.2.1/../../../arm-none-eabi/lib/thumb/v8-m.main/nofp/libg_nano.a(lib_a-exit.o)
                0x0000000008043c68                exit
 .text          0x0000000008043c90       0x34 /usr/lib/gcc/arm-none-eabi/9.2.1/../../../arm-none-eabi/lib/thumb/v8-m.main/nofp/libg_nano.a(lib_a-fini.o)
                0x0000000008043c90                __libc_fini_array
 .text          0x0000000008043cc4       0x48 /usr/lib/gcc/arm-none-eabi/9.2.1/../../../arm-none-eabi/lib/thumb/v8-m.main/nofp/libg_nano.a(lib_a-fprintf.o)
                0x0000000008043cc4                _fprintf_r
                0x0000000008043cc4                _fiprintf_r
                0x0000000008043ce4                fprintf
                0x0000000008043ce4                fiprintf
 .text          0x0000000008043d0c       0x48 /usr/lib/gcc/arm-none-eabi/9.2.1/../../../arm-none-eabi/lib/thumb/v8-m.main/nofp/libg_nano.a(lib_a-init.o)
                0x0000000008043d0c                __libc_init_array
 .text          0x0000000008043d54       0xec /usr/lib/gcc/arm-none-eabi/9.2.1/../../../arm-none-eabi/lib/thumb/v8-m.main/nofp/libg_nano.a(lib_a-memcpy.o)
                0x0000000008043d54                memcpy
 .text          0x0000000008043e40       0xa0 /usr/lib/gcc/arm-none-eabi/9.2.1/../../../arm-none-eabi/lib/thumb/v8-m.main/nofp/libg_nano.a(lib_a-memset.o)
                0x0000000008043e40                memset
 .text          0x0000000008043ee0      0x354 /usr/lib/gcc/arm-none-eabi/9.2.1/../../../arm-none-eabi/lib/thumb/v8-m.main/nofp/libg_nano.a(lib_a-nano-vfprintf.o)
                0x0000000008043f18                __sfputs_r
                0x0000000008043f48                __sprint_r
                0x0000000008043f64                _vfiprintf_r
                0x0000000008043f64                _vfprintf_r
                0x000000000804421c                vfiprintf
                0x000000000804421c                vfprintf
 .text          0x0000000008044234      0x3c8 /usr/lib/gcc/arm-none-eabi/9.2.1/../../../arm-none-eabi/lib/thumb/v8-m.main/nofp/libg_nano.a(lib_a-nano-vfprintf_i.o)
                0x0000000008044234                _printf_common
                0x000000000804435c                _printf_i
 .text          0x00000000080445fc       0xc0 /usr/lib/gcc/arm-none-eabi/9.2.1/../../../arm-none-eabi/lib/thumb/v8-m.main/nofp/libg_nano.a(lib_a-wbuf.o)
                0x00000000080445fc                __swbuf_r
                0x00000000080446ac                __swbuf
 .text          0x00000000080446bc      0x100 /usr/lib/gcc/arm-none-eabi/9.2.1/../../../arm-none-eabi/lib/thumb/v8-m.main/nofp/libg_nano.a(lib_a-wsetup.o)
                0x00000000080446bc                __swsetup_r
 .text          0x00000000080447bc       0xb0 /usr/lib/gcc/arm-none-eabi/9.2.1/../../../arm-none-eabi/lib/thumb/v8-m.main/nofp/libg_nano.a(lib_a-__atexit.o)
                0x00000000080447bc                __register_exitproc
 .text          0x000000000804486c       0xa0 /usr/lib/gcc/arm-none-eabi/9.2.1/../../../arm-none-eabi/lib/thumb/v8-m.main/nofp/libg_nano.a(lib_a-__call_atexit.o)
                0x000000000804486c                __call_exitprocs
 .text          0x000000000804490c       0x10 /usr/lib/gcc/arm-none-eabi/9.2.1/../../../arm-none-eabi/lib/thumb/v8-m.main/nofp/libg_nano.a(lib_a-abort.o)
                0x000000000804490c                abort
 .text          0x000000000804491c      0x1b8 /usr/lib/gcc/arm-none-eabi/9.2.1/../../../arm-none-eabi/lib/thumb/v8-m.main/nofp/libg_nano.a(lib_a-fflush.o)
                0x000000000804491c                __sflush_r
                0x0000000008044a50                _fflush_r
                0x0000000008044ab0                fflush
 .text          0x0000000008044ad4      0x214 /usr/lib/gcc/arm-none-eabi/9.2.1/../../../arm-none-eabi/lib/thumb/v8-m.main/nofp/libg_nano.a(lib_a-findfp.o)
                0x0000000008044ad8                _cleanup_r
                0x0000000008044ae8                __sfmoreglue
                0x0000000008044b18                __sfp
                0x0000000008044c94                _cleanup
                0x0000000008044ca8                __sinit
                0x0000000008044cb0                __sfp_lock_acquire
                0x0000000008044cb4                __sfp_lock_release
                0x0000000008044cb8                __sinit_lock_acquire
                0x0000000008044cbc                __sinit_lock_release
                0x0000000008044cc0                __fp_lock_all
                0x0000000008044cd4                __fp_unlock_all
 .text          0x0000000008044ce8      0x328 /usr/lib/gcc/arm-none-eabi/9.2.1/../../../arm-none-eabi/lib/thumb/v8-m.main/nofp/libg_nano.a(lib_a-fvwrite.o)
                0x0000000008044ce8                __sfvwrite_r
 .text          0x0000000008045010       0x98 /usr/lib/gcc/arm-none-eabi/9.2.1/../../../arm-none-eabi/lib/thumb/v8-m.main/nofp/libg_nano.a(lib_a-fwalk.o)
                0x0000000008045010                _fwalk
                0x0000000008045058                _fwalk_reent
 .text          0x00000000080450a8       0xf0 /usr/lib/gcc/arm-none-eabi/9.2.1/../../../arm-none-eabi/lib/thumb/v8-m.main/nofp/libg_nano.a(lib_a-makebuf.o)
                0x00000000080450a8                __swhatbuf_r
                0x0000000008045104                __smakebuf_r
 .text          0x0000000008045198       0x8c /usr/lib/gcc/arm-none-eabi/9.2.1/../../../arm-none-eabi/lib/thumb/v8-m.main/nofp/libg_nano.a(lib_a-memchr-stub.o)
                0x0000000008045198                memchr
 .text          0x0000000008045224       0xd0 /usr/lib/gcc/arm-none-eabi/9.2.1/../../../arm-none-eabi/lib/thumb/v8-m.main/nofp/libg_nano.a(lib_a-memmove.o)
                0x0000000008045224                memmove
 .text          0x00000000080452f4       0xb4 /usr/lib/gcc/arm-none-eabi/9.2.1/../../../arm-none-eabi/lib/thumb/v8-m.main/nofp/libg_nano.a(lib_a-nano-freer.o)
                0x00000000080452f4                _free_r
 .text          0x00000000080453a8       0xc8 /usr/lib/gcc/arm-none-eabi/9.2.1/../../../arm-none-eabi/lib/thumb/v8-m.main/nofp/libg_nano.a(lib_a-nano-mallocr.o)
                0x00000000080453a8                _malloc_r
 .text          0x0000000008045470       0x4c /usr/lib/gcc/arm-none-eabi/9.2.1/../../../arm-none-eabi/lib/thumb/v8-m.main/nofp/libg_nano.a(lib_a-nano-reallocr.o)
                0x0000000008045470                _realloc_r
 .text          0x00000000080454bc       0x24 /usr/lib/gcc/arm-none-eabi/9.2.1/../../../arm-none-eabi/lib/thumb/v8-m.main/nofp/libg_nano.a(lib_a-sbrkr.o)
                0x00000000080454bc                _sbrk_r
 .text          0x00000000080454e0      0x150 /usr/lib/gcc/arm-none-eabi/9.2.1/../../../arm-none-eabi/lib/thumb/v8-m.main/nofp/libg_nano.a(lib_a-signal.o)
                0x0000000008045508                _init_signal_r
                0x0000000008045514                _signal_r
                0x0000000008045548                _raise_r
                0x000000000804559c                __sigtramp_r
                0x00000000080455ec                raise
                0x00000000080455fc                signal
                0x000000000804560c                _init_signal
                0x0000000008045620                __sigtramp
 .text          0x0000000008045630       0x2c /usr/lib/gcc/arm-none-eabi/9.2.1/../../../arm-none-eabi/lib/thumb/v8-m.main/nofp/libg_nano.a(lib_a-signalr.o)
                0x0000000008045630                _kill_r
                0x0000000008045658                _getpid_r
 .text          0x000000000804565c       0x94 /usr/lib/gcc/arm-none-eabi/9.2.1/../../../arm-none-eabi/lib/thumb/v8-m.main/nofp/libg_nano.a(lib_a-stdio.o)
                0x000000000804565c                __sread
                0x0000000008045680                __seofread
                0x0000000008045684                __swrite
                0x00000000080456c4                __sseek
                0x00000000080456e8                __sclose
 .text          0x00000000080456f0       0x2c /usr/lib/gcc/arm-none-eabi/9.2.1/../../../arm-none-eabi/lib/thumb/v8-m.main/nofp/libg_nano.a(lib_a-writer.o)
                0x00000000080456f0                _write_r
 .text          0x000000000804571c       0x24 /usr/lib/gcc/arm-none-eabi/9.2.1/../../../arm-none-eabi/lib/thumb/v8-m.main/nofp/libg_nano.a(lib_a-closer.o)
                0x000000000804571c                _close_r
 .text          0x0000000008045740       0x28 /usr/lib/gcc/arm-none-eabi/9.2.1/../../../arm-none-eabi/lib/thumb/v8-m.main/nofp/libg_nano.a(lib_a-fstatr.o)
                0x0000000008045740                _fstat_r
 .text          0x0000000008045768       0x24 /usr/lib/gcc/arm-none-eabi/9.2.1/../../../arm-none-eabi/lib/thumb/v8-m.main/nofp/libg_nano.a(lib_a-isattyr.o)
                0x0000000008045768                _isatty_r
 .text          0x000000000804578c       0x2c /usr/lib/gcc/arm-none-eabi/9.2.1/../../../arm-none-eabi/lib/thumb/v8-m.main/nofp/libg_nano.a(lib_a-lseekr.o)
                0x000000000804578c                _lseek_r
 .text          0x00000000080457b8        0x8 /usr/lib/gcc/arm-none-eabi/9.2.1/../../../arm-none-eabi/lib/thumb/v8-m.main/nofp/libg_nano.a(lib_a-mlock.o)
                0x00000000080457b8                __malloc_lock
                0x00000000080457bc                __malloc_unlock
 .text          0x00000000080457c0       0x14 /usr/lib/gcc/arm-none-eabi/9.2.1/../../../arm-none-eabi/lib/thumb/v8-m.main/nofp/libg_nano.a(lib_a-nano-msizer.o)
                0x00000000080457c0                _malloc_usable_size_r
 .text          0x00000000080457d4       0x2c /usr/lib/gcc/arm-none-eabi/9.2.1/../../../arm-none-eabi/lib/thumb/v8-m.main/nofp/libg_nano.a(lib_a-readr.o)
                0x00000000080457d4                _read_r
 .text          0x0000000008045800       0x10 /usr/lib/gcc/arm-none-eabi/9.2.1/../../../arm-none-eabi/lib/thumb/v8-m.main/nofp/libnosys.a(close.o)
                0x0000000008045800                _close
 .text          0x0000000008045810       0x10 /usr/lib/gcc/arm-none-eabi/9.2.1/../../../arm-none-eabi/lib/thumb/v8-m.main/nofp/libnosys.a(fstat.o)
                0x0000000008045810                _fstat
 .text          0x0000000008045820       0x10 /usr/lib/gcc/arm-none-eabi/9.2.1/../../../arm-none-eabi/lib/thumb/v8-m.main/nofp/libnosys.a(getpid.o)
                0x0000000008045820                _getpid
 .text          0x0000000008045830       0x10 /usr/lib/gcc/arm-none-eabi/9.2.1/../../../arm-none-eabi/lib/thumb/v8-m.main/nofp/libnosys.a(isatty.o)
                0x0000000008045830                _isatty
 .text          0x0000000008045840       0x10 /usr/lib/gcc/arm-none-eabi/9.2.1/../../../arm-none-eabi/lib/thumb/v8-m.main/nofp/libnosys.a(kill.o)
                0x0000000008045840                _kill
 .text          0x0000000008045850       0x10 /usr/lib/gcc/arm-none-eabi/9.2.1/../../../arm-none-eabi/lib/thumb/v8-m.main/nofp/libnosys.a(lseek.o)
                0x0000000008045850                _lseek
 .text          0x0000000008045860       0x10 /usr/lib/gcc/arm-none-eabi/9.2.1/../../../arm-none-eabi/lib/thumb/v8-m.main/nofp/libnosys.a(read.o)
                0x0000000008045860                _read
 .text          0x0000000008045870       0x1c /usr/lib/gcc/arm-none-eabi/9.2.1/../../../arm-none-eabi/lib/thumb/v8-m.main/nofp/libnosys.a(sbrk.o)
                0x0000000008045870                _sbrk
 .text          0x000000000804588c        0x4 /usr/lib/gcc/arm-none-eabi/9.2.1/../../../arm-none-eabi/lib/thumb/v8-m.main/nofp/libnosys.a(_exit.o)
                0x000000000804588c                _exit
 *(.init)
 .init          0x0000000008045890        0x4 /usr/lib/gcc/arm-none-eabi/9.2.1/thumb/v8-m.main/nofp/crti.o
                0x0000000008045890                _init
 .init          0x0000000008045894        0x8 /usr/lib/gcc/arm-none-eabi/9.2.1/thumb/v8-m.main/nofp/crtn.o
 *(.fini)
 .fini          0x000000000804589c        0x4 /usr/lib/gcc/arm-none-eabi/9.2.1/thumb/v8-m.main/nofp/crti.o
                0x000000000804589c                _fini
 .fini          0x00000000080458a0        0x8 /usr/lib/gcc/arm-none-eabi/9.2.1/thumb/v8-m.main/nofp/crtn.o
 *crtbegin.o(.ctors)
 *crtbegin?.o(.ctors)
 *(EXCLUDE_FILE(*crtend.o *crtend?.o) .ctors)
 *(SORT_BY_NAME(.ctors.*))
 *(.ctors)
 *crtbegin.o(.dtors)
 *crtbegin?.o(.dtors)
 *(EXCLUDE_FILE(*crtend.o *crtend?.o) .dtors)
 *(SORT_BY_NAME(.dtors.*))
 *(.dtors)
 *(.rodata*)
 .rodata.send_test.str1.1
                0x00000000080458a8       0x2d CMakeFiles/tfm_ns.dir/main_ns.o
 .rodata.main.str1.1
                0x00000000080458d5       0x20 CMakeFiles/tfm_ns.dir/main_ns.o
 .rodata.str1.1
                0x00000000080458f5        0xc CMakeFiles/tfm_ns.dir/main_ns.o
 *fill*         0x0000000008045901        0x3 
 .rodata.thread_attr
                0x0000000008045904       0x24 CMakeFiles/tfm_ns.dir/main_ns.o
 .rodata        0x0000000008045928       0xa0 CMakeFiles/tfm_ns.dir/__/CMSIS/RTOS2/RTX/Source/rtx_lib.o
                0x0000000008045928                os_cb_sections
                0x0000000008045960                osRtxConfig
 .rodata.osRtxUserSVC
                0x00000000080459c8        0x4 CMakeFiles/tfm_ns.dir/__/CMSIS/RTOS2/RTX/Source/rtx_lib.o
                0x00000000080459c8                osRtxUserSVC
 .rodata.os_idle_thread_attr
                0x00000000080459cc       0x24 CMakeFiles/tfm_ns.dir/__/CMSIS/RTOS2/RTX/Source/rtx_lib.o
 .rodata.os_timer_mq_attr
                0x00000000080459f0       0x18 CMakeFiles/tfm_ns.dir/__/CMSIS/RTOS2/RTX/Source/rtx_lib.o
 .rodata.os_timer_thread_attr
                0x0000000008045a08       0x24 CMakeFiles/tfm_ns.dir/__/CMSIS/RTOS2/RTX/Source/rtx_lib.o
 .rodata.tfm_log_printf.str1.1
                0x0000000008045a2c       0x15 CMakeFiles/tfm_ns.dir/__/log/tfm_log_raw.o
 .rodata.hex_digits_lo
                0x0000000008045a41       0x10 CMakeFiles/tfm_ns.dir/__/log/tfm_log_raw.o
                0x0000000008045a41                hex_digits_lo
 .rodata.hex_digits_up
                0x0000000008045a51       0x10 CMakeFiles/tfm_ns.dir/__/log/tfm_log_raw.o
                0x0000000008045a51                hex_digits_up
 .rodata.stdio_init.str1.1
                0x0000000008045a61       0x5a ../../platform/ns/libplatform_ns.a(uart_stdout.o)
 .rodata.__func__.4603
                0x0000000008045abb        0xb ../../platform/ns/libplatform_ns.a(uart_stdout.o)
 .rodata.AHBPrescTable
                0x0000000008045ac6       0x10 ../../platform/ns/libplatform_ns.a(system_stm32l5xx.o)
                0x0000000008045ac6                AHBPrescTable
 .rodata.APBPrescTable
                0x0000000008045ad6        0x8 ../../platform/ns/libplatform_ns.a(system_stm32l5xx.o)
                0x0000000008045ad6                APBPrescTable
 *fill*         0x0000000008045ade        0x2 
 .rodata.MSIRangeTable
                0x0000000008045ae0       0x40 ../../platform/ns/libplatform_ns.a(system_stm32l5xx.o)
                0x0000000008045ae0                MSIRangeTable
 .rodata.DriverVersion
                0x0000000008045b20        0x4 ../../platform/ns/libplatform_ns.a(low_level_com.o)
 .rodata.Driver_USART0
                0x0000000008045b24       0x38 ../../platform/ns/libplatform_ns.a(low_level_com.o)
                0x0000000008045b24                Driver_USART0
 .rodata.CSWTCH.58
                0x0000000008045b5c        0x3 ../../platform/ns/libplatform_ns.a(stm32l5xx_hal_uart.o)
 .rodata.CSWTCH.59
                0x0000000008045b5f        0xd ../../platform/ns/libplatform_ns.a(stm32l5xx_hal_uart.o)
 .rodata.UARTPrescTable
                0x0000000008045b6c       0x18 ../../platform/ns/libplatform_ns.a(stm32l5xx_hal_uart.o)
                0x0000000008045b6c                UARTPrescTable
 .rodata.test_app.str1.1
                0x0000000008045b84        0x2 libtfm_test_app.a(test_app.o)
 *fill*         0x0000000008045b86        0x2 
 .rodata.str1.4
                0x0000000008045b88        0xb ../../lib/ext/tfm_test_repo-src/CMSIS/RTOS2/RTX/Library/GCC/libRTX_V8MMN.a(rtx_kernel.o)
 *fill*         0x0000000008045b93        0x1 
 .rodata.str1.4
                0x0000000008045b94       0x3f /usr/lib/gcc/arm-none-eabi/9.2.1/../../../arm-none-eabi/lib/thumb/v8-m.main/nofp/libg_nano.a(lib_a-assert.o)
                                         0x43 (size before relaxing)
 *fill*         0x0000000008045bd3        0x1 
 .rodata        0x0000000008045bd4        0x4 /usr/lib/gcc/arm-none-eabi/9.2.1/../../../arm-none-eabi/lib/thumb/v8-m.main/nofp/libg_nano.a(lib_a-impure.o)
                0x0000000008045bd4                _global_impure_ptr
 .rodata.str1.4
                0x0000000008045bd8       0x13 /usr/lib/gcc/arm-none-eabi/9.2.1/../../../arm-none-eabi/lib/thumb/v8-m.main/nofp/libg_nano.a(lib_a-nano-vfprintf.o)
 *fill*         0x0000000008045beb        0x1 
 .rodata.str1.4
                0x0000000008045bec       0x25 /usr/lib/gcc/arm-none-eabi/9.2.1/../../../arm-none-eabi/lib/thumb/v8-m.main/nofp/libg_nano.a(lib_a-nano-vfprintf_i.o)
 *fill*         0x0000000008045c11        0x3 
 .rodata        0x0000000008045c14       0x60 /usr/lib/gcc/arm-none-eabi/9.2.1/../../../arm-none-eabi/lib/thumb/v8-m.main/nofp/libg_nano.a(lib_a-findfp.o)
                0x0000000008045c14                __sf_fake_stderr
                0x0000000008045c34                __sf_fake_stdout
                0x0000000008045c54                __sf_fake_stdin
 *(.eh_frame*)
 .eh_frame      0x0000000008045c74        0x0 /usr/lib/gcc/arm-none-eabi/9.2.1/thumb/v8-m.main/nofp/crtbegin.o
 .eh_frame      0x0000000008045c74        0x4 /usr/lib/gcc/arm-none-eabi/9.2.1/thumb/v8-m.main/nofp/crtend.o

.glue_7         0x0000000008045c78        0x0
 .glue_7        0x0000000008045c78        0x0 linker stubs

.glue_7t        0x0000000008045c78        0x0
 .glue_7t       0x0000000008045c78        0x0 linker stubs

.vfp11_veneer   0x0000000008045c78        0x0
 .vfp11_veneer  0x0000000008045c78        0x0 linker stubs

.v4_bx          0x0000000008045c78        0x0
 .v4_bx         0x0000000008045c78        0x0 linker stubs

.iplt           0x0000000008045c78        0x0
 .iplt          0x0000000008045c78        0x0 /usr/lib/gcc/arm-none-eabi/9.2.1/thumb/v8-m.main/nofp/crtbegin.o

.ARM.extab
 *(.ARM.extab* .gnu.linkonce.armextab.*)
                0x0000000008045c78                __exidx_start = .

.ARM.exidx      0x0000000008045c78        0x8
 *(.ARM.exidx* .gnu.linkonce.armexidx.*)
 .ARM.exidx     0x0000000008045c78        0x8 /usr/lib/gcc/arm-none-eabi/9.2.1/../../../arm-none-eabi/lib/thumb/v8-m.main/nofp/crt0.o
                                         0x10 (size before relaxing)
 .ARM.exidx     0x0000000008045c80        0x0 ../../lib/ext/tfm_test_repo-src/CMSIS/RTOS2/RTX/Library/GCC/libRTX_V8MMN.a(irq_armv8mml.o)
                                         0x20 (size before relaxing)
 .ARM.exidx     0x0000000008045c80        0x0 /usr/lib/gcc/arm-none-eabi/9.2.1/thumb/v8-m.main/nofp/libgcc.a(_udivmoddi4.o)
                                          0x8 (size before relaxing)
                0x0000000008045c80                __exidx_end = .

.rel.dyn        0x0000000008045c80        0x0
 .rel.iplt      0x0000000008045c80        0x0 /usr/lib/gcc/arm-none-eabi/9.2.1/thumb/v8-m.main/nofp/crtbegin.o

.copy.table     0x0000000008045c80       0x18
                0x0000000008045c80                . = ALIGN (0x4)
                0x0000000008045c80                __copy_table_start__ = .
                0x0000000008045c80        0x4 LONG 0x8045ca8 __etext
                0x0000000008045c84        0x4 LONG 0x20000100 __data_start__
                0x0000000008045c88        0x4 LONG 0x44 ((__data_end__ - __data_start__) / 0x4)
                0x0000000008045c8c        0x4 LONG 0x0 DEFINED (__etext2)?__etext2:0x0
                0x0000000008045c90        0x4 LONG 0x0 DEFINED (__data2_start__)?__data2_start__:0x0
                0x0000000008045c94        0x4 LONG 0x0 DEFINED (__data2_start__)?((__data2_end__ - __data2_start__) / 0x4):0x0
                0x0000000008045c98                __copy_table_end__ = .

.zero.table     0x0000000008045c98       0x10
                0x0000000008045c98                . = ALIGN (0x4)
                0x0000000008045c98                __zero_table_start__ = .
                0x0000000008045c98        0x4 LONG 0x20000210 __bss_start__
                0x0000000008045c9c        0x4 LONG 0x929 ((__bss_end__ - __bss_start__) / 0x4)
                0x0000000008045ca0        0x4 LONG 0x0 DEFINED (__bss2_start__)?__bss2_start__:0x0
                0x0000000008045ca4        0x4 LONG 0x0 DEFINED (__bss2_start__)?((__bss2_end__ - __bss2_start__) / 0x4):0x0
                0x0000000008045ca8                __zero_table_end__ = .
                0x0000000008045ca8                __etext = ALIGN (0x4)

.testprotection
 *(.bss.NoInit)

.data           0x0000000020000100      0x110 load address 0x0000000008045ca8
                0x0000000020000100                __data_start__ = .
 *(vtable)
 *(.data*)
 .data.os       0x0000000020000100       0xa4 ../../lib/ext/tfm_test_repo-src/CMSIS/RTOS2/RTX/Library/GCC/libRTX_V8MMN.a(rtx_kernel.o)
                0x0000000020000100                osRtxInfo
 .data          0x00000000200001a4       0x64 /usr/lib/gcc/arm-none-eabi/9.2.1/../../../arm-none-eabi/lib/thumb/v8-m.main/nofp/libg_nano.a(lib_a-impure.o)
                0x00000000200001a4                _impure_ptr
                0x0000000020000208                . = ALIGN (0x4)
                0x0000000020000208                PROVIDE (__preinit_array_start = .)
 *(.preinit_array)
                0x0000000020000208                PROVIDE (__preinit_array_end = .)
                0x0000000020000208                . = ALIGN (0x4)
                0x0000000020000208                PROVIDE (__init_array_start = .)
 *(SORT_BY_NAME(.init_array.*))
 *(.init_array)
 .init_array    0x0000000020000208        0x4 /usr/lib/gcc/arm-none-eabi/9.2.1/thumb/v8-m.main/nofp/crtbegin.o
                0x000000002000020c                PROVIDE (__init_array_end = .)
                0x000000002000020c                . = ALIGN (0x4)
                0x000000002000020c                PROVIDE (__fini_array_start = .)
 *(SORT_BY_NAME(.fini_array.*))
 *(.fini_array)
 .fini_array    0x000000002000020c        0x4 /usr/lib/gcc/arm-none-eabi/9.2.1/thumb/v8-m.main/nofp/crtbegin.o
                0x0000000020000210                PROVIDE (__fini_array_end = .)
 *(.jcr*)
                0x0000000020000210                . = ALIGN (0x4)
                0x0000000020000210                __data_end__ = .

.tm_clone_table
                0x0000000020000210        0x0 load address 0x0000000008045db8
 .tm_clone_table
                0x0000000020000210        0x0 /usr/lib/gcc/arm-none-eabi/9.2.1/thumb/v8-m.main/nofp/crtbegin.o
 .tm_clone_table
                0x0000000020000210        0x0 /usr/lib/gcc/arm-none-eabi/9.2.1/thumb/v8-m.main/nofp/crtend.o

.igot.plt       0x0000000020000210        0x0 load address 0x0000000008045db8
 .igot.plt      0x0000000020000210        0x0 /usr/lib/gcc/arm-none-eabi/9.2.1/thumb/v8-m.main/nofp/crtbegin.o

.bss            0x0000000020000210     0x24a4 load address 0x0000000008045db8
                0x0000000020000210                . = ALIGN (0x4)
                0x0000000020000210                __bss_start__ = .
 *(.bss*)
 .bss           0x0000000020000210       0x1c /usr/lib/gcc/arm-none-eabi/9.2.1/thumb/v8-m.main/nofp/crtbegin.o
 *fill*         0x000000002000022c        0x4 
 .bss.os        0x0000000020000230     0x2040 CMakeFiles/tfm_ns.dir/__/CMSIS/RTOS2/RTX/Source/rtx_lib.o
 .bss.os.msgqueue.cb
                0x0000000020002270       0x34 CMakeFiles/tfm_ns.dir/__/CMSIS/RTOS2/RTX/Source/rtx_lib.o
 .bss.os.msgqueue.mem
                0x00000000200022a4       0x50 CMakeFiles/tfm_ns.dir/__/CMSIS/RTOS2/RTX/Source/rtx_lib.o
 .bss.os.thread.cb
                0x00000000200022f4       0x88 CMakeFiles/tfm_ns.dir/__/CMSIS/RTOS2/RTX/Source/rtx_lib.o
 *fill*         0x000000002000237c        0x4 
 .bss.os.thread.stack
                0x0000000020002380      0x200 CMakeFiles/tfm_ns.dir/__/CMSIS/RTOS2/RTX/Source/rtx_lib.o
 .bss.uart_device
                0x0000000020002580       0x90 ../../platform/ns/libplatform_ns.a(low_level_com.o)
 .bss           0x0000000020002610       0x8c /usr/lib/gcc/arm-none-eabi/9.2.1/../../../arm-none-eabi/lib/thumb/v8-m.main/nofp/libg_nano.a(lib_a-__atexit.o)
 .bss           0x000000002000269c        0x4 /usr/lib/gcc/arm-none-eabi/9.2.1/../../../arm-none-eabi/lib/thumb/v8-m.main/nofp/libg_nano.a(lib_a-__call_atexit.o)
                0x000000002000269c                _global_atexit
 .bss           0x00000000200026a0        0x8 /usr/lib/gcc/arm-none-eabi/9.2.1/../../../arm-none-eabi/lib/thumb/v8-m.main/nofp/libg_nano.a(lib_a-nano-mallocr.o)
                0x00000000200026a0                __malloc_free_list
                0x00000000200026a4                __malloc_sbrk_start
 .bss           0x00000000200026a8        0x4 /usr/lib/gcc/arm-none-eabi/9.2.1/../../../arm-none-eabi/lib/thumb/v8-m.main/nofp/libnosys.a(sbrk.o)
 *(COMMON)
 COMMON         0x00000000200026ac        0x4 ../../platform/ns/libplatform_ns.a(stm32l5xx_hal.o)
                0x00000000200026ac                uwTick
 COMMON         0x00000000200026b0        0x4 /usr/lib/gcc/arm-none-eabi/9.2.1/../../../arm-none-eabi/lib/thumb/v8-m.main/nofp/libg_nano.a(lib_a-reent.o)
                0x00000000200026b0                errno
                0x00000000200026b4                . = ALIGN (0x4)
                0x00000000200026b4                __bss_end__ = .
                0x00000000000024a4                bss_size = (__bss_end__ - __bss_start__)

.stack          0x00000000200026c0     0x1000 load address 0x0000000008048280
                0x00000000200036c0                . = (. + __stack_size__)
 *fill*         0x00000000200026c0     0x1000 
                0x00000000200026c0                __StackLimit = ADDR (.stack)
                0x00000000200036c0                __StackTop = (ADDR (.stack) + SIZEOF (.stack))

.heap           0x00000000200036c0     0x1000 load address 0x0000000008049280
                0x00000000200036c0                __end__ = .
                0x00000000200036c0                PROVIDE (end = .)
                0x00000000200036c0                __HeapBase = .
                0x00000000200046c0                . = (. + __heap_size__)
 *fill*         0x00000000200036c0     0x1000 
                0x00000000200046c0                __HeapLimit = .
                0x00000000200046c0                __heap_limit = .
                0x00000000200036c0                PROVIDE (__stack = __StackTop)
OUTPUT(../../bin/tfm_ns.axf elf32-littlearm)
LOAD linker stubs

.ARM.attributes
                0x0000000000000000       0x30
 .ARM.attributes
                0x0000000000000000       0x22 /usr/lib/gcc/arm-none-eabi/9.2.1/thumb/v8-m.main/nofp/crti.o
 .ARM.attributes
                0x0000000000000022       0x32 /usr/lib/gcc/arm-none-eabi/9.2.1/thumb/v8-m.main/nofp/crtbegin.o
 .ARM.attributes
                0x0000000000000054       0x20 /usr/lib/gcc/arm-none-eabi/9.2.1/../../../arm-none-eabi/lib/thumb/v8-m.main/nofp/crt0.o
 .ARM.attributes
                0x0000000000000074       0x34 CMakeFiles/tfm_ns.dir/main_ns.o
 .ARM.attributes
                0x00000000000000a8       0x34 CMakeFiles/tfm_ns.dir/__/__/__/platform/ext/target/stm/common/stm32l5xx/Device/Source/startup_stm32l5xx_ns.o
 .ARM.attributes
                0x00000000000000dc       0x34 CMakeFiles/tfm_ns.dir/__/ns_interface/ns_client_ext/tz_shim_layer.o
 .ARM.attributes
                0x0000000000000110       0x34 CMakeFiles/tfm_ns.dir/__/CMSIS/RTOS2/RTX/Config/RTX_Config.o
 .ARM.attributes
                0x0000000000000144       0x34 CMakeFiles/tfm_ns.dir/__/CMSIS/RTOS2/RTX/Source/rtx_lib.o
 .ARM.attributes
                0x0000000000000178       0x34 CMakeFiles/tfm_ns.dir/os_wrapper_cmsis_rtos_v2.o
 .ARM.attributes
                0x00000000000001ac       0x34 CMakeFiles/tfm_ns.dir/__/log/tfm_log_raw.o
 .ARM.attributes
                0x00000000000001e0       0x34 ../../platform/ns/libplatform_ns.a(uart_stdout.o)
 .ARM.attributes
                0x0000000000000214       0x34 ../../platform/ns/libplatform_ns.a(system_stm32l5xx.o)
 .ARM.attributes
                0x0000000000000248       0x34 ../../platform/ns/libplatform_ns.a(low_level_com.o)
 .ARM.attributes
                0x000000000000027c       0x34 ../../platform/ns/libplatform_ns.a(stm32l5xx_hal_pwr_ex.o)
 .ARM.attributes
                0x00000000000002b0       0x34 ../../platform/ns/libplatform_ns.a(stm32l5xx_hal_gpio.o)
 .ARM.attributes
                0x00000000000002e4       0x34 ../../platform/ns/libplatform_ns.a(stm32l5xx_hal_uart.o)
 .ARM.attributes
                0x0000000000000318       0x34 ../../platform/ns/libplatform_ns.a(stm32l5xx_hal.o)
 .ARM.attributes
                0x000000000000034c       0x34 ../../platform/ns/libplatform_ns.a(stm32l5xx_hal_rcc.o)
 .ARM.attributes
                0x0000000000000380       0x34 libtfm_test_app.a(test_app.o)
 .ARM.attributes
                0x00000000000003b4       0x20 ../../lib/ext/tfm_test_repo-src/CMSIS/RTOS2/RTX/Library/GCC/libRTX_V8MMN.a(irq_armv8mml.o)
 .ARM.attributes
                0x00000000000003d4       0x32 ../../lib/ext/tfm_test_repo-src/CMSIS/RTOS2/RTX/Library/GCC/libRTX_V8MMN.a(rtx_system.o)
 .ARM.attributes
                0x0000000000000406       0x32 ../../lib/ext/tfm_test_repo-src/CMSIS/RTOS2/RTX/Library/GCC/libRTX_V8MMN.a(rtx_mempool.o)
 .ARM.attributes
                0x0000000000000438       0x32 ../../lib/ext/tfm_test_repo-src/CMSIS/RTOS2/RTX/Library/GCC/libRTX_V8MMN.a(rtx_memory.o)
 .ARM.attributes
                0x000000000000046a       0x32 ../../lib/ext/tfm_test_repo-src/CMSIS/RTOS2/RTX/Library/GCC/libRTX_V8MMN.a(rtx_mutex.o)
 .ARM.attributes
                0x000000000000049c       0x32 ../../lib/ext/tfm_test_repo-src/CMSIS/RTOS2/RTX/Library/GCC/libRTX_V8MMN.a(rtx_thread.o)
 .ARM.attributes
                0x00000000000004ce       0x32 ../../lib/ext/tfm_test_repo-src/CMSIS/RTOS2/RTX/Library/GCC/libRTX_V8MMN.a(rtx_kernel.o)
 .ARM.attributes
                0x0000000000000500       0x32 ../../lib/ext/tfm_test_repo-src/CMSIS/RTOS2/RTX/Library/GCC/libRTX_V8MMN.a(os_systick.o)
 .ARM.attributes
                0x0000000000000532       0x34 libtfm_api_ns.a(tfm_psa_ns_api.o)
 .ARM.attributes
                0x0000000000000566       0x34 libtfm_api_ns.a(tfm_ns_interface.o)
 .ARM.attributes
                0x000000000000059a       0x22 /usr/lib/gcc/arm-none-eabi/9.2.1/thumb/v8-m.main/nofp/libgcc.a(_aeabi_uldivmod.o)
 .ARM.attributes
                0x00000000000005bc       0x32 /usr/lib/gcc/arm-none-eabi/9.2.1/thumb/v8-m.main/nofp/libgcc.a(_udivmoddi4.o)
 .ARM.attributes
                0x00000000000005ee       0x22 /usr/lib/gcc/arm-none-eabi/9.2.1/thumb/v8-m.main/nofp/libgcc.a(_dvmd_tls.o)
 .ARM.attributes
                0x0000000000000610       0x32 /usr/lib/gcc/arm-none-eabi/9.2.1/../../../arm-none-eabi/lib/thumb/v8-m.main/nofp/libg_nano.a(lib_a-assert.o)
 .ARM.attributes
                0x0000000000000642       0x32 /usr/lib/gcc/arm-none-eabi/9.2.1/../../../arm-none-eabi/lib/thumb/v8-m.main/nofp/libg_nano.a(lib_a-atexit.o)
 .ARM.attributes
                0x0000000000000674       0x32 /usr/lib/gcc/arm-none-eabi/9.2.1/../../../arm-none-eabi/lib/thumb/v8-m.main/nofp/libg_nano.a(lib_a-exit.o)
 .ARM.attributes
                0x00000000000006a6       0x32 /usr/lib/gcc/arm-none-eabi/9.2.1/../../../arm-none-eabi/lib/thumb/v8-m.main/nofp/libg_nano.a(lib_a-fini.o)
 .ARM.attributes
                0x00000000000006d8       0x32 /usr/lib/gcc/arm-none-eabi/9.2.1/../../../arm-none-eabi/lib/thumb/v8-m.main/nofp/libg_nano.a(lib_a-fprintf.o)
 .ARM.attributes
                0x000000000000070a       0x32 /usr/lib/gcc/arm-none-eabi/9.2.1/../../../arm-none-eabi/lib/thumb/v8-m.main/nofp/libg_nano.a(lib_a-impure.o)
 .ARM.attributes
                0x000000000000073c       0x32 /usr/lib/gcc/arm-none-eabi/9.2.1/../../../arm-none-eabi/lib/thumb/v8-m.main/nofp/libg_nano.a(lib_a-init.o)
 .ARM.attributes
                0x000000000000076e       0x20 /usr/lib/gcc/arm-none-eabi/9.2.1/../../../arm-none-eabi/lib/thumb/v8-m.main/nofp/libg_nano.a(lib_a-memcpy.o)
 .ARM.attributes
                0x000000000000078e       0x32 /usr/lib/gcc/arm-none-eabi/9.2.1/../../../arm-none-eabi/lib/thumb/v8-m.main/nofp/libg_nano.a(lib_a-memset.o)
 .ARM.attributes
                0x00000000000007c0       0x32 /usr/lib/gcc/arm-none-eabi/9.2.1/../../../arm-none-eabi/lib/thumb/v8-m.main/nofp/libg_nano.a(lib_a-nano-vfprintf.o)
 .ARM.attributes
                0x00000000000007f2       0x32 /usr/lib/gcc/arm-none-eabi/9.2.1/../../../arm-none-eabi/lib/thumb/v8-m.main/nofp/libg_nano.a(lib_a-nano-vfprintf_i.o)
 .ARM.attributes
                0x0000000000000824       0x32 /usr/lib/gcc/arm-none-eabi/9.2.1/../../../arm-none-eabi/lib/thumb/v8-m.main/nofp/libg_nano.a(lib_a-wbuf.o)
 .ARM.attributes
                0x0000000000000856       0x32 /usr/lib/gcc/arm-none-eabi/9.2.1/../../../arm-none-eabi/lib/thumb/v8-m.main/nofp/libg_nano.a(lib_a-wsetup.o)
 .ARM.attributes
                0x0000000000000888       0x32 /usr/lib/gcc/arm-none-eabi/9.2.1/../../../arm-none-eabi/lib/thumb/v8-m.main/nofp/libg_nano.a(lib_a-__atexit.o)
 .ARM.attributes
                0x00000000000008ba       0x32 /usr/lib/gcc/arm-none-eabi/9.2.1/../../../arm-none-eabi/lib/thumb/v8-m.main/nofp/libg_nano.a(lib_a-__call_atexit.o)
 .ARM.attributes
                0x00000000000008ec       0x32 /usr/lib/gcc/arm-none-eabi/9.2.1/../../../arm-none-eabi/lib/thumb/v8-m.main/nofp/libg_nano.a(lib_a-abort.o)
 .ARM.attributes
                0x000000000000091e       0x32 /usr/lib/gcc/arm-none-eabi/9.2.1/../../../arm-none-eabi/lib/thumb/v8-m.main/nofp/libg_nano.a(lib_a-fflush.o)
 .ARM.attributes
                0x0000000000000950       0x32 /usr/lib/gcc/arm-none-eabi/9.2.1/../../../arm-none-eabi/lib/thumb/v8-m.main/nofp/libg_nano.a(lib_a-findfp.o)
 .ARM.attributes
                0x0000000000000982       0x32 /usr/lib/gcc/arm-none-eabi/9.2.1/../../../arm-none-eabi/lib/thumb/v8-m.main/nofp/libg_nano.a(lib_a-fvwrite.o)
 .ARM.attributes
                0x00000000000009b4       0x32 /usr/lib/gcc/arm-none-eabi/9.2.1/../../../arm-none-eabi/lib/thumb/v8-m.main/nofp/libg_nano.a(lib_a-fwalk.o)
 .ARM.attributes
                0x00000000000009e6       0x32 /usr/lib/gcc/arm-none-eabi/9.2.1/../../../arm-none-eabi/lib/thumb/v8-m.main/nofp/libg_nano.a(lib_a-makebuf.o)
 .ARM.attributes
                0x0000000000000a18       0x32 /usr/lib/gcc/arm-none-eabi/9.2.1/../../../arm-none-eabi/lib/thumb/v8-m.main/nofp/libg_nano.a(lib_a-memchr-stub.o)
 .ARM.attributes
                0x0000000000000a4a       0x32 /usr/lib/gcc/arm-none-eabi/9.2.1/../../../arm-none-eabi/lib/thumb/v8-m.main/nofp/libg_nano.a(lib_a-memmove.o)
 .ARM.attributes
                0x0000000000000a7c       0x32 /usr/lib/gcc/arm-none-eabi/9.2.1/../../../arm-none-eabi/lib/thumb/v8-m.main/nofp/libg_nano.a(lib_a-nano-freer.o)
 .ARM.attributes
                0x0000000000000aae       0x32 /usr/lib/gcc/arm-none-eabi/9.2.1/../../../arm-none-eabi/lib/thumb/v8-m.main/nofp/libg_nano.a(lib_a-nano-mallocr.o)
 .ARM.attributes
                0x0000000000000ae0       0x32 /usr/lib/gcc/arm-none-eabi/9.2.1/../../../arm-none-eabi/lib/thumb/v8-m.main/nofp/libg_nano.a(lib_a-nano-reallocr.o)
 .ARM.attributes
                0x0000000000000b12       0x32 /usr/lib/gcc/arm-none-eabi/9.2.1/../../../arm-none-eabi/lib/thumb/v8-m.main/nofp/libg_nano.a(lib_a-sbrkr.o)
 .ARM.attributes
                0x0000000000000b44       0x32 /usr/lib/gcc/arm-none-eabi/9.2.1/../../../arm-none-eabi/lib/thumb/v8-m.main/nofp/libg_nano.a(lib_a-signal.o)
 .ARM.attributes
                0x0000000000000b76       0x32 /usr/lib/gcc/arm-none-eabi/9.2.1/../../../arm-none-eabi/lib/thumb/v8-m.main/nofp/libg_nano.a(lib_a-signalr.o)
 .ARM.attributes
                0x0000000000000ba8       0x32 /usr/lib/gcc/arm-none-eabi/9.2.1/../../../arm-none-eabi/lib/thumb/v8-m.main/nofp/libg_nano.a(lib_a-stdio.o)
 .ARM.attributes
                0x0000000000000bda       0x32 /usr/lib/gcc/arm-none-eabi/9.2.1/../../../arm-none-eabi/lib/thumb/v8-m.main/nofp/libg_nano.a(lib_a-writer.o)
 .ARM.attributes
                0x0000000000000c0c       0x32 /usr/lib/gcc/arm-none-eabi/9.2.1/../../../arm-none-eabi/lib/thumb/v8-m.main/nofp/libg_nano.a(lib_a-closer.o)
 .ARM.attributes
                0x0000000000000c3e       0x32 /usr/lib/gcc/arm-none-eabi/9.2.1/../../../arm-none-eabi/lib/thumb/v8-m.main/nofp/libg_nano.a(lib_a-fstatr.o)
 .ARM.attributes
                0x0000000000000c70       0x32 /usr/lib/gcc/arm-none-eabi/9.2.1/../../../arm-none-eabi/lib/thumb/v8-m.main/nofp/libg_nano.a(lib_a-isattyr.o)
 .ARM.attributes
                0x0000000000000ca2       0x32 /usr/lib/gcc/arm-none-eabi/9.2.1/../../../arm-none-eabi/lib/thumb/v8-m.main/nofp/libg_nano.a(lib_a-lseekr.o)
 .ARM.attributes
                0x0000000000000cd4       0x32 /usr/lib/gcc/arm-none-eabi/9.2.1/../../../arm-none-eabi/lib/thumb/v8-m.main/nofp/libg_nano.a(lib_a-mlock.o)
 .ARM.attributes
                0x0000000000000d06       0x32 /usr/lib/gcc/arm-none-eabi/9.2.1/../../../arm-none-eabi/lib/thumb/v8-m.main/nofp/libg_nano.a(lib_a-nano-msizer.o)
 .ARM.attributes
                0x0000000000000d38       0x32 /usr/lib/gcc/arm-none-eabi/9.2.1/../../../arm-none-eabi/lib/thumb/v8-m.main/nofp/libg_nano.a(lib_a-readr.o)
 .ARM.attributes
                0x0000000000000d6a       0x32 /usr/lib/gcc/arm-none-eabi/9.2.1/../../../arm-none-eabi/lib/thumb/v8-m.main/nofp/libg_nano.a(lib_a-reent.o)
 .ARM.attributes
                0x0000000000000d9c       0x32 /usr/lib/gcc/arm-none-eabi/9.2.1/thumb/v8-m.main/nofp/crtend.o
 .ARM.attributes
                0x0000000000000dce       0x22 /usr/lib/gcc/arm-none-eabi/9.2.1/thumb/v8-m.main/nofp/crtn.o
 .ARM.attributes
                0x0000000000000df0       0x32 /usr/lib/gcc/arm-none-eabi/9.2.1/../../../arm-none-eabi/lib/thumb/v8-m.main/nofp/libnosys.a(close.o)
 .ARM.attributes
                0x0000000000000e22       0x32 /usr/lib/gcc/arm-none-eabi/9.2.1/../../../arm-none-eabi/lib/thumb/v8-m.main/nofp/libnosys.a(fstat.o)
 .ARM.attributes
                0x0000000000000e54       0x32 /usr/lib/gcc/arm-none-eabi/9.2.1/../../../arm-none-eabi/lib/thumb/v8-m.main/nofp/libnosys.a(getpid.o)
 .ARM.attributes
                0x0000000000000e86       0x32 /usr/lib/gcc/arm-none-eabi/9.2.1/../../../arm-none-eabi/lib/thumb/v8-m.main/nofp/libnosys.a(isatty.o)
 .ARM.attributes
                0x0000000000000eb8       0x32 /usr/lib/gcc/arm-none-eabi/9.2.1/../../../arm-none-eabi/lib/thumb/v8-m.main/nofp/libnosys.a(kill.o)
 .ARM.attributes
                0x0000000000000eea       0x32 /usr/lib/gcc/arm-none-eabi/9.2.1/../../../arm-none-eabi/lib/thumb/v8-m.main/nofp/libnosys.a(lseek.o)
 .ARM.attributes
                0x0000000000000f1c       0x32 /usr/lib/gcc/arm-none-eabi/9.2.1/../../../arm-none-eabi/lib/thumb/v8-m.main/nofp/libnosys.a(read.o)
 .ARM.attributes
                0x0000000000000f4e       0x32 /usr/lib/gcc/arm-none-eabi/9.2.1/../../../arm-none-eabi/lib/thumb/v8-m.main/nofp/libnosys.a(sbrk.o)
 .ARM.attributes
                0x0000000000000f80       0x32 /usr/lib/gcc/arm-none-eabi/9.2.1/../../../arm-none-eabi/lib/thumb/v8-m.main/nofp/libnosys.a(_exit.o)

.comment        0x0000000000000000      0x11c
 .comment       0x0000000000000000       0x59 /usr/lib/gcc/arm-none-eabi/9.2.1/thumb/v8-m.main/nofp/crtbegin.o
                                         0x5a (size before relaxing)
 .comment       0x0000000000000059       0x5a CMakeFiles/tfm_ns.dir/main_ns.o
 .comment       0x0000000000000059       0x5a CMakeFiles/tfm_ns.dir/__/__/__/platform/ext/target/stm/common/stm32l5xx/Device/Source/startup_stm32l5xx_ns.o
 .comment       0x0000000000000059       0x5a CMakeFiles/tfm_ns.dir/__/ns_interface/ns_client_ext/tz_shim_layer.o
 .comment       0x0000000000000059       0x5a CMakeFiles/tfm_ns.dir/__/CMSIS/RTOS2/RTX/Config/RTX_Config.o
 .comment       0x0000000000000059       0x5a CMakeFiles/tfm_ns.dir/__/CMSIS/RTOS2/RTX/Source/rtx_lib.o
 .comment       0x0000000000000059       0x5a CMakeFiles/tfm_ns.dir/os_wrapper_cmsis_rtos_v2.o
 .comment       0x0000000000000059       0x5a CMakeFiles/tfm_ns.dir/__/log/tfm_log_raw.o
 .comment       0x0000000000000059       0x5a ../../platform/ns/libplatform_ns.a(uart_stdout.o)
 .comment       0x0000000000000059       0x5a ../../platform/ns/libplatform_ns.a(system_stm32l5xx.o)
 .comment       0x0000000000000059       0x5a ../../platform/ns/libplatform_ns.a(low_level_com.o)
 .comment       0x0000000000000059       0x5a ../../platform/ns/libplatform_ns.a(stm32l5xx_hal_pwr_ex.o)
 .comment       0x0000000000000059       0x5a ../../platform/ns/libplatform_ns.a(stm32l5xx_hal_gpio.o)
 .comment       0x0000000000000059       0x5a ../../platform/ns/libplatform_ns.a(stm32l5xx_hal_uart.o)
 .comment       0x0000000000000059       0x5a ../../platform/ns/libplatform_ns.a(stm32l5xx_hal.o)
 .comment       0x0000000000000059       0x5a ../../platform/ns/libplatform_ns.a(stm32l5xx_hal_rcc.o)
 .comment       0x0000000000000059       0x5a libtfm_test_app.a(test_app.o)
 .comment       0x0000000000000059       0x75 ../../lib/ext/tfm_test_repo-src/CMSIS/RTOS2/RTX/Library/GCC/libRTX_V8MMN.a(rtx_system.o)
                                         0x76 (size before relaxing)
 .comment       0x00000000000000ce       0x76 ../../lib/ext/tfm_test_repo-src/CMSIS/RTOS2/RTX/Library/GCC/libRTX_V8MMN.a(rtx_mempool.o)
 .comment       0x00000000000000ce       0x76 ../../lib/ext/tfm_test_repo-src/CMSIS/RTOS2/RTX/Library/GCC/libRTX_V8MMN.a(rtx_memory.o)
 .comment       0x00000000000000ce       0x76 ../../lib/ext/tfm_test_repo-src/CMSIS/RTOS2/RTX/Library/GCC/libRTX_V8MMN.a(rtx_mutex.o)
 .comment       0x00000000000000ce       0x76 ../../lib/ext/tfm_test_repo-src/CMSIS/RTOS2/RTX/Library/GCC/libRTX_V8MMN.a(rtx_thread.o)
 .comment       0x00000000000000ce       0x76 ../../lib/ext/tfm_test_repo-src/CMSIS/RTOS2/RTX/Library/GCC/libRTX_V8MMN.a(rtx_kernel.o)
 .comment       0x00000000000000ce       0x76 ../../lib/ext/tfm_test_repo-src/CMSIS/RTOS2/RTX/Library/GCC/libRTX_V8MMN.a(os_systick.o)
 .comment       0x00000000000000ce       0x5a libtfm_api_ns.a(tfm_psa_ns_api.o)
 .comment       0x00000000000000ce       0x5a libtfm_api_ns.a(tfm_ns_interface.o)
 .comment       0x00000000000000ce       0x5a /usr/lib/gcc/arm-none-eabi/9.2.1/thumb/v8-m.main/nofp/libgcc.a(_udivmoddi4.o)
 .comment       0x00000000000000ce       0x4e /usr/lib/gcc/arm-none-eabi/9.2.1/../../../arm-none-eabi/lib/thumb/v8-m.main/nofp/libg_nano.a(lib_a-assert.o)
                                         0x4f (size before relaxing)
 .comment       0x000000000000011c       0x4f /usr/lib/gcc/arm-none-eabi/9.2.1/../../../arm-none-eabi/lib/thumb/v8-m.main/nofp/libg_nano.a(lib_a-atexit.o)
 .comment       0x000000000000011c       0x4f /usr/lib/gcc/arm-none-eabi/9.2.1/../../../arm-none-eabi/lib/thumb/v8-m.main/nofp/libg_nano.a(lib_a-exit.o)
 .comment       0x000000000000011c       0x4f /usr/lib/gcc/arm-none-eabi/9.2.1/../../../arm-none-eabi/lib/thumb/v8-m.main/nofp/libg_nano.a(lib_a-fini.o)
 .comment       0x000000000000011c       0x4f /usr/lib/gcc/arm-none-eabi/9.2.1/../../../arm-none-eabi/lib/thumb/v8-m.main/nofp/libg_nano.a(lib_a-fprintf.o)
 .comment       0x000000000000011c       0x4f /usr/lib/gcc/arm-none-eabi/9.2.1/../../../arm-none-eabi/lib/thumb/v8-m.main/nofp/libg_nano.a(lib_a-impure.o)
 .comment       0x000000000000011c       0x4f /usr/lib/gcc/arm-none-eabi/9.2.1/../../../arm-none-eabi/lib/thumb/v8-m.main/nofp/libg_nano.a(lib_a-init.o)
 .comment       0x000000000000011c       0x4f /usr/lib/gcc/arm-none-eabi/9.2.1/../../../arm-none-eabi/lib/thumb/v8-m.main/nofp/libg_nano.a(lib_a-memset.o)
 .comment       0x000000000000011c       0x4f /usr/lib/gcc/arm-none-eabi/9.2.1/../../../arm-none-eabi/lib/thumb/v8-m.main/nofp/libg_nano.a(lib_a-nano-vfprintf.o)
 .comment       0x000000000000011c       0x4f /usr/lib/gcc/arm-none-eabi/9.2.1/../../../arm-none-eabi/lib/thumb/v8-m.main/nofp/libg_nano.a(lib_a-nano-vfprintf_i.o)
 .comment       0x000000000000011c       0x4f /usr/lib/gcc/arm-none-eabi/9.2.1/../../../arm-none-eabi/lib/thumb/v8-m.main/nofp/libg_nano.a(lib_a-wbuf.o)
 .comment       0x000000000000011c       0x4f /usr/lib/gcc/arm-none-eabi/9.2.1/../../../arm-none-eabi/lib/thumb/v8-m.main/nofp/libg_nano.a(lib_a-wsetup.o)
 .comment       0x000000000000011c       0x4f /usr/lib/gcc/arm-none-eabi/9.2.1/../../../arm-none-eabi/lib/thumb/v8-m.main/nofp/libg_nano.a(lib_a-__atexit.o)
 .comment       0x000000000000011c       0x4f /usr/lib/gcc/arm-none-eabi/9.2.1/../../../arm-none-eabi/lib/thumb/v8-m.main/nofp/libg_nano.a(lib_a-__call_atexit.o)
 .comment       0x000000000000011c       0x4f /usr/lib/gcc/arm-none-eabi/9.2.1/../../../arm-none-eabi/lib/thumb/v8-m.main/nofp/libg_nano.a(lib_a-abort.o)
 .comment       0x000000000000011c       0x4f /usr/lib/gcc/arm-none-eabi/9.2.1/../../../arm-none-eabi/lib/thumb/v8-m.main/nofp/libg_nano.a(lib_a-fflush.o)
 .comment       0x000000000000011c       0x4f /usr/lib/gcc/arm-none-eabi/9.2.1/../../../arm-none-eabi/lib/thumb/v8-m.main/nofp/libg_nano.a(lib_a-findfp.o)
 .comment       0x000000000000011c       0x4f /usr/lib/gcc/arm-none-eabi/9.2.1/../../../arm-none-eabi/lib/thumb/v8-m.main/nofp/libg_nano.a(lib_a-fvwrite.o)
 .comment       0x000000000000011c       0x4f /usr/lib/gcc/arm-none-eabi/9.2.1/../../../arm-none-eabi/lib/thumb/v8-m.main/nofp/libg_nano.a(lib_a-fwalk.o)
 .comment       0x000000000000011c       0x4f /usr/lib/gcc/arm-none-eabi/9.2.1/../../../arm-none-eabi/lib/thumb/v8-m.main/nofp/libg_nano.a(lib_a-makebuf.o)
 .comment       0x000000000000011c       0x4f /usr/lib/gcc/arm-none-eabi/9.2.1/../../../arm-none-eabi/lib/thumb/v8-m.main/nofp/libg_nano.a(lib_a-memchr-stub.o)
 .comment       0x000000000000011c       0x4f /usr/lib/gcc/arm-none-eabi/9.2.1/../../../arm-none-eabi/lib/thumb/v8-m.main/nofp/libg_nano.a(lib_a-memmove.o)
 .comment       0x000000000000011c       0x4f /usr/lib/gcc/arm-none-eabi/9.2.1/../../../arm-none-eabi/lib/thumb/v8-m.main/nofp/libg_nano.a(lib_a-nano-freer.o)
 .comment       0x000000000000011c       0x4f /usr/lib/gcc/arm-none-eabi/9.2.1/../../../arm-none-eabi/lib/thumb/v8-m.main/nofp/libg_nano.a(lib_a-nano-mallocr.o)
 .comment       0x000000000000011c       0x4f /usr/lib/gcc/arm-none-eabi/9.2.1/../../../arm-none-eabi/lib/thumb/v8-m.main/nofp/libg_nano.a(lib_a-nano-reallocr.o)
 .comment       0x000000000000011c       0x4f /usr/lib/gcc/arm-none-eabi/9.2.1/../../../arm-none-eabi/lib/thumb/v8-m.main/nofp/libg_nano.a(lib_a-sbrkr.o)
 .comment       0x000000000000011c       0x4f /usr/lib/gcc/arm-none-eabi/9.2.1/../../../arm-none-eabi/lib/thumb/v8-m.main/nofp/libg_nano.a(lib_a-signal.o)
 .comment       0x000000000000011c       0x4f /usr/lib/gcc/arm-none-eabi/9.2.1/../../../arm-none-eabi/lib/thumb/v8-m.main/nofp/libg_nano.a(lib_a-signalr.o)
 .comment       0x000000000000011c       0x4f /usr/lib/gcc/arm-none-eabi/9.2.1/../../../arm-none-eabi/lib/thumb/v8-m.main/nofp/libg_nano.a(lib_a-stdio.o)
 .comment       0x000000000000011c       0x4f /usr/lib/gcc/arm-none-eabi/9.2.1/../../../arm-none-eabi/lib/thumb/v8-m.main/nofp/libg_nano.a(lib_a-writer.o)
 .comment       0x000000000000011c       0x4f /usr/lib/gcc/arm-none-eabi/9.2.1/../../../arm-none-eabi/lib/thumb/v8-m.main/nofp/libg_nano.a(lib_a-closer.o)
 .comment       0x000000000000011c       0x4f /usr/lib/gcc/arm-none-eabi/9.2.1/../../../arm-none-eabi/lib/thumb/v8-m.main/nofp/libg_nano.a(lib_a-fstatr.o)
 .comment       0x000000000000011c       0x4f /usr/lib/gcc/arm-none-eabi/9.2.1/../../../arm-none-eabi/lib/thumb/v8-m.main/nofp/libg_nano.a(lib_a-isattyr.o)
 .comment       0x000000000000011c       0x4f /usr/lib/gcc/arm-none-eabi/9.2.1/../../../arm-none-eabi/lib/thumb/v8-m.main/nofp/libg_nano.a(lib_a-lseekr.o)
 .comment       0x000000000000011c       0x4f /usr/lib/gcc/arm-none-eabi/9.2.1/../../../arm-none-eabi/lib/thumb/v8-m.main/nofp/libg_nano.a(lib_a-mlock.o)
 .comment       0x000000000000011c       0x4f /usr/lib/gcc/arm-none-eabi/9.2.1/../../../arm-none-eabi/lib/thumb/v8-m.main/nofp/libg_nano.a(lib_a-nano-msizer.o)
 .comment       0x000000000000011c       0x4f /usr/lib/gcc/arm-none-eabi/9.2.1/../../../arm-none-eabi/lib/thumb/v8-m.main/nofp/libg_nano.a(lib_a-readr.o)
 .comment       0x000000000000011c       0x4f /usr/lib/gcc/arm-none-eabi/9.2.1/../../../arm-none-eabi/lib/thumb/v8-m.main/nofp/libg_nano.a(lib_a-reent.o)
 .comment       0x000000000000011c       0x5a /usr/lib/gcc/arm-none-eabi/9.2.1/thumb/v8-m.main/nofp/crtend.o
 .comment       0x000000000000011c       0x4f /usr/lib/gcc/arm-none-eabi/9.2.1/../../../arm-none-eabi/lib/thumb/v8-m.main/nofp/libnosys.a(close.o)
 .comment       0x000000000000011c       0x4f /usr/lib/gcc/arm-none-eabi/9.2.1/../../../arm-none-eabi/lib/thumb/v8-m.main/nofp/libnosys.a(fstat.o)
 .comment       0x000000000000011c       0x4f /usr/lib/gcc/arm-none-eabi/9.2.1/../../../arm-none-eabi/lib/thumb/v8-m.main/nofp/libnosys.a(getpid.o)
 .comment       0x000000000000011c       0x4f /usr/lib/gcc/arm-none-eabi/9.2.1/../../../arm-none-eabi/lib/thumb/v8-m.main/nofp/libnosys.a(isatty.o)
 .comment       0x000000000000011c       0x4f /usr/lib/gcc/arm-none-eabi/9.2.1/../../../arm-none-eabi/lib/thumb/v8-m.main/nofp/libnosys.a(kill.o)
 .comment       0x000000000000011c       0x4f /usr/lib/gcc/arm-none-eabi/9.2.1/../../../arm-none-eabi/lib/thumb/v8-m.main/nofp/libnosys.a(lseek.o)
 .comment       0x000000000000011c       0x4f /usr/lib/gcc/arm-none-eabi/9.2.1/../../../arm-none-eabi/lib/thumb/v8-m.main/nofp/libnosys.a(read.o)
 .comment       0x000000000000011c       0x4f /usr/lib/gcc/arm-none-eabi/9.2.1/../../../arm-none-eabi/lib/thumb/v8-m.main/nofp/libnosys.a(sbrk.o)
 .comment       0x000000000000011c       0x4f /usr/lib/gcc/arm-none-eabi/9.2.1/../../../arm-none-eabi/lib/thumb/v8-m.main/nofp/libnosys.a(_exit.o)

.debug_line     0x0000000000000000    0x17971
 .debug_line    0x0000000000000000       0x87 /usr/lib/gcc/arm-none-eabi/9.2.1/../../../arm-none-eabi/lib/thumb/v8-m.main/nofp/crt0.o
 .debug_line    0x0000000000000087      0x351 CMakeFiles/tfm_ns.dir/main_ns.o
 .debug_line    0x00000000000003d8     0x111a CMakeFiles/tfm_ns.dir/__/__/__/platform/ext/target/stm/common/stm32l5xx/Device/Source/startup_stm32l5xx_ns.o
 .debug_line    0x00000000000014f2      0x164 CMakeFiles/tfm_ns.dir/__/ns_interface/ns_client_ext/tz_shim_layer.o
 .debug_line    0x0000000000001656      0x1dc CMakeFiles/tfm_ns.dir/__/CMSIS/RTOS2/RTX/Config/RTX_Config.o
 .debug_line    0x0000000000001832      0x19f CMakeFiles/tfm_ns.dir/__/CMSIS/RTOS2/RTX/Source/rtx_lib.o
 .debug_line    0x00000000000019d1      0x4ee CMakeFiles/tfm_ns.dir/os_wrapper_cmsis_rtos_v2.o
 .debug_line    0x0000000000001ebf      0x40a CMakeFiles/tfm_ns.dir/__/log/tfm_log_raw.o
 .debug_line    0x00000000000022c9      0x268 ../../platform/ns/libplatform_ns.a(uart_stdout.o)
 .debug_line    0x0000000000002531      0x292 ../../platform/ns/libplatform_ns.a(system_stm32l5xx.o)
 .debug_line    0x00000000000027c3      0x548 ../../platform/ns/libplatform_ns.a(low_level_com.o)
 .debug_line    0x0000000000002d0b      0xba2 ../../platform/ns/libplatform_ns.a(stm32l5xx_hal_pwr_ex.o)
 .debug_line    0x00000000000038ad      0x777 ../../platform/ns/libplatform_ns.a(stm32l5xx_hal_gpio.o)
 .debug_line    0x0000000000004024     0x2a46 ../../platform/ns/libplatform_ns.a(stm32l5xx_hal_uart.o)
 .debug_line    0x0000000000006a6a      0x741 ../../platform/ns/libplatform_ns.a(stm32l5xx_hal.o)
 .debug_line    0x00000000000071ab     0x12a5 ../../platform/ns/libplatform_ns.a(stm32l5xx_hal_rcc.o)
 .debug_line    0x0000000000008450      0x101 libtfm_test_app.a(test_app.o)
 .debug_line    0x0000000000008551       0xc2 ../../lib/ext/tfm_test_repo-src/CMSIS/RTOS2/RTX/Library/GCC/libRTX_V8MMN.a(irq_armv8mml.o)
 .debug_line    0x0000000000008613      0x57a ../../lib/ext/tfm_test_repo-src/CMSIS/RTOS2/RTX/Library/GCC/libRTX_V8MMN.a(rtx_system.o)
 .debug_line    0x0000000000008b8d     0x1564 ../../lib/ext/tfm_test_repo-src/CMSIS/RTOS2/RTX/Library/GCC/libRTX_V8MMN.a(rtx_mempool.o)
 .debug_line    0x000000000000a0f1      0x5b1 ../../lib/ext/tfm_test_repo-src/CMSIS/RTOS2/RTX/Library/GCC/libRTX_V8MMN.a(rtx_memory.o)
 .debug_line    0x000000000000a6a2      0xc29 ../../lib/ext/tfm_test_repo-src/CMSIS/RTOS2/RTX/Library/GCC/libRTX_V8MMN.a(rtx_mutex.o)
 .debug_line    0x000000000000b2cb     0x3c28 ../../lib/ext/tfm_test_repo-src/CMSIS/RTOS2/RTX/Library/GCC/libRTX_V8MMN.a(rtx_thread.o)
 .debug_line    0x000000000000eef3     0x138b ../../lib/ext/tfm_test_repo-src/CMSIS/RTOS2/RTX/Library/GCC/libRTX_V8MMN.a(rtx_kernel.o)
 .debug_line    0x000000000001027e      0x376 ../../lib/ext/tfm_test_repo-src/CMSIS/RTOS2/RTX/Library/GCC/libRTX_V8MMN.a(os_systick.o)
 .debug_line    0x00000000000105f4      0x1c4 libtfm_api_ns.a(tfm_psa_ns_api.o)
 .debug_line    0x00000000000107b8      0x1bc libtfm_api_ns.a(tfm_ns_interface.o)
 .debug_line    0x0000000000010974       0x60 /usr/lib/gcc/arm-none-eabi/9.2.1/thumb/v8-m.main/nofp/libgcc.a(_aeabi_uldivmod.o)
 .debug_line    0x00000000000109d4      0x60b /usr/lib/gcc/arm-none-eabi/9.2.1/thumb/v8-m.main/nofp/libgcc.a(_udivmoddi4.o)
 .debug_line    0x0000000000010fdf       0x60 /usr/lib/gcc/arm-none-eabi/9.2.1/thumb/v8-m.main/nofp/libgcc.a(_dvmd_tls.o)
 .debug_line    0x000000000001103f      0x191 /usr/lib/gcc/arm-none-eabi/9.2.1/../../../arm-none-eabi/lib/thumb/v8-m.main/nofp/libg_nano.a(lib_a-assert.o)
 .debug_line    0x00000000000111d0      0x14a /usr/lib/gcc/arm-none-eabi/9.2.1/../../../arm-none-eabi/lib/thumb/v8-m.main/nofp/libg_nano.a(lib_a-atexit.o)
 .debug_line    0x000000000001131a      0x16c /usr/lib/gcc/arm-none-eabi/9.2.1/../../../arm-none-eabi/lib/thumb/v8-m.main/nofp/libg_nano.a(lib_a-exit.o)
 .debug_line    0x0000000000011486       0xd7 /usr/lib/gcc/arm-none-eabi/9.2.1/../../../arm-none-eabi/lib/thumb/v8-m.main/nofp/libg_nano.a(lib_a-fini.o)
 .debug_line    0x000000000001155d      0x1a4 /usr/lib/gcc/arm-none-eabi/9.2.1/../../../arm-none-eabi/lib/thumb/v8-m.main/nofp/libg_nano.a(lib_a-fprintf.o)
 .debug_line    0x0000000000011701       0xe3 /usr/lib/gcc/arm-none-eabi/9.2.1/../../../arm-none-eabi/lib/thumb/v8-m.main/nofp/libg_nano.a(lib_a-impure.o)
 .debug_line    0x00000000000117e4      0x113 /usr/lib/gcc/arm-none-eabi/9.2.1/../../../arm-none-eabi/lib/thumb/v8-m.main/nofp/libg_nano.a(lib_a-init.o)
 .debug_line    0x00000000000118f7       0xc1 /usr/lib/gcc/arm-none-eabi/9.2.1/../../../arm-none-eabi/lib/thumb/v8-m.main/nofp/libg_nano.a(lib_a-memcpy.o)
 .debug_line    0x00000000000119b8      0x26d /usr/lib/gcc/arm-none-eabi/9.2.1/../../../arm-none-eabi/lib/thumb/v8-m.main/nofp/libg_nano.a(lib_a-memset.o)
 .debug_line    0x0000000000011c25      0x718 /usr/lib/gcc/arm-none-eabi/9.2.1/../../../arm-none-eabi/lib/thumb/v8-m.main/nofp/libg_nano.a(lib_a-nano-vfprintf.o)
 .debug_line    0x000000000001233d      0x7c9 /usr/lib/gcc/arm-none-eabi/9.2.1/../../../arm-none-eabi/lib/thumb/v8-m.main/nofp/libg_nano.a(lib_a-nano-vfprintf_i.o)
 .debug_line    0x0000000000012b06      0x286 /usr/lib/gcc/arm-none-eabi/9.2.1/../../../arm-none-eabi/lib/thumb/v8-m.main/nofp/libg_nano.a(lib_a-wbuf.o)
 .debug_line    0x0000000000012d8c      0x30b /usr/lib/gcc/arm-none-eabi/9.2.1/../../../arm-none-eabi/lib/thumb/v8-m.main/nofp/libg_nano.a(lib_a-wsetup.o)
 .debug_line    0x0000000000013097      0x245 /usr/lib/gcc/arm-none-eabi/9.2.1/../../../arm-none-eabi/lib/thumb/v8-m.main/nofp/libg_nano.a(lib_a-__atexit.o)
 .debug_line    0x00000000000132dc      0x22f /usr/lib/gcc/arm-none-eabi/9.2.1/../../../arm-none-eabi/lib/thumb/v8-m.main/nofp/libg_nano.a(lib_a-__call_atexit.o)
 .debug_line    0x000000000001350b      0x15f /usr/lib/gcc/arm-none-eabi/9.2.1/../../../arm-none-eabi/lib/thumb/v8-m.main/nofp/libg_nano.a(lib_a-abort.o)
 .debug_line    0x000000000001366a      0x40a /usr/lib/gcc/arm-none-eabi/9.2.1/../../../arm-none-eabi/lib/thumb/v8-m.main/nofp/libg_nano.a(lib_a-fflush.o)
 .debug_line    0x0000000000013a74      0x5bb /usr/lib/gcc/arm-none-eabi/9.2.1/../../../arm-none-eabi/lib/thumb/v8-m.main/nofp/libg_nano.a(lib_a-findfp.o)
 .debug_line    0x000000000001402f      0x5fe /usr/lib/gcc/arm-none-eabi/9.2.1/../../../arm-none-eabi/lib/thumb/v8-m.main/nofp/libg_nano.a(lib_a-fvwrite.o)
 .debug_line    0x000000000001462d      0x289 /usr/lib/gcc/arm-none-eabi/9.2.1/../../../arm-none-eabi/lib/thumb/v8-m.main/nofp/libg_nano.a(lib_a-fwalk.o)
 .debug_line    0x00000000000148b6      0x383 /usr/lib/gcc/arm-none-eabi/9.2.1/../../../arm-none-eabi/lib/thumb/v8-m.main/nofp/libg_nano.a(lib_a-makebuf.o)
 .debug_line    0x0000000000014c39      0x203 /usr/lib/gcc/arm-none-eabi/9.2.1/../../../arm-none-eabi/lib/thumb/v8-m.main/nofp/libg_nano.a(lib_a-memchr-stub.o)
 .debug_line    0x0000000000014e3c      0x28c /usr/lib/gcc/arm-none-eabi/9.2.1/../../../arm-none-eabi/lib/thumb/v8-m.main/nofp/libg_nano.a(lib_a-memmove.o)
 .debug_line    0x00000000000150c8      0x2ac /usr/lib/gcc/arm-none-eabi/9.2.1/../../../arm-none-eabi/lib/thumb/v8-m.main/nofp/libg_nano.a(lib_a-nano-freer.o)
 .debug_line    0x0000000000015374      0x2ed /usr/lib/gcc/arm-none-eabi/9.2.1/../../../arm-none-eabi/lib/thumb/v8-m.main/nofp/libg_nano.a(lib_a-nano-mallocr.o)
 .debug_line    0x0000000000015661      0x1c5 /usr/lib/gcc/arm-none-eabi/9.2.1/../../../arm-none-eabi/lib/thumb/v8-m.main/nofp/libg_nano.a(lib_a-nano-reallocr.o)
 .debug_line    0x0000000000015826      0x182 /usr/lib/gcc/arm-none-eabi/9.2.1/../../../arm-none-eabi/lib/thumb/v8-m.main/nofp/libg_nano.a(lib_a-sbrkr.o)
 .debug_line    0x00000000000159a8      0x3d5 /usr/lib/gcc/arm-none-eabi/9.2.1/../../../arm-none-eabi/lib/thumb/v8-m.main/nofp/libg_nano.a(lib_a-signal.o)
 .debug_line    0x0000000000015d7d      0x1a3 /usr/lib/gcc/arm-none-eabi/9.2.1/../../../arm-none-eabi/lib/thumb/v8-m.main/nofp/libg_nano.a(lib_a-signalr.o)
 .debug_line    0x0000000000015f20      0x26a /usr/lib/gcc/arm-none-eabi/9.2.1/../../../arm-none-eabi/lib/thumb/v8-m.main/nofp/libg_nano.a(lib_a-stdio.o)
 .debug_line    0x000000000001618a      0x187 /usr/lib/gcc/arm-none-eabi/9.2.1/../../../arm-none-eabi/lib/thumb/v8-m.main/nofp/libg_nano.a(lib_a-writer.o)
 .debug_line    0x0000000000016311      0x182 /usr/lib/gcc/arm-none-eabi/9.2.1/../../../arm-none-eabi/lib/thumb/v8-m.main/nofp/libg_nano.a(lib_a-closer.o)
 .debug_line    0x0000000000016493      0x212 /usr/lib/gcc/arm-none-eabi/9.2.1/../../../arm-none-eabi/lib/thumb/v8-m.main/nofp/libg_nano.a(lib_a-fstatr.o)
 .debug_line    0x00000000000166a5      0x183 /usr/lib/gcc/arm-none-eabi/9.2.1/../../../arm-none-eabi/lib/thumb/v8-m.main/nofp/libg_nano.a(lib_a-isattyr.o)
 .debug_line    0x0000000000016828      0x187 /usr/lib/gcc/arm-none-eabi/9.2.1/../../../arm-none-eabi/lib/thumb/v8-m.main/nofp/libg_nano.a(lib_a-lseekr.o)
 .debug_line    0x00000000000169af      0x13d /usr/lib/gcc/arm-none-eabi/9.2.1/../../../arm-none-eabi/lib/thumb/v8-m.main/nofp/libg_nano.a(lib_a-mlock.o)
 .debug_line    0x0000000000016aec      0x16a /usr/lib/gcc/arm-none-eabi/9.2.1/../../../arm-none-eabi/lib/thumb/v8-m.main/nofp/libg_nano.a(lib_a-nano-msizer.o)
 .debug_line    0x0000000000016c56      0x186 /usr/lib/gcc/arm-none-eabi/9.2.1/../../../arm-none-eabi/lib/thumb/v8-m.main/nofp/libg_nano.a(lib_a-readr.o)
 .debug_line    0x0000000000016ddc      0x275 /usr/lib/gcc/arm-none-eabi/9.2.1/../../../arm-none-eabi/lib/thumb/v8-m.main/nofp/libg_nano.a(lib_a-reent.o)
 .debug_line    0x0000000000017051      0x110 /usr/lib/gcc/arm-none-eabi/9.2.1/../../../arm-none-eabi/lib/thumb/v8-m.main/nofp/libnosys.a(close.o)
 .debug_line    0x0000000000017161      0x1d4 /usr/lib/gcc/arm-none-eabi/9.2.1/../../../arm-none-eabi/lib/thumb/v8-m.main/nofp/libnosys.a(fstat.o)
 .debug_line    0x0000000000017335      0x111 /usr/lib/gcc/arm-none-eabi/9.2.1/../../../arm-none-eabi/lib/thumb/v8-m.main/nofp/libnosys.a(getpid.o)
 .debug_line    0x0000000000017446      0x111 /usr/lib/gcc/arm-none-eabi/9.2.1/../../../arm-none-eabi/lib/thumb/v8-m.main/nofp/libnosys.a(isatty.o)
 .debug_line    0x0000000000017557      0x10f /usr/lib/gcc/arm-none-eabi/9.2.1/../../../arm-none-eabi/lib/thumb/v8-m.main/nofp/libnosys.a(kill.o)
 .debug_line    0x0000000000017666      0x110 /usr/lib/gcc/arm-none-eabi/9.2.1/../../../arm-none-eabi/lib/thumb/v8-m.main/nofp/libnosys.a(lseek.o)
 .debug_line    0x0000000000017776      0x10f /usr/lib/gcc/arm-none-eabi/9.2.1/../../../arm-none-eabi/lib/thumb/v8-m.main/nofp/libnosys.a(read.o)
 .debug_line    0x0000000000017885       0x7e /usr/lib/gcc/arm-none-eabi/9.2.1/../../../arm-none-eabi/lib/thumb/v8-m.main/nofp/libnosys.a(sbrk.o)
 .debug_line    0x0000000000017903       0x6e /usr/lib/gcc/arm-none-eabi/9.2.1/../../../arm-none-eabi/lib/thumb/v8-m.main/nofp/libnosys.a(_exit.o)

.debug_info     0x0000000000000000    0x45036
 .debug_info    0x0000000000000000       0x26 /usr/lib/gcc/arm-none-eabi/9.2.1/../../../arm-none-eabi/lib/thumb/v8-m.main/nofp/crt0.o
 .debug_info    0x0000000000000026      0x5ac CMakeFiles/tfm_ns.dir/main_ns.o
 .debug_info    0x00000000000005d2      0xc1f CMakeFiles/tfm_ns.dir/__/__/__/platform/ext/target/stm/common/stm32l5xx/Device/Source/startup_stm32l5xx_ns.o
 .debug_info    0x00000000000011f1      0x135 CMakeFiles/tfm_ns.dir/__/ns_interface/ns_client_ext/tz_shim_layer.o
 .debug_info    0x0000000000001326     0x1054 CMakeFiles/tfm_ns.dir/__/CMSIS/RTOS2/RTX/Config/RTX_Config.o
 .debug_info    0x000000000000237a     0x1281 CMakeFiles/tfm_ns.dir/__/CMSIS/RTOS2/RTX/Source/rtx_lib.o
 .debug_info    0x00000000000035fb      0xc39 CMakeFiles/tfm_ns.dir/os_wrapper_cmsis_rtos_v2.o
 .debug_info    0x0000000000004234      0x55f CMakeFiles/tfm_ns.dir/__/log/tfm_log_raw.o
 .debug_info    0x0000000000004793     0x10ea ../../platform/ns/libplatform_ns.a(uart_stdout.o)
 .debug_info    0x000000000000587d      0x503 ../../platform/ns/libplatform_ns.a(system_stm32l5xx.o)
 .debug_info    0x0000000000005d80     0x1692 ../../platform/ns/libplatform_ns.a(low_level_com.o)
 .debug_info    0x0000000000007412     0x10d6 ../../platform/ns/libplatform_ns.a(stm32l5xx_hal_pwr_ex.o)
 .debug_info    0x00000000000084e8      0x84f ../../platform/ns/libplatform_ns.a(stm32l5xx_hal_gpio.o)
 .debug_info    0x0000000000008d37     0x289a ../../platform/ns/libplatform_ns.a(stm32l5xx_hal_uart.o)
 .debug_info    0x000000000000b5d1      0xf95 ../../platform/ns/libplatform_ns.a(stm32l5xx_hal.o)
 .debug_info    0x000000000000c566     0x1466 ../../platform/ns/libplatform_ns.a(stm32l5xx_hal_rcc.o)
 .debug_info    0x000000000000d9cc       0x72 libtfm_test_app.a(test_app.o)
 .debug_info    0x000000000000da3e       0x26 ../../lib/ext/tfm_test_repo-src/CMSIS/RTOS2/RTX/Library/GCC/libRTX_V8MMN.a(irq_armv8mml.o)
 .debug_info    0x000000000000da64     0x2487 ../../lib/ext/tfm_test_repo-src/CMSIS/RTOS2/RTX/Library/GCC/libRTX_V8MMN.a(rtx_system.o)
 .debug_info    0x000000000000feeb     0x3fb7 ../../lib/ext/tfm_test_repo-src/CMSIS/RTOS2/RTX/Library/GCC/libRTX_V8MMN.a(rtx_mempool.o)
 .debug_info    0x0000000000013ea2     0x1ffe ../../lib/ext/tfm_test_repo-src/CMSIS/RTOS2/RTX/Library/GCC/libRTX_V8MMN.a(rtx_memory.o)
 .debug_info    0x0000000000015ea0     0x2b74 ../../lib/ext/tfm_test_repo-src/CMSIS/RTOS2/RTX/Library/GCC/libRTX_V8MMN.a(rtx_mutex.o)
 .debug_info    0x0000000000018a14     0x6ec8 ../../lib/ext/tfm_test_repo-src/CMSIS/RTOS2/RTX/Library/GCC/libRTX_V8MMN.a(rtx_thread.o)
 .debug_info    0x000000000001f8dc     0x3ed0 ../../lib/ext/tfm_test_repo-src/CMSIS/RTOS2/RTX/Library/GCC/libRTX_V8MMN.a(rtx_kernel.o)
 .debug_info    0x00000000000237ac      0x688 ../../lib/ext/tfm_test_repo-src/CMSIS/RTOS2/RTX/Library/GCC/libRTX_V8MMN.a(os_systick.o)
 .debug_info    0x0000000000023e34      0x2ae libtfm_api_ns.a(tfm_psa_ns_api.o)
 .debug_info    0x00000000000240e2      0x1b6 libtfm_api_ns.a(tfm_ns_interface.o)
 .debug_info    0x0000000000024298       0x26 /usr/lib/gcc/arm-none-eabi/9.2.1/thumb/v8-m.main/nofp/libgcc.a(_aeabi_uldivmod.o)
 .debug_info    0x00000000000242be      0xd7c /usr/lib/gcc/arm-none-eabi/9.2.1/thumb/v8-m.main/nofp/libgcc.a(_udivmoddi4.o)
 .debug_info    0x000000000002503a       0x26 /usr/lib/gcc/arm-none-eabi/9.2.1/thumb/v8-m.main/nofp/libgcc.a(_dvmd_tls.o)
 .debug_info    0x0000000000025060      0xa48 /usr/lib/gcc/arm-none-eabi/9.2.1/../../../arm-none-eabi/lib/thumb/v8-m.main/nofp/libg_nano.a(lib_a-assert.o)
 .debug_info    0x0000000000025aa8      0x995 /usr/lib/gcc/arm-none-eabi/9.2.1/../../../arm-none-eabi/lib/thumb/v8-m.main/nofp/libg_nano.a(lib_a-atexit.o)
 .debug_info    0x000000000002643d      0x9e7 /usr/lib/gcc/arm-none-eabi/9.2.1/../../../arm-none-eabi/lib/thumb/v8-m.main/nofp/libg_nano.a(lib_a-exit.o)
 .debug_info    0x0000000000026e24      0x102 /usr/lib/gcc/arm-none-eabi/9.2.1/../../../arm-none-eabi/lib/thumb/v8-m.main/nofp/libg_nano.a(lib_a-fini.o)
 .debug_info    0x0000000000026f26      0xa7a /usr/lib/gcc/arm-none-eabi/9.2.1/../../../arm-none-eabi/lib/thumb/v8-m.main/nofp/libg_nano.a(lib_a-fprintf.o)
 .debug_info    0x00000000000279a0      0x92a /usr/lib/gcc/arm-none-eabi/9.2.1/../../../arm-none-eabi/lib/thumb/v8-m.main/nofp/libg_nano.a(lib_a-impure.o)
 .debug_info    0x00000000000282ca      0x11a /usr/lib/gcc/arm-none-eabi/9.2.1/../../../arm-none-eabi/lib/thumb/v8-m.main/nofp/libg_nano.a(lib_a-init.o)
 .debug_info    0x00000000000283e4       0x26 /usr/lib/gcc/arm-none-eabi/9.2.1/../../../arm-none-eabi/lib/thumb/v8-m.main/nofp/libg_nano.a(lib_a-memcpy.o)
 .debug_info    0x000000000002840a      0xf21 /usr/lib/gcc/arm-none-eabi/9.2.1/../../../arm-none-eabi/lib/thumb/v8-m.main/nofp/libg_nano.a(lib_a-memset.o)
 .debug_info    0x000000000002932b     0x176a /usr/lib/gcc/arm-none-eabi/9.2.1/../../../arm-none-eabi/lib/thumb/v8-m.main/nofp/libg_nano.a(lib_a-nano-vfprintf.o)
 .debug_info    0x000000000002aa95     0x1592 /usr/lib/gcc/arm-none-eabi/9.2.1/../../../arm-none-eabi/lib/thumb/v8-m.main/nofp/libg_nano.a(lib_a-nano-vfprintf_i.o)
 .debug_info    0x000000000002c027      0xc90 /usr/lib/gcc/arm-none-eabi/9.2.1/../../../arm-none-eabi/lib/thumb/v8-m.main/nofp/libg_nano.a(lib_a-wbuf.o)
 .debug_info    0x000000000002ccb7      0xbfa /usr/lib/gcc/arm-none-eabi/9.2.1/../../../arm-none-eabi/lib/thumb/v8-m.main/nofp/libg_nano.a(lib_a-wsetup.o)
 .debug_info    0x000000000002d8b1      0xa38 /usr/lib/gcc/arm-none-eabi/9.2.1/../../../arm-none-eabi/lib/thumb/v8-m.main/nofp/libg_nano.a(lib_a-__atexit.o)
 .debug_info    0x000000000002e2e9      0xa10 /usr/lib/gcc/arm-none-eabi/9.2.1/../../../arm-none-eabi/lib/thumb/v8-m.main/nofp/libg_nano.a(lib_a-__call_atexit.o)
 .debug_info    0x000000000002ecf9      0x9b5 /usr/lib/gcc/arm-none-eabi/9.2.1/../../../arm-none-eabi/lib/thumb/v8-m.main/nofp/libg_nano.a(lib_a-abort.o)
 .debug_info    0x000000000002f6ae      0xd73 /usr/lib/gcc/arm-none-eabi/9.2.1/../../../arm-none-eabi/lib/thumb/v8-m.main/nofp/libg_nano.a(lib_a-fflush.o)
 .debug_info    0x0000000000030421     0x11a8 /usr/lib/gcc/arm-none-eabi/9.2.1/../../../arm-none-eabi/lib/thumb/v8-m.main/nofp/libg_nano.a(lib_a-findfp.o)
 .debug_info    0x00000000000315c9      0xef3 /usr/lib/gcc/arm-none-eabi/9.2.1/../../../arm-none-eabi/lib/thumb/v8-m.main/nofp/libg_nano.a(lib_a-fvwrite.o)
 .debug_info    0x00000000000324bc      0xca4 /usr/lib/gcc/arm-none-eabi/9.2.1/../../../arm-none-eabi/lib/thumb/v8-m.main/nofp/libg_nano.a(lib_a-fwalk.o)
 .debug_info    0x0000000000033160      0xf68 /usr/lib/gcc/arm-none-eabi/9.2.1/../../../arm-none-eabi/lib/thumb/v8-m.main/nofp/libg_nano.a(lib_a-makebuf.o)
 .debug_info    0x00000000000340c8      0x9e3 /usr/lib/gcc/arm-none-eabi/9.2.1/../../../arm-none-eabi/lib/thumb/v8-m.main/nofp/libg_nano.a(lib_a-memchr-stub.o)
 .debug_info    0x0000000000034aab      0xf2b /usr/lib/gcc/arm-none-eabi/9.2.1/../../../arm-none-eabi/lib/thumb/v8-m.main/nofp/libg_nano.a(lib_a-memmove.o)
 .debug_info    0x00000000000359d6      0xb85 /usr/lib/gcc/arm-none-eabi/9.2.1/../../../arm-none-eabi/lib/thumb/v8-m.main/nofp/libg_nano.a(lib_a-nano-freer.o)
 .debug_info    0x000000000003655b      0xc5a /usr/lib/gcc/arm-none-eabi/9.2.1/../../../arm-none-eabi/lib/thumb/v8-m.main/nofp/libg_nano.a(lib_a-nano-mallocr.o)
 .debug_info    0x00000000000371b5      0xb77 /usr/lib/gcc/arm-none-eabi/9.2.1/../../../arm-none-eabi/lib/thumb/v8-m.main/nofp/libg_nano.a(lib_a-nano-reallocr.o)
 .debug_info    0x0000000000037d2c      0x9fb /usr/lib/gcc/arm-none-eabi/9.2.1/../../../arm-none-eabi/lib/thumb/v8-m.main/nofp/libg_nano.a(lib_a-sbrkr.o)
 .debug_info    0x0000000000038727      0xd5c /usr/lib/gcc/arm-none-eabi/9.2.1/../../../arm-none-eabi/lib/thumb/v8-m.main/nofp/libg_nano.a(lib_a-signal.o)
 .debug_info    0x0000000000039483      0xa43 /usr/lib/gcc/arm-none-eabi/9.2.1/../../../arm-none-eabi/lib/thumb/v8-m.main/nofp/libg_nano.a(lib_a-signalr.o)
 .debug_info    0x0000000000039ec6      0xe67 /usr/lib/gcc/arm-none-eabi/9.2.1/../../../arm-none-eabi/lib/thumb/v8-m.main/nofp/libg_nano.a(lib_a-stdio.o)
 .debug_info    0x000000000003ad2d      0xa2c /usr/lib/gcc/arm-none-eabi/9.2.1/../../../arm-none-eabi/lib/thumb/v8-m.main/nofp/libg_nano.a(lib_a-writer.o)
 .debug_info    0x000000000003b759      0x9d8 /usr/lib/gcc/arm-none-eabi/9.2.1/../../../arm-none-eabi/lib/thumb/v8-m.main/nofp/libg_nano.a(lib_a-closer.o)
 .debug_info    0x000000000003c131      0xc23 /usr/lib/gcc/arm-none-eabi/9.2.1/../../../arm-none-eabi/lib/thumb/v8-m.main/nofp/libg_nano.a(lib_a-fstatr.o)
 .debug_info    0x000000000003cd54      0x9d8 /usr/lib/gcc/arm-none-eabi/9.2.1/../../../arm-none-eabi/lib/thumb/v8-m.main/nofp/libg_nano.a(lib_a-isattyr.o)
 .debug_info    0x000000000003d72c      0xa0d /usr/lib/gcc/arm-none-eabi/9.2.1/../../../arm-none-eabi/lib/thumb/v8-m.main/nofp/libg_nano.a(lib_a-lseekr.o)
 .debug_info    0x000000000003e139      0x961 /usr/lib/gcc/arm-none-eabi/9.2.1/../../../arm-none-eabi/lib/thumb/v8-m.main/nofp/libg_nano.a(lib_a-mlock.o)
 .debug_info    0x000000000003ea9a      0xaa6 /usr/lib/gcc/arm-none-eabi/9.2.1/../../../arm-none-eabi/lib/thumb/v8-m.main/nofp/libg_nano.a(lib_a-nano-msizer.o)
 .debug_info    0x000000000003f540      0xa25 /usr/lib/gcc/arm-none-eabi/9.2.1/../../../arm-none-eabi/lib/thumb/v8-m.main/nofp/libg_nano.a(lib_a-readr.o)
 .debug_info    0x000000000003ff65      0xb0f /usr/lib/gcc/arm-none-eabi/9.2.1/../../../arm-none-eabi/lib/thumb/v8-m.main/nofp/libg_nano.a(lib_a-reent.o)
 .debug_info    0x0000000000040a74      0x96e /usr/lib/gcc/arm-none-eabi/9.2.1/../../../arm-none-eabi/lib/thumb/v8-m.main/nofp/libnosys.a(close.o)
 .debug_info    0x00000000000413e2      0xbb1 /usr/lib/gcc/arm-none-eabi/9.2.1/../../../arm-none-eabi/lib/thumb/v8-m.main/nofp/libnosys.a(fstat.o)
 .debug_info    0x0000000000041f93      0x959 /usr/lib/gcc/arm-none-eabi/9.2.1/../../../arm-none-eabi/lib/thumb/v8-m.main/nofp/libnosys.a(getpid.o)
 .debug_info    0x00000000000428ec      0x96e /usr/lib/gcc/arm-none-eabi/9.2.1/../../../arm-none-eabi/lib/thumb/v8-m.main/nofp/libnosys.a(isatty.o)
 .debug_info    0x000000000004325a      0x97c /usr/lib/gcc/arm-none-eabi/9.2.1/../../../arm-none-eabi/lib/thumb/v8-m.main/nofp/libnosys.a(kill.o)
 .debug_info    0x0000000000043bd6      0x990 /usr/lib/gcc/arm-none-eabi/9.2.1/../../../arm-none-eabi/lib/thumb/v8-m.main/nofp/libnosys.a(lseek.o)
 .debug_info    0x0000000000044566      0x990 /usr/lib/gcc/arm-none-eabi/9.2.1/../../../arm-none-eabi/lib/thumb/v8-m.main/nofp/libnosys.a(read.o)
 .debug_info    0x0000000000044ef6       0x9d /usr/lib/gcc/arm-none-eabi/9.2.1/../../../arm-none-eabi/lib/thumb/v8-m.main/nofp/libnosys.a(sbrk.o)
 .debug_info    0x0000000000044f93       0xa3 /usr/lib/gcc/arm-none-eabi/9.2.1/../../../arm-none-eabi/lib/thumb/v8-m.main/nofp/libnosys.a(_exit.o)

.debug_abbrev   0x0000000000000000     0xa915
 .debug_abbrev  0x0000000000000000       0x14 /usr/lib/gcc/arm-none-eabi/9.2.1/../../../arm-none-eabi/lib/thumb/v8-m.main/nofp/crt0.o
 .debug_abbrev  0x0000000000000014      0x1c4 CMakeFiles/tfm_ns.dir/main_ns.o
 .debug_abbrev  0x00000000000001d8      0x1ea CMakeFiles/tfm_ns.dir/__/__/__/platform/ext/target/stm/common/stm32l5xx/Device/Source/startup_stm32l5xx_ns.o
 .debug_abbrev  0x00000000000003c2       0xbb CMakeFiles/tfm_ns.dir/__/ns_interface/ns_client_ext/tz_shim_layer.o
 .debug_abbrev  0x000000000000047d      0x192 CMakeFiles/tfm_ns.dir/__/CMSIS/RTOS2/RTX/Config/RTX_Config.o
 .debug_abbrev  0x000000000000060f      0x1c6 CMakeFiles/tfm_ns.dir/__/CMSIS/RTOS2/RTX/Source/rtx_lib.o
 .debug_abbrev  0x00000000000007d5      0x285 CMakeFiles/tfm_ns.dir/os_wrapper_cmsis_rtos_v2.o
 .debug_abbrev  0x0000000000000a5a      0x273 CMakeFiles/tfm_ns.dir/__/log/tfm_log_raw.o
 .debug_abbrev  0x0000000000000ccd      0x37d ../../platform/ns/libplatform_ns.a(uart_stdout.o)
 .debug_abbrev  0x000000000000104a      0x13d ../../platform/ns/libplatform_ns.a(system_stm32l5xx.o)
 .debug_abbrev  0x0000000000001187      0x335 ../../platform/ns/libplatform_ns.a(low_level_com.o)
 .debug_abbrev  0x00000000000014bc      0x2f5 ../../platform/ns/libplatform_ns.a(stm32l5xx_hal_pwr_ex.o)
 .debug_abbrev  0x00000000000017b1      0x262 ../../platform/ns/libplatform_ns.a(stm32l5xx_hal_gpio.o)
 .debug_abbrev  0x0000000000001a13      0x3eb ../../platform/ns/libplatform_ns.a(stm32l5xx_hal_uart.o)
 .debug_abbrev  0x0000000000001dfe      0x325 ../../platform/ns/libplatform_ns.a(stm32l5xx_hal.o)
 .debug_abbrev  0x0000000000002123      0x2e2 ../../platform/ns/libplatform_ns.a(stm32l5xx_hal_rcc.o)
 .debug_abbrev  0x0000000000002405       0x78 libtfm_test_app.a(test_app.o)
 .debug_abbrev  0x000000000000247d       0x14 ../../lib/ext/tfm_test_repo-src/CMSIS/RTOS2/RTX/Library/GCC/libRTX_V8MMN.a(irq_armv8mml.o)
 .debug_abbrev  0x0000000000002491      0x3f1 ../../lib/ext/tfm_test_repo-src/CMSIS/RTOS2/RTX/Library/GCC/libRTX_V8MMN.a(rtx_system.o)
 .debug_abbrev  0x0000000000002882      0x572 ../../lib/ext/tfm_test_repo-src/CMSIS/RTOS2/RTX/Library/GCC/libRTX_V8MMN.a(rtx_mempool.o)
 .debug_abbrev  0x0000000000002df4      0x33d ../../lib/ext/tfm_test_repo-src/CMSIS/RTOS2/RTX/Library/GCC/libRTX_V8MMN.a(rtx_memory.o)
 .debug_abbrev  0x0000000000003131      0x48a ../../lib/ext/tfm_test_repo-src/CMSIS/RTOS2/RTX/Library/GCC/libRTX_V8MMN.a(rtx_mutex.o)
 .debug_abbrev  0x00000000000035bb      0x5de ../../lib/ext/tfm_test_repo-src/CMSIS/RTOS2/RTX/Library/GCC/libRTX_V8MMN.a(rtx_thread.o)
 .debug_abbrev  0x0000000000003b99      0x5cb ../../lib/ext/tfm_test_repo-src/CMSIS/RTOS2/RTX/Library/GCC/libRTX_V8MMN.a(rtx_kernel.o)
 .debug_abbrev  0x0000000000004164      0x1b0 ../../lib/ext/tfm_test_repo-src/CMSIS/RTOS2/RTX/Library/GCC/libRTX_V8MMN.a(os_systick.o)
 .debug_abbrev  0x0000000000004314      0x118 libtfm_api_ns.a(tfm_psa_ns_api.o)
 .debug_abbrev  0x000000000000442c       0xfd libtfm_api_ns.a(tfm_ns_interface.o)
 .debug_abbrev  0x0000000000004529       0x14 /usr/lib/gcc/arm-none-eabi/9.2.1/thumb/v8-m.main/nofp/libgcc.a(_aeabi_uldivmod.o)
 .debug_abbrev  0x000000000000453d      0x1c2 /usr/lib/gcc/arm-none-eabi/9.2.1/thumb/v8-m.main/nofp/libgcc.a(_udivmoddi4.o)
 .debug_abbrev  0x00000000000046ff       0x14 /usr/lib/gcc/arm-none-eabi/9.2.1/thumb/v8-m.main/nofp/libgcc.a(_dvmd_tls.o)
 .debug_abbrev  0x0000000000004713      0x1ff /usr/lib/gcc/arm-none-eabi/9.2.1/../../../arm-none-eabi/lib/thumb/v8-m.main/nofp/libg_nano.a(lib_a-assert.o)
 .debug_abbrev  0x0000000000004912      0x1f4 /usr/lib/gcc/arm-none-eabi/9.2.1/../../../arm-none-eabi/lib/thumb/v8-m.main/nofp/libg_nano.a(lib_a-atexit.o)
 .debug_abbrev  0x0000000000004b06      0x1f6 /usr/lib/gcc/arm-none-eabi/9.2.1/../../../arm-none-eabi/lib/thumb/v8-m.main/nofp/libg_nano.a(lib_a-exit.o)
 .debug_abbrev  0x0000000000004cfc       0xcf /usr/lib/gcc/arm-none-eabi/9.2.1/../../../arm-none-eabi/lib/thumb/v8-m.main/nofp/libg_nano.a(lib_a-fini.o)
 .debug_abbrev  0x0000000000004dcb      0x23c /usr/lib/gcc/arm-none-eabi/9.2.1/../../../arm-none-eabi/lib/thumb/v8-m.main/nofp/libg_nano.a(lib_a-fprintf.o)
 .debug_abbrev  0x0000000000005007      0x17a /usr/lib/gcc/arm-none-eabi/9.2.1/../../../arm-none-eabi/lib/thumb/v8-m.main/nofp/libg_nano.a(lib_a-impure.o)
 .debug_abbrev  0x0000000000005181       0xcc /usr/lib/gcc/arm-none-eabi/9.2.1/../../../arm-none-eabi/lib/thumb/v8-m.main/nofp/libg_nano.a(lib_a-init.o)
 .debug_abbrev  0x000000000000524d       0x14 /usr/lib/gcc/arm-none-eabi/9.2.1/../../../arm-none-eabi/lib/thumb/v8-m.main/nofp/libg_nano.a(lib_a-memcpy.o)
 .debug_abbrev  0x0000000000005261      0x1d9 /usr/lib/gcc/arm-none-eabi/9.2.1/../../../arm-none-eabi/lib/thumb/v8-m.main/nofp/libg_nano.a(lib_a-memset.o)
 .debug_abbrev  0x000000000000543a      0x337 /usr/lib/gcc/arm-none-eabi/9.2.1/../../../arm-none-eabi/lib/thumb/v8-m.main/nofp/libg_nano.a(lib_a-nano-vfprintf.o)
 .debug_abbrev  0x0000000000005771      0x2dc /usr/lib/gcc/arm-none-eabi/9.2.1/../../../arm-none-eabi/lib/thumb/v8-m.main/nofp/libg_nano.a(lib_a-nano-vfprintf_i.o)
 .debug_abbrev  0x0000000000005a4d      0x285 /usr/lib/gcc/arm-none-eabi/9.2.1/../../../arm-none-eabi/lib/thumb/v8-m.main/nofp/libg_nano.a(lib_a-wbuf.o)
 .debug_abbrev  0x0000000000005cd2      0x23a /usr/lib/gcc/arm-none-eabi/9.2.1/../../../arm-none-eabi/lib/thumb/v8-m.main/nofp/libg_nano.a(lib_a-wsetup.o)
 .debug_abbrev  0x0000000000005f0c      0x25f /usr/lib/gcc/arm-none-eabi/9.2.1/../../../arm-none-eabi/lib/thumb/v8-m.main/nofp/libg_nano.a(lib_a-__atexit.o)
 .debug_abbrev  0x000000000000616b      0x237 /usr/lib/gcc/arm-none-eabi/9.2.1/../../../arm-none-eabi/lib/thumb/v8-m.main/nofp/libg_nano.a(lib_a-__call_atexit.o)
 .debug_abbrev  0x00000000000063a2      0x1cd /usr/lib/gcc/arm-none-eabi/9.2.1/../../../arm-none-eabi/lib/thumb/v8-m.main/nofp/libg_nano.a(lib_a-abort.o)
 .debug_abbrev  0x000000000000656f      0x2e4 /usr/lib/gcc/arm-none-eabi/9.2.1/../../../arm-none-eabi/lib/thumb/v8-m.main/nofp/libg_nano.a(lib_a-fflush.o)
 .debug_abbrev  0x0000000000006853      0x3dc /usr/lib/gcc/arm-none-eabi/9.2.1/../../../arm-none-eabi/lib/thumb/v8-m.main/nofp/libg_nano.a(lib_a-findfp.o)
 .debug_abbrev  0x0000000000006c2f      0x270 /usr/lib/gcc/arm-none-eabi/9.2.1/../../../arm-none-eabi/lib/thumb/v8-m.main/nofp/libg_nano.a(lib_a-fvwrite.o)
 .debug_abbrev  0x0000000000006e9f      0x210 /usr/lib/gcc/arm-none-eabi/9.2.1/../../../arm-none-eabi/lib/thumb/v8-m.main/nofp/libg_nano.a(lib_a-fwalk.o)
 .debug_abbrev  0x00000000000070af      0x2f6 /usr/lib/gcc/arm-none-eabi/9.2.1/../../../arm-none-eabi/lib/thumb/v8-m.main/nofp/libg_nano.a(lib_a-makebuf.o)
 .debug_abbrev  0x00000000000073a5      0x1d7 /usr/lib/gcc/arm-none-eabi/9.2.1/../../../arm-none-eabi/lib/thumb/v8-m.main/nofp/libg_nano.a(lib_a-memchr-stub.o)
 .debug_abbrev  0x000000000000757c      0x1de /usr/lib/gcc/arm-none-eabi/9.2.1/../../../arm-none-eabi/lib/thumb/v8-m.main/nofp/libg_nano.a(lib_a-memmove.o)
 .debug_abbrev  0x000000000000775a      0x286 /usr/lib/gcc/arm-none-eabi/9.2.1/../../../arm-none-eabi/lib/thumb/v8-m.main/nofp/libg_nano.a(lib_a-nano-freer.o)
 .debug_abbrev  0x00000000000079e0      0x2d1 /usr/lib/gcc/arm-none-eabi/9.2.1/../../../arm-none-eabi/lib/thumb/v8-m.main/nofp/libg_nano.a(lib_a-nano-mallocr.o)
 .debug_abbrev  0x0000000000007cb1      0x22a /usr/lib/gcc/arm-none-eabi/9.2.1/../../../arm-none-eabi/lib/thumb/v8-m.main/nofp/libg_nano.a(lib_a-nano-reallocr.o)
 .debug_abbrev  0x0000000000007edb      0x212 /usr/lib/gcc/arm-none-eabi/9.2.1/../../../arm-none-eabi/lib/thumb/v8-m.main/nofp/libg_nano.a(lib_a-sbrkr.o)
 .debug_abbrev  0x00000000000080ed      0x32d /usr/lib/gcc/arm-none-eabi/9.2.1/../../../arm-none-eabi/lib/thumb/v8-m.main/nofp/libg_nano.a(lib_a-signal.o)
 .debug_abbrev  0x000000000000841a      0x217 /usr/lib/gcc/arm-none-eabi/9.2.1/../../../arm-none-eabi/lib/thumb/v8-m.main/nofp/libg_nano.a(lib_a-signalr.o)
 .debug_abbrev  0x0000000000008631      0x26f /usr/lib/gcc/arm-none-eabi/9.2.1/../../../arm-none-eabi/lib/thumb/v8-m.main/nofp/libg_nano.a(lib_a-stdio.o)
 .debug_abbrev  0x00000000000088a0      0x1ec /usr/lib/gcc/arm-none-eabi/9.2.1/../../../arm-none-eabi/lib/thumb/v8-m.main/nofp/libg_nano.a(lib_a-writer.o)
 .debug_abbrev  0x0000000000008a8c      0x1e7 /usr/lib/gcc/arm-none-eabi/9.2.1/../../../arm-none-eabi/lib/thumb/v8-m.main/nofp/libg_nano.a(lib_a-closer.o)
 .debug_abbrev  0x0000000000008c73      0x1fb /usr/lib/gcc/arm-none-eabi/9.2.1/../../../arm-none-eabi/lib/thumb/v8-m.main/nofp/libg_nano.a(lib_a-fstatr.o)
 .debug_abbrev  0x0000000000008e6e      0x1e7 /usr/lib/gcc/arm-none-eabi/9.2.1/../../../arm-none-eabi/lib/thumb/v8-m.main/nofp/libg_nano.a(lib_a-isattyr.o)
 .debug_abbrev  0x0000000000009055      0x1fb /usr/lib/gcc/arm-none-eabi/9.2.1/../../../arm-none-eabi/lib/thumb/v8-m.main/nofp/libg_nano.a(lib_a-lseekr.o)
 .debug_abbrev  0x0000000000009250      0x1c5 /usr/lib/gcc/arm-none-eabi/9.2.1/../../../arm-none-eabi/lib/thumb/v8-m.main/nofp/libg_nano.a(lib_a-mlock.o)
 .debug_abbrev  0x0000000000009415      0x1e5 /usr/lib/gcc/arm-none-eabi/9.2.1/../../../arm-none-eabi/lib/thumb/v8-m.main/nofp/libg_nano.a(lib_a-nano-msizer.o)
 .debug_abbrev  0x00000000000095fa      0x1e7 /usr/lib/gcc/arm-none-eabi/9.2.1/../../../arm-none-eabi/lib/thumb/v8-m.main/nofp/libg_nano.a(lib_a-readr.o)
 .debug_abbrev  0x00000000000097e1      0x268 /usr/lib/gcc/arm-none-eabi/9.2.1/../../../arm-none-eabi/lib/thumb/v8-m.main/nofp/libg_nano.a(lib_a-reent.o)
 .debug_abbrev  0x0000000000009a49      0x1ea /usr/lib/gcc/arm-none-eabi/9.2.1/../../../arm-none-eabi/lib/thumb/v8-m.main/nofp/libnosys.a(close.o)
 .debug_abbrev  0x0000000000009c33      0x1fd /usr/lib/gcc/arm-none-eabi/9.2.1/../../../arm-none-eabi/lib/thumb/v8-m.main/nofp/libnosys.a(fstat.o)
 .debug_abbrev  0x0000000000009e30      0x1d6 /usr/lib/gcc/arm-none-eabi/9.2.1/../../../arm-none-eabi/lib/thumb/v8-m.main/nofp/libnosys.a(getpid.o)
 .debug_abbrev  0x000000000000a006      0x1ea /usr/lib/gcc/arm-none-eabi/9.2.1/../../../arm-none-eabi/lib/thumb/v8-m.main/nofp/libnosys.a(isatty.o)
 .debug_abbrev  0x000000000000a1f0      0x1fb /usr/lib/gcc/arm-none-eabi/9.2.1/../../../arm-none-eabi/lib/thumb/v8-m.main/nofp/libnosys.a(kill.o)
 .debug_abbrev  0x000000000000a3eb      0x20f /usr/lib/gcc/arm-none-eabi/9.2.1/../../../arm-none-eabi/lib/thumb/v8-m.main/nofp/libnosys.a(lseek.o)
 .debug_abbrev  0x000000000000a5fa      0x20f /usr/lib/gcc/arm-none-eabi/9.2.1/../../../arm-none-eabi/lib/thumb/v8-m.main/nofp/libnosys.a(read.o)
 .debug_abbrev  0x000000000000a809       0xa2 /usr/lib/gcc/arm-none-eabi/9.2.1/../../../arm-none-eabi/lib/thumb/v8-m.main/nofp/libnosys.a(sbrk.o)
 .debug_abbrev  0x000000000000a8ab       0x6a /usr/lib/gcc/arm-none-eabi/9.2.1/../../../arm-none-eabi/lib/thumb/v8-m.main/nofp/libnosys.a(_exit.o)

.debug_aranges  0x0000000000000000     0x17c8
 .debug_aranges
                0x0000000000000000       0x20 /usr/lib/gcc/arm-none-eabi/9.2.1/../../../arm-none-eabi/lib/thumb/v8-m.main/nofp/crt0.o
 .debug_aranges
                0x0000000000000020       0x40 CMakeFiles/tfm_ns.dir/main_ns.o
 .debug_aranges
                0x0000000000000060      0x3b8 CMakeFiles/tfm_ns.dir/__/__/__/platform/ext/target/stm/common/stm32l5xx/Device/Source/startup_stm32l5xx_ns.o
 .debug_aranges
                0x0000000000000418       0x28 CMakeFiles/tfm_ns.dir/__/ns_interface/ns_client_ext/tz_shim_layer.o
 .debug_aranges
                0x0000000000000440       0x28 CMakeFiles/tfm_ns.dir/__/CMSIS/RTOS2/RTX/Config/RTX_Config.o
 .debug_aranges
                0x0000000000000468       0x20 CMakeFiles/tfm_ns.dir/__/CMSIS/RTOS2/RTX/Source/rtx_lib.o
 .debug_aranges
                0x0000000000000488       0xb0 CMakeFiles/tfm_ns.dir/os_wrapper_cmsis_rtos_v2.o
 .debug_aranges
                0x0000000000000538       0x40 CMakeFiles/tfm_ns.dir/__/log/tfm_log_raw.o
 .debug_aranges
                0x0000000000000578       0x38 ../../platform/ns/libplatform_ns.a(uart_stdout.o)
 .debug_aranges
                0x00000000000005b0       0x28 ../../platform/ns/libplatform_ns.a(system_stm32l5xx.o)
 .debug_aranges
                0x00000000000005d8       0x80 ../../platform/ns/libplatform_ns.a(low_level_com.o)
 .debug_aranges
                0x0000000000000658      0x1a0 ../../platform/ns/libplatform_ns.a(stm32l5xx_hal_pwr_ex.o)
 .debug_aranges
                0x00000000000007f8       0x58 ../../platform/ns/libplatform_ns.a(stm32l5xx_hal_gpio.o)
 .debug_aranges
                0x0000000000000850      0x1f0 ../../platform/ns/libplatform_ns.a(stm32l5xx_hal_uart.o)
 .debug_aranges
                0x0000000000000a40      0x128 ../../platform/ns/libplatform_ns.a(stm32l5xx_hal.o)
 .debug_aranges
                0x0000000000000b68       0x98 ../../platform/ns/libplatform_ns.a(stm32l5xx_hal_rcc.o)
 .debug_aranges
                0x0000000000000c00       0x20 libtfm_test_app.a(test_app.o)
 .debug_aranges
                0x0000000000000c20       0x20 ../../lib/ext/tfm_test_repo-src/CMSIS/RTOS2/RTX/Library/GCC/libRTX_V8MMN.a(irq_armv8mml.o)
 .debug_aranges
                0x0000000000000c40       0x30 ../../lib/ext/tfm_test_repo-src/CMSIS/RTOS2/RTX/Library/GCC/libRTX_V8MMN.a(rtx_system.o)
 .debug_aranges
                0x0000000000000c70       0xc8 ../../lib/ext/tfm_test_repo-src/CMSIS/RTOS2/RTX/Library/GCC/libRTX_V8MMN.a(rtx_mempool.o)
 .debug_aranges
                0x0000000000000d38       0x30 ../../lib/ext/tfm_test_repo-src/CMSIS/RTOS2/RTX/Library/GCC/libRTX_V8MMN.a(rtx_memory.o)
 .debug_aranges
                0x0000000000000d68       0x80 ../../lib/ext/tfm_test_repo-src/CMSIS/RTOS2/RTX/Library/GCC/libRTX_V8MMN.a(rtx_mutex.o)
 .debug_aranges
                0x0000000000000de8      0x1e0 ../../lib/ext/tfm_test_repo-src/CMSIS/RTOS2/RTX/Library/GCC/libRTX_V8MMN.a(rtx_thread.o)
 .debug_aranges
                0x0000000000000fc8       0xf0 ../../lib/ext/tfm_test_repo-src/CMSIS/RTOS2/RTX/Library/GCC/libRTX_V8MMN.a(rtx_kernel.o)
 .debug_aranges
                0x00000000000010b8       0x60 ../../lib/ext/tfm_test_repo-src/CMSIS/RTOS2/RTX/Library/GCC/libRTX_V8MMN.a(os_systick.o)
 .debug_aranges
                0x0000000000001118       0x30 libtfm_api_ns.a(tfm_psa_ns_api.o)
 .debug_aranges
                0x0000000000001148       0x28 libtfm_api_ns.a(tfm_ns_interface.o)
 .debug_aranges
                0x0000000000001170       0x20 /usr/lib/gcc/arm-none-eabi/9.2.1/thumb/v8-m.main/nofp/libgcc.a(_aeabi_uldivmod.o)
 .debug_aranges
                0x0000000000001190       0x20 /usr/lib/gcc/arm-none-eabi/9.2.1/thumb/v8-m.main/nofp/libgcc.a(_udivmoddi4.o)
 .debug_aranges
                0x00000000000011b0       0x20 /usr/lib/gcc/arm-none-eabi/9.2.1/thumb/v8-m.main/nofp/libgcc.a(_dvmd_tls.o)
 .debug_aranges
                0x00000000000011d0       0x20 /usr/lib/gcc/arm-none-eabi/9.2.1/../../../arm-none-eabi/lib/thumb/v8-m.main/nofp/libg_nano.a(lib_a-assert.o)
 .debug_aranges
                0x00000000000011f0       0x20 /usr/lib/gcc/arm-none-eabi/9.2.1/../../../arm-none-eabi/lib/thumb/v8-m.main/nofp/libg_nano.a(lib_a-atexit.o)
 .debug_aranges
                0x0000000000001210       0x20 /usr/lib/gcc/arm-none-eabi/9.2.1/../../../arm-none-eabi/lib/thumb/v8-m.main/nofp/libg_nano.a(lib_a-exit.o)
 .debug_aranges
                0x0000000000001230       0x20 /usr/lib/gcc/arm-none-eabi/9.2.1/../../../arm-none-eabi/lib/thumb/v8-m.main/nofp/libg_nano.a(lib_a-fini.o)
 .debug_aranges
                0x0000000000001250       0x20 /usr/lib/gcc/arm-none-eabi/9.2.1/../../../arm-none-eabi/lib/thumb/v8-m.main/nofp/libg_nano.a(lib_a-fprintf.o)
 .debug_aranges
                0x0000000000001270       0x18 /usr/lib/gcc/arm-none-eabi/9.2.1/../../../arm-none-eabi/lib/thumb/v8-m.main/nofp/libg_nano.a(lib_a-impure.o)
 .debug_aranges
                0x0000000000001288       0x20 /usr/lib/gcc/arm-none-eabi/9.2.1/../../../arm-none-eabi/lib/thumb/v8-m.main/nofp/libg_nano.a(lib_a-init.o)
 .debug_aranges
                0x00000000000012a8       0x20 /usr/lib/gcc/arm-none-eabi/9.2.1/../../../arm-none-eabi/lib/thumb/v8-m.main/nofp/libg_nano.a(lib_a-memcpy.o)
 .debug_aranges
                0x00000000000012c8       0x20 /usr/lib/gcc/arm-none-eabi/9.2.1/../../../arm-none-eabi/lib/thumb/v8-m.main/nofp/libg_nano.a(lib_a-memset.o)
 .debug_aranges
                0x00000000000012e8       0x20 /usr/lib/gcc/arm-none-eabi/9.2.1/../../../arm-none-eabi/lib/thumb/v8-m.main/nofp/libg_nano.a(lib_a-nano-vfprintf.o)
 .debug_aranges
                0x0000000000001308       0x20 /usr/lib/gcc/arm-none-eabi/9.2.1/../../../arm-none-eabi/lib/thumb/v8-m.main/nofp/libg_nano.a(lib_a-nano-vfprintf_i.o)
 .debug_aranges
                0x0000000000001328       0x20 /usr/lib/gcc/arm-none-eabi/9.2.1/../../../arm-none-eabi/lib/thumb/v8-m.main/nofp/libg_nano.a(lib_a-wbuf.o)
 .debug_aranges
                0x0000000000001348       0x20 /usr/lib/gcc/arm-none-eabi/9.2.1/../../../arm-none-eabi/lib/thumb/v8-m.main/nofp/libg_nano.a(lib_a-wsetup.o)
 .debug_aranges
                0x0000000000001368       0x20 /usr/lib/gcc/arm-none-eabi/9.2.1/../../../arm-none-eabi/lib/thumb/v8-m.main/nofp/libg_nano.a(lib_a-__atexit.o)
 .debug_aranges
                0x0000000000001388       0x20 /usr/lib/gcc/arm-none-eabi/9.2.1/../../../arm-none-eabi/lib/thumb/v8-m.main/nofp/libg_nano.a(lib_a-__call_atexit.o)
 .debug_aranges
                0x00000000000013a8       0x20 /usr/lib/gcc/arm-none-eabi/9.2.1/../../../arm-none-eabi/lib/thumb/v8-m.main/nofp/libg_nano.a(lib_a-abort.o)
 .debug_aranges
                0x00000000000013c8       0x20 /usr/lib/gcc/arm-none-eabi/9.2.1/../../../arm-none-eabi/lib/thumb/v8-m.main/nofp/libg_nano.a(lib_a-fflush.o)
 .debug_aranges
                0x00000000000013e8       0x20 /usr/lib/gcc/arm-none-eabi/9.2.1/../../../arm-none-eabi/lib/thumb/v8-m.main/nofp/libg_nano.a(lib_a-findfp.o)
 .debug_aranges
                0x0000000000001408       0x20 /usr/lib/gcc/arm-none-eabi/9.2.1/../../../arm-none-eabi/lib/thumb/v8-m.main/nofp/libg_nano.a(lib_a-fvwrite.o)
 .debug_aranges
                0x0000000000001428       0x20 /usr/lib/gcc/arm-none-eabi/9.2.1/../../../arm-none-eabi/lib/thumb/v8-m.main/nofp/libg_nano.a(lib_a-fwalk.o)
 .debug_aranges
                0x0000000000001448       0x20 /usr/lib/gcc/arm-none-eabi/9.2.1/../../../arm-none-eabi/lib/thumb/v8-m.main/nofp/libg_nano.a(lib_a-makebuf.o)
 .debug_aranges
                0x0000000000001468       0x20 /usr/lib/gcc/arm-none-eabi/9.2.1/../../../arm-none-eabi/lib/thumb/v8-m.main/nofp/libg_nano.a(lib_a-memchr-stub.o)
 .debug_aranges
                0x0000000000001488       0x20 /usr/lib/gcc/arm-none-eabi/9.2.1/../../../arm-none-eabi/lib/thumb/v8-m.main/nofp/libg_nano.a(lib_a-memmove.o)
 .debug_aranges
                0x00000000000014a8       0x20 /usr/lib/gcc/arm-none-eabi/9.2.1/../../../arm-none-eabi/lib/thumb/v8-m.main/nofp/libg_nano.a(lib_a-nano-freer.o)
 .debug_aranges
                0x00000000000014c8       0x20 /usr/lib/gcc/arm-none-eabi/9.2.1/../../../arm-none-eabi/lib/thumb/v8-m.main/nofp/libg_nano.a(lib_a-nano-mallocr.o)
 .debug_aranges
                0x00000000000014e8       0x20 /usr/lib/gcc/arm-none-eabi/9.2.1/../../../arm-none-eabi/lib/thumb/v8-m.main/nofp/libg_nano.a(lib_a-nano-reallocr.o)
 .debug_aranges
                0x0000000000001508       0x20 /usr/lib/gcc/arm-none-eabi/9.2.1/../../../arm-none-eabi/lib/thumb/v8-m.main/nofp/libg_nano.a(lib_a-sbrkr.o)
 .debug_aranges
                0x0000000000001528       0x20 /usr/lib/gcc/arm-none-eabi/9.2.1/../../../arm-none-eabi/lib/thumb/v8-m.main/nofp/libg_nano.a(lib_a-signal.o)
 .debug_aranges
                0x0000000000001548       0x20 /usr/lib/gcc/arm-none-eabi/9.2.1/../../../arm-none-eabi/lib/thumb/v8-m.main/nofp/libg_nano.a(lib_a-signalr.o)
 .debug_aranges
                0x0000000000001568       0x20 /usr/lib/gcc/arm-none-eabi/9.2.1/../../../arm-none-eabi/lib/thumb/v8-m.main/nofp/libg_nano.a(lib_a-stdio.o)
 .debug_aranges
                0x0000000000001588       0x20 /usr/lib/gcc/arm-none-eabi/9.2.1/../../../arm-none-eabi/lib/thumb/v8-m.main/nofp/libg_nano.a(lib_a-writer.o)
 .debug_aranges
                0x00000000000015a8       0x20 /usr/lib/gcc/arm-none-eabi/9.2.1/../../../arm-none-eabi/lib/thumb/v8-m.main/nofp/libg_nano.a(lib_a-closer.o)
 .debug_aranges
                0x00000000000015c8       0x20 /usr/lib/gcc/arm-none-eabi/9.2.1/../../../arm-none-eabi/lib/thumb/v8-m.main/nofp/libg_nano.a(lib_a-fstatr.o)
 .debug_aranges
                0x00000000000015e8       0x20 /usr/lib/gcc/arm-none-eabi/9.2.1/../../../arm-none-eabi/lib/thumb/v8-m.main/nofp/libg_nano.a(lib_a-isattyr.o)
 .debug_aranges
                0x0000000000001608       0x20 /usr/lib/gcc/arm-none-eabi/9.2.1/../../../arm-none-eabi/lib/thumb/v8-m.main/nofp/libg_nano.a(lib_a-lseekr.o)
 .debug_aranges
                0x0000000000001628       0x20 /usr/lib/gcc/arm-none-eabi/9.2.1/../../../arm-none-eabi/lib/thumb/v8-m.main/nofp/libg_nano.a(lib_a-mlock.o)
 .debug_aranges
                0x0000000000001648       0x20 /usr/lib/gcc/arm-none-eabi/9.2.1/../../../arm-none-eabi/lib/thumb/v8-m.main/nofp/libg_nano.a(lib_a-nano-msizer.o)
 .debug_aranges
                0x0000000000001668       0x20 /usr/lib/gcc/arm-none-eabi/9.2.1/../../../arm-none-eabi/lib/thumb/v8-m.main/nofp/libg_nano.a(lib_a-readr.o)
 .debug_aranges
                0x0000000000001688       0x20 /usr/lib/gcc/arm-none-eabi/9.2.1/../../../arm-none-eabi/lib/thumb/v8-m.main/nofp/libg_nano.a(lib_a-reent.o)
 .debug_aranges
                0x00000000000016a8       0x20 /usr/lib/gcc/arm-none-eabi/9.2.1/../../../arm-none-eabi/lib/thumb/v8-m.main/nofp/libnosys.a(close.o)
 .debug_aranges
                0x00000000000016c8       0x20 /usr/lib/gcc/arm-none-eabi/9.2.1/../../../arm-none-eabi/lib/thumb/v8-m.main/nofp/libnosys.a(fstat.o)
 .debug_aranges
                0x00000000000016e8       0x20 /usr/lib/gcc/arm-none-eabi/9.2.1/../../../arm-none-eabi/lib/thumb/v8-m.main/nofp/libnosys.a(getpid.o)
 .debug_aranges
                0x0000000000001708       0x20 /usr/lib/gcc/arm-none-eabi/9.2.1/../../../arm-none-eabi/lib/thumb/v8-m.main/nofp/libnosys.a(isatty.o)
 .debug_aranges
                0x0000000000001728       0x20 /usr/lib/gcc/arm-none-eabi/9.2.1/../../../arm-none-eabi/lib/thumb/v8-m.main/nofp/libnosys.a(kill.o)
 .debug_aranges
                0x0000000000001748       0x20 /usr/lib/gcc/arm-none-eabi/9.2.1/../../../arm-none-eabi/lib/thumb/v8-m.main/nofp/libnosys.a(lseek.o)
 .debug_aranges
                0x0000000000001768       0x20 /usr/lib/gcc/arm-none-eabi/9.2.1/../../../arm-none-eabi/lib/thumb/v8-m.main/nofp/libnosys.a(read.o)
 .debug_aranges
                0x0000000000001788       0x20 /usr/lib/gcc/arm-none-eabi/9.2.1/../../../arm-none-eabi/lib/thumb/v8-m.main/nofp/libnosys.a(sbrk.o)
 .debug_aranges
                0x00000000000017a8       0x20 /usr/lib/gcc/arm-none-eabi/9.2.1/../../../arm-none-eabi/lib/thumb/v8-m.main/nofp/libnosys.a(_exit.o)

.debug_str      0x0000000000000000     0x9836
 .debug_str     0x0000000000000000       0x99 /usr/lib/gcc/arm-none-eabi/9.2.1/../../../arm-none-eabi/lib/thumb/v8-m.main/nofp/crt0.o
 .debug_str     0x0000000000000099      0x717 CMakeFiles/tfm_ns.dir/main_ns.o
                                        0x7ac (size before relaxing)
 .debug_str     0x00000000000007b0      0xa04 CMakeFiles/tfm_ns.dir/__/__/__/platform/ext/target/stm/common/stm32l5xx/Device/Source/startup_stm32l5xx_ns.o
                                        0xc1f (size before relaxing)
 .debug_str     0x00000000000011b4       0xe5 CMakeFiles/tfm_ns.dir/__/ns_interface/ns_client_ext/tz_shim_layer.o
                                        0x2ac (size before relaxing)
 .debug_str     0x0000000000001299      0x545 CMakeFiles/tfm_ns.dir/__/CMSIS/RTOS2/RTX/Config/RTX_Config.o
                                        0xc34 (size before relaxing)
 .debug_str     0x00000000000017de      0x2af CMakeFiles/tfm_ns.dir/__/CMSIS/RTOS2/RTX/Source/rtx_lib.o
                                        0xe56 (size before relaxing)
 .debug_str     0x0000000000001a8d      0x4d6 CMakeFiles/tfm_ns.dir/os_wrapper_cmsis_rtos_v2.o
                                        0xb50 (size before relaxing)
 .debug_str     0x0000000000001f63      0x143 CMakeFiles/tfm_ns.dir/__/log/tfm_log_raw.o
                                        0x338 (size before relaxing)
 .debug_str     0x00000000000020a6      0x65c ../../platform/ns/libplatform_ns.a(uart_stdout.o)
                                        0x9e7 (size before relaxing)
 .debug_str     0x0000000000002702      0x268 ../../platform/ns/libplatform_ns.a(system_stm32l5xx.o)
                                        0x484 (size before relaxing)
 .debug_str     0x000000000000296a      0x87a ../../platform/ns/libplatform_ns.a(low_level_com.o)
                                       0x103a (size before relaxing)
 .debug_str     0x00000000000031e4      0x8f9 ../../platform/ns/libplatform_ns.a(stm32l5xx_hal_pwr_ex.o)
                                        0xcde (size before relaxing)
 .debug_str     0x0000000000003add      0x16c ../../platform/ns/libplatform_ns.a(stm32l5xx_hal_gpio.o)
                                        0x612 (size before relaxing)
 .debug_str     0x0000000000003c49      0x928 ../../platform/ns/libplatform_ns.a(stm32l5xx_hal_uart.o)
                                       0x13bb (size before relaxing)
 .debug_str     0x0000000000004571      0xa27 ../../platform/ns/libplatform_ns.a(stm32l5xx_hal.o)
                                        0xfcf (size before relaxing)
 .debug_str     0x0000000000004f98      0x491 ../../platform/ns/libplatform_ns.a(stm32l5xx_hal_rcc.o)
                                        0xb82 (size before relaxing)
 .debug_str     0x0000000000005429       0x5b libtfm_test_app.a(test_app.o)
                                        0x198 (size before relaxing)
 .debug_str     0x0000000000005484       0x6e ../../lib/ext/tfm_test_repo-src/CMSIS/RTOS2/RTX/Library/GCC/libRTX_V8MMN.a(irq_armv8mml.o)
 .debug_str     0x00000000000054f2      0x348 ../../lib/ext/tfm_test_repo-src/CMSIS/RTOS2/RTX/Library/GCC/libRTX_V8MMN.a(rtx_system.o)
                                       0x12ca (size before relaxing)
 .debug_str     0x000000000000583a      0x516 ../../lib/ext/tfm_test_repo-src/CMSIS/RTOS2/RTX/Library/GCC/libRTX_V8MMN.a(rtx_mempool.o)
                                       0x159d (size before relaxing)
 .debug_str     0x0000000000005d50       0x83 ../../lib/ext/tfm_test_repo-src/CMSIS/RTOS2/RTX/Library/GCC/libRTX_V8MMN.a(rtx_memory.o)
                                       0x104a (size before relaxing)
 .debug_str     0x0000000000005dd3      0x171 ../../lib/ext/tfm_test_repo-src/CMSIS/RTOS2/RTX/Library/GCC/libRTX_V8MMN.a(rtx_mutex.o)
                                       0x1370 (size before relaxing)
 .debug_str     0x0000000000005f44      0x68a ../../lib/ext/tfm_test_repo-src/CMSIS/RTOS2/RTX/Library/GCC/libRTX_V8MMN.a(rtx_thread.o)
                                       0x1a88 (size before relaxing)
 .debug_str     0x00000000000065ce      0x48f ../../lib/ext/tfm_test_repo-src/CMSIS/RTOS2/RTX/Library/GCC/libRTX_V8MMN.a(rtx_kernel.o)
                                       0x1785 (size before relaxing)
 .debug_str     0x0000000000006a5d       0xdc ../../lib/ext/tfm_test_repo-src/CMSIS/RTOS2/RTX/Library/GCC/libRTX_V8MMN.a(os_systick.o)
                                        0x507 (size before relaxing)
 .debug_str     0x0000000000006b39       0xa6 libtfm_api_ns.a(tfm_psa_ns_api.o)
                                        0x2b0 (size before relaxing)
 .debug_str     0x0000000000006bdf       0x7d libtfm_api_ns.a(tfm_ns_interface.o)
                                        0x297 (size before relaxing)
 .debug_str     0x0000000000006c5c       0x98 /usr/lib/gcc/arm-none-eabi/9.2.1/thumb/v8-m.main/nofp/libgcc.a(_aeabi_uldivmod.o)
                                         0xa4 (size before relaxing)
 .debug_str     0x0000000000006cf4     0x10d8 /usr/lib/gcc/arm-none-eabi/9.2.1/thumb/v8-m.main/nofp/libgcc.a(_udivmoddi4.o)
                                       0x11e8 (size before relaxing)
 .debug_str     0x0000000000007dcc       0x30 /usr/lib/gcc/arm-none-eabi/9.2.1/thumb/v8-m.main/nofp/libgcc.a(_dvmd_tls.o)
                                         0xa8 (size before relaxing)
 .debug_str     0x0000000000007dfc      0x15b /usr/lib/gcc/arm-none-eabi/9.2.1/../../../arm-none-eabi/lib/thumb/v8-m.main/nofp/libg_nano.a(lib_a-assert.o)
                                        0x624 (size before relaxing)
 .debug_str     0x0000000000007f57       0x78 /usr/lib/gcc/arm-none-eabi/9.2.1/../../../arm-none-eabi/lib/thumb/v8-m.main/nofp/libg_nano.a(lib_a-atexit.o)
                                        0x62f (size before relaxing)
 .debug_str     0x0000000000007fcf       0x69 /usr/lib/gcc/arm-none-eabi/9.2.1/../../../arm-none-eabi/lib/thumb/v8-m.main/nofp/libg_nano.a(lib_a-exit.o)
                                        0x630 (size before relaxing)
 .debug_str     0x0000000000008038       0xcd /usr/lib/gcc/arm-none-eabi/9.2.1/../../../arm-none-eabi/lib/thumb/v8-m.main/nofp/libg_nano.a(lib_a-fini.o)
                                        0x201 (size before relaxing)
 .debug_str     0x0000000000008105       0xad /usr/lib/gcc/arm-none-eabi/9.2.1/../../../arm-none-eabi/lib/thumb/v8-m.main/nofp/libg_nano.a(lib_a-fprintf.o)
                                        0x623 (size before relaxing)
 .debug_str     0x00000000000081b2       0xa1 /usr/lib/gcc/arm-none-eabi/9.2.1/../../../arm-none-eabi/lib/thumb/v8-m.main/nofp/libg_nano.a(lib_a-impure.o)
                                        0x5e4 (size before relaxing)
 .debug_str     0x0000000000008253       0x90 /usr/lib/gcc/arm-none-eabi/9.2.1/../../../arm-none-eabi/lib/thumb/v8-m.main/nofp/libg_nano.a(lib_a-init.o)
                                        0x22b (size before relaxing)
 .debug_str     0x00000000000082e3       0xab /usr/lib/gcc/arm-none-eabi/9.2.1/../../../arm-none-eabi/lib/thumb/v8-m.main/nofp/libg_nano.a(lib_a-memcpy.o)
                                         0xb7 (size before relaxing)
 .debug_str     0x000000000000838e      0x30f /usr/lib/gcc/arm-none-eabi/9.2.1/../../../arm-none-eabi/lib/thumb/v8-m.main/nofp/libg_nano.a(lib_a-memset.o)
                                        0x911 (size before relaxing)
 .debug_str     0x000000000000869d      0x2c7 /usr/lib/gcc/arm-none-eabi/9.2.1/../../../arm-none-eabi/lib/thumb/v8-m.main/nofp/libg_nano.a(lib_a-nano-vfprintf.o)
                                        0xc30 (size before relaxing)
 .debug_str     0x0000000000008964       0x8d /usr/lib/gcc/arm-none-eabi/9.2.1/../../../arm-none-eabi/lib/thumb/v8-m.main/nofp/libg_nano.a(lib_a-nano-vfprintf_i.o)
                                        0xbae (size before relaxing)
 .debug_str     0x00000000000089f1       0x43 /usr/lib/gcc/arm-none-eabi/9.2.1/../../../arm-none-eabi/lib/thumb/v8-m.main/nofp/libg_nano.a(lib_a-wbuf.o)
                                        0x76d (size before relaxing)
 .debug_str     0x0000000000008a34       0x48 /usr/lib/gcc/arm-none-eabi/9.2.1/../../../arm-none-eabi/lib/thumb/v8-m.main/nofp/libg_nano.a(lib_a-wsetup.o)
                                        0x768 (size before relaxing)
 .debug_str     0x0000000000008a7c       0x7d /usr/lib/gcc/arm-none-eabi/9.2.1/../../../arm-none-eabi/lib/thumb/v8-m.main/nofp/libg_nano.a(lib_a-__atexit.o)
                                        0x682 (size before relaxing)
 .debug_str     0x0000000000008af9       0x49 /usr/lib/gcc/arm-none-eabi/9.2.1/../../../arm-none-eabi/lib/thumb/v8-m.main/nofp/libg_nano.a(lib_a-__call_atexit.o)
                                        0x62d (size before relaxing)
 .debug_str     0x0000000000008b42       0x39 /usr/lib/gcc/arm-none-eabi/9.2.1/../../../arm-none-eabi/lib/thumb/v8-m.main/nofp/libg_nano.a(lib_a-abort.o)
                                        0x622 (size before relaxing)
 .debug_str     0x0000000000008b7b       0x63 /usr/lib/gcc/arm-none-eabi/9.2.1/../../../arm-none-eabi/lib/thumb/v8-m.main/nofp/libg_nano.a(lib_a-fflush.o)
                                        0x796 (size before relaxing)
 .debug_str     0x0000000000008bde      0x175 /usr/lib/gcc/arm-none-eabi/9.2.1/../../../arm-none-eabi/lib/thumb/v8-m.main/nofp/libg_nano.a(lib_a-findfp.o)
                                        0x8a6 (size before relaxing)
 .debug_str     0x0000000000008d53       0x65 /usr/lib/gcc/arm-none-eabi/9.2.1/../../../arm-none-eabi/lib/thumb/v8-m.main/nofp/libg_nano.a(lib_a-fvwrite.o)
                                        0x7e7 (size before relaxing)
 .debug_str     0x0000000000008db8       0x41 /usr/lib/gcc/arm-none-eabi/9.2.1/../../../arm-none-eabi/lib/thumb/v8-m.main/nofp/libg_nano.a(lib_a-fwalk.o)
                                        0x75a (size before relaxing)
 .debug_str     0x0000000000008df9      0x161 /usr/lib/gcc/arm-none-eabi/9.2.1/../../../arm-none-eabi/lib/thumb/v8-m.main/nofp/libg_nano.a(lib_a-makebuf.o)
                                        0x8db (size before relaxing)
 .debug_str     0x0000000000008f5a       0x5b /usr/lib/gcc/arm-none-eabi/9.2.1/../../../arm-none-eabi/lib/thumb/v8-m.main/nofp/libg_nano.a(lib_a-memchr-stub.o)
                                        0x614 (size before relaxing)
 .debug_str     0x0000000000008fb5       0x56 /usr/lib/gcc/arm-none-eabi/9.2.1/../../../arm-none-eabi/lib/thumb/v8-m.main/nofp/libg_nano.a(lib_a-memmove.o)
                                        0x930 (size before relaxing)
 .debug_str     0x000000000000900b      0x120 /usr/lib/gcc/arm-none-eabi/9.2.1/../../../arm-none-eabi/lib/thumb/v8-m.main/nofp/libg_nano.a(lib_a-nano-freer.o)
                                        0x714 (size before relaxing)
 .debug_str     0x000000000000912b       0x32 /usr/lib/gcc/arm-none-eabi/9.2.1/../../../arm-none-eabi/lib/thumb/v8-m.main/nofp/libg_nano.a(lib_a-nano-mallocr.o)
                                        0x72b (size before relaxing)
 .debug_str     0x000000000000915d       0x23 /usr/lib/gcc/arm-none-eabi/9.2.1/../../../arm-none-eabi/lib/thumb/v8-m.main/nofp/libg_nano.a(lib_a-nano-reallocr.o)
                                        0x711 (size before relaxing)
 .debug_str     0x0000000000009180       0x47 /usr/lib/gcc/arm-none-eabi/9.2.1/../../../arm-none-eabi/lib/thumb/v8-m.main/nofp/libg_nano.a(lib_a-sbrkr.o)
                                        0x627 (size before relaxing)
 .debug_str     0x00000000000091c7       0xfd /usr/lib/gcc/arm-none-eabi/9.2.1/../../../arm-none-eabi/lib/thumb/v8-m.main/nofp/libg_nano.a(lib_a-signal.o)
                                        0x687 (size before relaxing)
 .debug_str     0x00000000000092c4       0x42 /usr/lib/gcc/arm-none-eabi/9.2.1/../../../arm-none-eabi/lib/thumb/v8-m.main/nofp/libg_nano.a(lib_a-signalr.o)
                                        0x62c (size before relaxing)
 .debug_str     0x0000000000009306       0x92 /usr/lib/gcc/arm-none-eabi/9.2.1/../../../arm-none-eabi/lib/thumb/v8-m.main/nofp/libg_nano.a(lib_a-stdio.o)
                                        0x7ae (size before relaxing)
 .debug_str     0x0000000000009398       0x33 /usr/lib/gcc/arm-none-eabi/9.2.1/../../../arm-none-eabi/lib/thumb/v8-m.main/nofp/libg_nano.a(lib_a-writer.o)
                                        0x624 (size before relaxing)
 .debug_str     0x00000000000093cb       0x33 /usr/lib/gcc/arm-none-eabi/9.2.1/../../../arm-none-eabi/lib/thumb/v8-m.main/nofp/libg_nano.a(lib_a-closer.o)
                                        0x614 (size before relaxing)
 .debug_str     0x00000000000093fe       0x40 /usr/lib/gcc/arm-none-eabi/9.2.1/../../../arm-none-eabi/lib/thumb/v8-m.main/nofp/libg_nano.a(lib_a-fstatr.o)
                                        0x782 (size before relaxing)
 .debug_str     0x000000000000943e       0x3c /usr/lib/gcc/arm-none-eabi/9.2.1/../../../arm-none-eabi/lib/thumb/v8-m.main/nofp/libg_nano.a(lib_a-isattyr.o)
                                        0x61e (size before relaxing)
 .debug_str     0x000000000000947a       0x3a /usr/lib/gcc/arm-none-eabi/9.2.1/../../../arm-none-eabi/lib/thumb/v8-m.main/nofp/libg_nano.a(lib_a-lseekr.o)
                                        0x622 (size before relaxing)
 .debug_str     0x00000000000094b4       0x4c /usr/lib/gcc/arm-none-eabi/9.2.1/../../../arm-none-eabi/lib/thumb/v8-m.main/nofp/libg_nano.a(lib_a-mlock.o)
                                        0x610 (size before relaxing)
 .debug_str     0x0000000000009500        0xf /usr/lib/gcc/arm-none-eabi/9.2.1/../../../arm-none-eabi/lib/thumb/v8-m.main/nofp/libg_nano.a(lib_a-nano-msizer.o)
                                        0x6ef (size before relaxing)
 .debug_str     0x000000000000950f       0x32 /usr/lib/gcc/arm-none-eabi/9.2.1/../../../arm-none-eabi/lib/thumb/v8-m.main/nofp/libg_nano.a(lib_a-readr.o)
                                        0x622 (size before relaxing)
 .debug_str     0x0000000000009541       0x5e /usr/lib/gcc/arm-none-eabi/9.2.1/../../../arm-none-eabi/lib/thumb/v8-m.main/nofp/libg_nano.a(lib_a-reent.o)
                                        0x620 (size before relaxing)
 .debug_str     0x000000000000959f      0x112 /usr/lib/gcc/arm-none-eabi/9.2.1/../../../arm-none-eabi/lib/thumb/v8-m.main/nofp/libnosys.a(close.o)
                                        0x5a3 (size before relaxing)
 .debug_str     0x00000000000096b1       0x2f /usr/lib/gcc/arm-none-eabi/9.2.1/../../../arm-none-eabi/lib/thumb/v8-m.main/nofp/libnosys.a(fstat.o)
                                        0x70b (size before relaxing)
 .debug_str     0x00000000000096e0       0x30 /usr/lib/gcc/arm-none-eabi/9.2.1/../../../arm-none-eabi/lib/thumb/v8-m.main/nofp/libnosys.a(getpid.o)
                                        0x5a5 (size before relaxing)
 .debug_str     0x0000000000009710       0x30 /usr/lib/gcc/arm-none-eabi/9.2.1/../../../arm-none-eabi/lib/thumb/v8-m.main/nofp/libnosys.a(isatty.o)
                                        0x5aa (size before relaxing)
 .debug_str     0x0000000000009740       0x2e /usr/lib/gcc/arm-none-eabi/9.2.1/../../../arm-none-eabi/lib/thumb/v8-m.main/nofp/libnosys.a(kill.o)
                                        0x5a1 (size before relaxing)
 .debug_str     0x000000000000976e       0x2f /usr/lib/gcc/arm-none-eabi/9.2.1/../../../arm-none-eabi/lib/thumb/v8-m.main/nofp/libnosys.a(lseek.o)
                                        0x5a8 (size before relaxing)
 .debug_str     0x000000000000979d       0x2e /usr/lib/gcc/arm-none-eabi/9.2.1/../../../arm-none-eabi/lib/thumb/v8-m.main/nofp/libnosys.a(read.o)
                                        0x5a0 (size before relaxing)
 .debug_str     0x00000000000097cb       0x3c /usr/lib/gcc/arm-none-eabi/9.2.1/../../../arm-none-eabi/lib/thumb/v8-m.main/nofp/libnosys.a(sbrk.o)
                                        0x131 (size before relaxing)
 .debug_str     0x0000000000009807       0x2f /usr/lib/gcc/arm-none-eabi/9.2.1/../../../arm-none-eabi/lib/thumb/v8-m.main/nofp/libnosys.a(_exit.o)
                                        0x1a1 (size before relaxing)

.debug_loc      0x0000000000000000    0x1467f
 .debug_loc     0x0000000000000000       0x18 CMakeFiles/tfm_ns.dir/main_ns.o
 .debug_loc     0x0000000000000018      0x100 CMakeFiles/tfm_ns.dir/__/__/__/platform/ext/target/stm/common/stm32l5xx/Device/Source/startup_stm32l5xx_ns.o
 .debug_loc     0x0000000000000118       0x25 CMakeFiles/tfm_ns.dir/__/ns_interface/ns_client_ext/tz_shim_layer.o
 .debug_loc     0x000000000000013d       0x3f CMakeFiles/tfm_ns.dir/__/CMSIS/RTOS2/RTX/Config/RTX_Config.o
 .debug_loc     0x000000000000017c      0x5e8 CMakeFiles/tfm_ns.dir/os_wrapper_cmsis_rtos_v2.o
 .debug_loc     0x0000000000000764      0x4a1 CMakeFiles/tfm_ns.dir/__/log/tfm_log_raw.o
 .debug_loc     0x0000000000000c05      0x146 ../../platform/ns/libplatform_ns.a(uart_stdout.o)
 .debug_loc     0x0000000000000d4b       0xf7 ../../platform/ns/libplatform_ns.a(system_stm32l5xx.o)
 .debug_loc     0x0000000000000e42      0x1b2 ../../platform/ns/libplatform_ns.a(low_level_com.o)
 .debug_loc     0x0000000000000ff4      0x877 ../../platform/ns/libplatform_ns.a(stm32l5xx_hal_pwr_ex.o)
 .debug_loc     0x000000000000186b      0x327 ../../platform/ns/libplatform_ns.a(stm32l5xx_hal_gpio.o)
 .debug_loc     0x0000000000001b92     0x218b ../../platform/ns/libplatform_ns.a(stm32l5xx_hal_uart.o)
 .debug_loc     0x0000000000003d1d      0x296 ../../platform/ns/libplatform_ns.a(stm32l5xx_hal.o)
 .debug_loc     0x0000000000003fb3      0xa30 ../../platform/ns/libplatform_ns.a(stm32l5xx_hal_rcc.o)
 .debug_loc     0x00000000000049e3       0x25 libtfm_test_app.a(test_app.o)
 .debug_loc     0x0000000000004a08      0x2cd ../../lib/ext/tfm_test_repo-src/CMSIS/RTOS2/RTX/Library/GCC/libRTX_V8MMN.a(rtx_system.o)
 .debug_loc     0x0000000000004cd5     0x2201 ../../lib/ext/tfm_test_repo-src/CMSIS/RTOS2/RTX/Library/GCC/libRTX_V8MMN.a(rtx_mempool.o)
 .debug_loc     0x0000000000006ed6      0x842 ../../lib/ext/tfm_test_repo-src/CMSIS/RTOS2/RTX/Library/GCC/libRTX_V8MMN.a(rtx_memory.o)
 .debug_loc     0x0000000000007718      0xbc3 ../../lib/ext/tfm_test_repo-src/CMSIS/RTOS2/RTX/Library/GCC/libRTX_V8MMN.a(rtx_mutex.o)
 .debug_loc     0x00000000000082db     0x585e ../../lib/ext/tfm_test_repo-src/CMSIS/RTOS2/RTX/Library/GCC/libRTX_V8MMN.a(rtx_thread.o)
 .debug_loc     0x000000000000db39      0xe75 ../../lib/ext/tfm_test_repo-src/CMSIS/RTOS2/RTX/Library/GCC/libRTX_V8MMN.a(rtx_kernel.o)
 .debug_loc     0x000000000000e9ae       0xd6 ../../lib/ext/tfm_test_repo-src/CMSIS/RTOS2/RTX/Library/GCC/libRTX_V8MMN.a(os_systick.o)
 .debug_loc     0x000000000000ea84      0x1b5 libtfm_api_ns.a(tfm_psa_ns_api.o)
 .debug_loc     0x000000000000ec39      0x10e libtfm_api_ns.a(tfm_ns_interface.o)
 .debug_loc     0x000000000000ed47      0xfa5 /usr/lib/gcc/arm-none-eabi/9.2.1/thumb/v8-m.main/nofp/libgcc.a(_udivmoddi4.o)
 .debug_loc     0x000000000000fcec      0x142 /usr/lib/gcc/arm-none-eabi/9.2.1/../../../arm-none-eabi/lib/thumb/v8-m.main/nofp/libg_nano.a(lib_a-assert.o)
 .debug_loc     0x000000000000fe2e       0x32 /usr/lib/gcc/arm-none-eabi/9.2.1/../../../arm-none-eabi/lib/thumb/v8-m.main/nofp/libg_nano.a(lib_a-atexit.o)
 .debug_loc     0x000000000000fe60       0x22 /usr/lib/gcc/arm-none-eabi/9.2.1/../../../arm-none-eabi/lib/thumb/v8-m.main/nofp/libg_nano.a(lib_a-exit.o)
 .debug_loc     0x000000000000fe82       0x68 /usr/lib/gcc/arm-none-eabi/9.2.1/../../../arm-none-eabi/lib/thumb/v8-m.main/nofp/libg_nano.a(lib_a-fini.o)
 .debug_loc     0x000000000000feea       0xa6 /usr/lib/gcc/arm-none-eabi/9.2.1/../../../arm-none-eabi/lib/thumb/v8-m.main/nofp/libg_nano.a(lib_a-fprintf.o)
 .debug_loc     0x000000000000ff90       0xba /usr/lib/gcc/arm-none-eabi/9.2.1/../../../arm-none-eabi/lib/thumb/v8-m.main/nofp/libg_nano.a(lib_a-init.o)
 .debug_loc     0x000000000001004a      0x231 /usr/lib/gcc/arm-none-eabi/9.2.1/../../../arm-none-eabi/lib/thumb/v8-m.main/nofp/libg_nano.a(lib_a-memset.o)
 .debug_loc     0x000000000001027b      0x763 /usr/lib/gcc/arm-none-eabi/9.2.1/../../../arm-none-eabi/lib/thumb/v8-m.main/nofp/libg_nano.a(lib_a-nano-vfprintf.o)
 .debug_loc     0x00000000000109de      0x716 /usr/lib/gcc/arm-none-eabi/9.2.1/../../../arm-none-eabi/lib/thumb/v8-m.main/nofp/libg_nano.a(lib_a-nano-vfprintf_i.o)
 .debug_loc     0x00000000000110f4      0x193 /usr/lib/gcc/arm-none-eabi/9.2.1/../../../arm-none-eabi/lib/thumb/v8-m.main/nofp/libg_nano.a(lib_a-wbuf.o)
 .debug_loc     0x0000000000011287       0xb7 /usr/lib/gcc/arm-none-eabi/9.2.1/../../../arm-none-eabi/lib/thumb/v8-m.main/nofp/libg_nano.a(lib_a-wsetup.o)
 .debug_loc     0x000000000001133e      0x271 /usr/lib/gcc/arm-none-eabi/9.2.1/../../../arm-none-eabi/lib/thumb/v8-m.main/nofp/libg_nano.a(lib_a-__atexit.o)
 .debug_loc     0x00000000000115af      0x14c /usr/lib/gcc/arm-none-eabi/9.2.1/../../../arm-none-eabi/lib/thumb/v8-m.main/nofp/libg_nano.a(lib_a-__call_atexit.o)
 .debug_loc     0x00000000000116fb      0x3e4 /usr/lib/gcc/arm-none-eabi/9.2.1/../../../arm-none-eabi/lib/thumb/v8-m.main/nofp/libg_nano.a(lib_a-fflush.o)
 .debug_loc     0x0000000000011adf      0x336 /usr/lib/gcc/arm-none-eabi/9.2.1/../../../arm-none-eabi/lib/thumb/v8-m.main/nofp/libg_nano.a(lib_a-findfp.o)
 .debug_loc     0x0000000000011e15      0x6c9 /usr/lib/gcc/arm-none-eabi/9.2.1/../../../arm-none-eabi/lib/thumb/v8-m.main/nofp/libg_nano.a(lib_a-fvwrite.o)
 .debug_loc     0x00000000000124de      0x24f /usr/lib/gcc/arm-none-eabi/9.2.1/../../../arm-none-eabi/lib/thumb/v8-m.main/nofp/libg_nano.a(lib_a-fwalk.o)
 .debug_loc     0x000000000001272d      0x192 /usr/lib/gcc/arm-none-eabi/9.2.1/../../../arm-none-eabi/lib/thumb/v8-m.main/nofp/libg_nano.a(lib_a-makebuf.o)
 .debug_loc     0x00000000000128bf      0x226 /usr/lib/gcc/arm-none-eabi/9.2.1/../../../arm-none-eabi/lib/thumb/v8-m.main/nofp/libg_nano.a(lib_a-memchr-stub.o)
 .debug_loc     0x0000000000012ae5      0x2e4 /usr/lib/gcc/arm-none-eabi/9.2.1/../../../arm-none-eabi/lib/thumb/v8-m.main/nofp/libg_nano.a(lib_a-memmove.o)
 .debug_loc     0x0000000000012dc9      0x211 /usr/lib/gcc/arm-none-eabi/9.2.1/../../../arm-none-eabi/lib/thumb/v8-m.main/nofp/libg_nano.a(lib_a-nano-freer.o)
 .debug_loc     0x0000000000012fda      0x437 /usr/lib/gcc/arm-none-eabi/9.2.1/../../../arm-none-eabi/lib/thumb/v8-m.main/nofp/libg_nano.a(lib_a-nano-mallocr.o)
 .debug_loc     0x0000000000013411      0x133 /usr/lib/gcc/arm-none-eabi/9.2.1/../../../arm-none-eabi/lib/thumb/v8-m.main/nofp/libg_nano.a(lib_a-nano-reallocr.o)
 .debug_loc     0x0000000000013544       0x6c /usr/lib/gcc/arm-none-eabi/9.2.1/../../../arm-none-eabi/lib/thumb/v8-m.main/nofp/libg_nano.a(lib_a-sbrkr.o)
 .debug_loc     0x00000000000135b0      0x55d /usr/lib/gcc/arm-none-eabi/9.2.1/../../../arm-none-eabi/lib/thumb/v8-m.main/nofp/libg_nano.a(lib_a-signal.o)
 .debug_loc     0x0000000000013b0d       0xc3 /usr/lib/gcc/arm-none-eabi/9.2.1/../../../arm-none-eabi/lib/thumb/v8-m.main/nofp/libg_nano.a(lib_a-signalr.o)
 .debug_loc     0x0000000000013bd0      0x393 /usr/lib/gcc/arm-none-eabi/9.2.1/../../../arm-none-eabi/lib/thumb/v8-m.main/nofp/libg_nano.a(lib_a-stdio.o)
 .debug_loc     0x0000000000013f63       0xd0 /usr/lib/gcc/arm-none-eabi/9.2.1/../../../arm-none-eabi/lib/thumb/v8-m.main/nofp/libg_nano.a(lib_a-writer.o)
 .debug_loc     0x0000000000014033       0x6c /usr/lib/gcc/arm-none-eabi/9.2.1/../../../arm-none-eabi/lib/thumb/v8-m.main/nofp/libg_nano.a(lib_a-closer.o)
 .debug_loc     0x000000000001409f       0x9e /usr/lib/gcc/arm-none-eabi/9.2.1/../../../arm-none-eabi/lib/thumb/v8-m.main/nofp/libg_nano.a(lib_a-fstatr.o)
 .debug_loc     0x000000000001413d       0x6c /usr/lib/gcc/arm-none-eabi/9.2.1/../../../arm-none-eabi/lib/thumb/v8-m.main/nofp/libg_nano.a(lib_a-isattyr.o)
 .debug_loc     0x00000000000141a9       0xd0 /usr/lib/gcc/arm-none-eabi/9.2.1/../../../arm-none-eabi/lib/thumb/v8-m.main/nofp/libg_nano.a(lib_a-lseekr.o)
 .debug_loc     0x0000000000014279       0x86 /usr/lib/gcc/arm-none-eabi/9.2.1/../../../arm-none-eabi/lib/thumb/v8-m.main/nofp/libg_nano.a(lib_a-nano-msizer.o)
 .debug_loc     0x00000000000142ff       0xd0 /usr/lib/gcc/arm-none-eabi/9.2.1/../../../arm-none-eabi/lib/thumb/v8-m.main/nofp/libg_nano.a(lib_a-readr.o)
 .debug_loc     0x00000000000143cf      0x135 /usr/lib/gcc/arm-none-eabi/9.2.1/../../../arm-none-eabi/lib/thumb/v8-m.main/nofp/libg_nano.a(lib_a-reent.o)
 .debug_loc     0x0000000000014504       0x25 /usr/lib/gcc/arm-none-eabi/9.2.1/../../../arm-none-eabi/lib/thumb/v8-m.main/nofp/libnosys.a(close.o)
 .debug_loc     0x0000000000014529       0x25 /usr/lib/gcc/arm-none-eabi/9.2.1/../../../arm-none-eabi/lib/thumb/v8-m.main/nofp/libnosys.a(fstat.o)
 .debug_loc     0x000000000001454e       0x25 /usr/lib/gcc/arm-none-eabi/9.2.1/../../../arm-none-eabi/lib/thumb/v8-m.main/nofp/libnosys.a(isatty.o)
 .debug_loc     0x0000000000014573       0x25 /usr/lib/gcc/arm-none-eabi/9.2.1/../../../arm-none-eabi/lib/thumb/v8-m.main/nofp/libnosys.a(kill.o)
 .debug_loc     0x0000000000014598       0x4a /usr/lib/gcc/arm-none-eabi/9.2.1/../../../arm-none-eabi/lib/thumb/v8-m.main/nofp/libnosys.a(lseek.o)
 .debug_loc     0x00000000000145e2       0x4a /usr/lib/gcc/arm-none-eabi/9.2.1/../../../arm-none-eabi/lib/thumb/v8-m.main/nofp/libnosys.a(read.o)
 .debug_loc     0x000000000001462c       0x3e /usr/lib/gcc/arm-none-eabi/9.2.1/../../../arm-none-eabi/lib/thumb/v8-m.main/nofp/libnosys.a(sbrk.o)
 .debug_loc     0x000000000001466a       0x15 /usr/lib/gcc/arm-none-eabi/9.2.1/../../../arm-none-eabi/lib/thumb/v8-m.main/nofp/libnosys.a(_exit.o)

.debug_ranges   0x0000000000000000     0x2f10
 .debug_ranges  0x0000000000000000       0x30 CMakeFiles/tfm_ns.dir/main_ns.o
 .debug_ranges  0x0000000000000030      0x410 CMakeFiles/tfm_ns.dir/__/__/__/platform/ext/target/stm/common/stm32l5xx/Device/Source/startup_stm32l5xx_ns.o
 .debug_ranges  0x0000000000000440       0x18 CMakeFiles/tfm_ns.dir/__/ns_interface/ns_client_ext/tz_shim_layer.o
 .debug_ranges  0x0000000000000458       0x18 CMakeFiles/tfm_ns.dir/__/CMSIS/RTOS2/RTX/Config/RTX_Config.o
 .debug_ranges  0x0000000000000470       0x10 CMakeFiles/tfm_ns.dir/__/CMSIS/RTOS2/RTX/Source/rtx_lib.o
 .debug_ranges  0x0000000000000480       0xa0 CMakeFiles/tfm_ns.dir/os_wrapper_cmsis_rtos_v2.o
 .debug_ranges  0x0000000000000520       0x60 CMakeFiles/tfm_ns.dir/__/log/tfm_log_raw.o
 .debug_ranges  0x0000000000000580       0x40 ../../platform/ns/libplatform_ns.a(uart_stdout.o)
 .debug_ranges  0x00000000000005c0       0x18 ../../platform/ns/libplatform_ns.a(system_stm32l5xx.o)
 .debug_ranges  0x00000000000005d8       0xd0 ../../platform/ns/libplatform_ns.a(low_level_com.o)
 .debug_ranges  0x00000000000006a8      0x190 ../../platform/ns/libplatform_ns.a(stm32l5xx_hal_pwr_ex.o)
 .debug_ranges  0x0000000000000838       0x48 ../../platform/ns/libplatform_ns.a(stm32l5xx_hal_gpio.o)
 .debug_ranges  0x0000000000000880      0x210 ../../platform/ns/libplatform_ns.a(stm32l5xx_hal_uart.o)
 .debug_ranges  0x0000000000000a90      0x118 ../../platform/ns/libplatform_ns.a(stm32l5xx_hal.o)
 .debug_ranges  0x0000000000000ba8      0x100 ../../platform/ns/libplatform_ns.a(stm32l5xx_hal_rcc.o)
 .debug_ranges  0x0000000000000ca8       0x10 libtfm_test_app.a(test_app.o)
 .debug_ranges  0x0000000000000cb8       0xe8 ../../lib/ext/tfm_test_repo-src/CMSIS/RTOS2/RTX/Library/GCC/libRTX_V8MMN.a(rtx_system.o)
 .debug_ranges  0x0000000000000da0      0x5a8 ../../lib/ext/tfm_test_repo-src/CMSIS/RTOS2/RTX/Library/GCC/libRTX_V8MMN.a(rtx_mempool.o)
 .debug_ranges  0x0000000000001348       0xa0 ../../lib/ext/tfm_test_repo-src/CMSIS/RTOS2/RTX/Library/GCC/libRTX_V8MMN.a(rtx_memory.o)
 .debug_ranges  0x00000000000013e8      0x180 ../../lib/ext/tfm_test_repo-src/CMSIS/RTOS2/RTX/Library/GCC/libRTX_V8MMN.a(rtx_mutex.o)
 .debug_ranges  0x0000000000001568     0x1048 ../../lib/ext/tfm_test_repo-src/CMSIS/RTOS2/RTX/Library/GCC/libRTX_V8MMN.a(rtx_thread.o)
 .debug_ranges  0x00000000000025b0      0x3f0 ../../lib/ext/tfm_test_repo-src/CMSIS/RTOS2/RTX/Library/GCC/libRTX_V8MMN.a(rtx_kernel.o)
 .debug_ranges  0x00000000000029a0       0x50 ../../lib/ext/tfm_test_repo-src/CMSIS/RTOS2/RTX/Library/GCC/libRTX_V8MMN.a(os_systick.o)
 .debug_ranges  0x00000000000029f0       0x20 libtfm_api_ns.a(tfm_psa_ns_api.o)
 .debug_ranges  0x0000000000002a10       0x18 libtfm_api_ns.a(tfm_ns_interface.o)
 .debug_ranges  0x0000000000002a28       0xb8 /usr/lib/gcc/arm-none-eabi/9.2.1/thumb/v8-m.main/nofp/libgcc.a(_udivmoddi4.o)
 .debug_ranges  0x0000000000002ae0       0x30 /usr/lib/gcc/arm-none-eabi/9.2.1/../../../arm-none-eabi/lib/thumb/v8-m.main/nofp/libg_nano.a(lib_a-nano-vfprintf.o)
 .debug_ranges  0x0000000000002b10       0xa0 /usr/lib/gcc/arm-none-eabi/9.2.1/../../../arm-none-eabi/lib/thumb/v8-m.main/nofp/libg_nano.a(lib_a-nano-vfprintf_i.o)
 .debug_ranges  0x0000000000002bb0       0x20 /usr/lib/gcc/arm-none-eabi/9.2.1/../../../arm-none-eabi/lib/thumb/v8-m.main/nofp/libg_nano.a(lib_a-wbuf.o)
 .debug_ranges  0x0000000000002bd0       0x30 /usr/lib/gcc/arm-none-eabi/9.2.1/../../../arm-none-eabi/lib/thumb/v8-m.main/nofp/libg_nano.a(lib_a-wsetup.o)
 .debug_ranges  0x0000000000002c00       0x18 /usr/lib/gcc/arm-none-eabi/9.2.1/../../../arm-none-eabi/lib/thumb/v8-m.main/nofp/libg_nano.a(lib_a-__atexit.o)
 .debug_ranges  0x0000000000002c18       0x28 /usr/lib/gcc/arm-none-eabi/9.2.1/../../../arm-none-eabi/lib/thumb/v8-m.main/nofp/libg_nano.a(lib_a-__call_atexit.o)
 .debug_ranges  0x0000000000002c40       0x68 /usr/lib/gcc/arm-none-eabi/9.2.1/../../../arm-none-eabi/lib/thumb/v8-m.main/nofp/libg_nano.a(lib_a-fflush.o)
 .debug_ranges  0x0000000000002ca8      0x198 /usr/lib/gcc/arm-none-eabi/9.2.1/../../../arm-none-eabi/lib/thumb/v8-m.main/nofp/libg_nano.a(lib_a-findfp.o)
 .debug_ranges  0x0000000000002e40       0x20 /usr/lib/gcc/arm-none-eabi/9.2.1/../../../arm-none-eabi/lib/thumb/v8-m.main/nofp/libg_nano.a(lib_a-fvwrite.o)
 .debug_ranges  0x0000000000002e60       0x28 /usr/lib/gcc/arm-none-eabi/9.2.1/../../../arm-none-eabi/lib/thumb/v8-m.main/nofp/libg_nano.a(lib_a-makebuf.o)
 .debug_ranges  0x0000000000002e88       0x18 /usr/lib/gcc/arm-none-eabi/9.2.1/../../../arm-none-eabi/lib/thumb/v8-m.main/nofp/libg_nano.a(lib_a-nano-freer.o)
 .debug_ranges  0x0000000000002ea0       0x40 /usr/lib/gcc/arm-none-eabi/9.2.1/../../../arm-none-eabi/lib/thumb/v8-m.main/nofp/libg_nano.a(lib_a-nano-mallocr.o)
 .debug_ranges  0x0000000000002ee0       0x30 /usr/lib/gcc/arm-none-eabi/9.2.1/../../../arm-none-eabi/lib/thumb/v8-m.main/nofp/libg_nano.a(lib_a-signal.o)

.debug_frame    0x0000000000000000     0x3658
 .debug_frame   0x0000000000000000       0x88 CMakeFiles/tfm_ns.dir/main_ns.o
 .debug_frame   0x0000000000000088      0x758 CMakeFiles/tfm_ns.dir/__/__/__/platform/ext/target/stm/common/stm32l5xx/Device/Source/startup_stm32l5xx_ns.o
 .debug_frame   0x00000000000007e0       0x60 CMakeFiles/tfm_ns.dir/__/ns_interface/ns_client_ext/tz_shim_layer.o
 .debug_frame   0x0000000000000840       0x30 CMakeFiles/tfm_ns.dir/__/CMSIS/RTOS2/RTX/Config/RTX_Config.o
 .debug_frame   0x0000000000000870       0x20 CMakeFiles/tfm_ns.dir/__/CMSIS/RTOS2/RTX/Source/rtx_lib.o
 .debug_frame   0x0000000000000890      0x1dc CMakeFiles/tfm_ns.dir/os_wrapper_cmsis_rtos_v2.o
 .debug_frame   0x0000000000000a6c       0xd0 CMakeFiles/tfm_ns.dir/__/log/tfm_log_raw.o
 .debug_frame   0x0000000000000b3c       0x7c ../../platform/ns/libplatform_ns.a(uart_stdout.o)
 .debug_frame   0x0000000000000bb8       0x38 ../../platform/ns/libplatform_ns.a(system_stm32l5xx.o)
 .debug_frame   0x0000000000000bf0      0x128 ../../platform/ns/libplatform_ns.a(low_level_com.o)
 .debug_frame   0x0000000000000d18      0x36c ../../platform/ns/libplatform_ns.a(stm32l5xx_hal_pwr_ex.o)
 .debug_frame   0x0000000000001084       0xe4 ../../platform/ns/libplatform_ns.a(stm32l5xx_hal_gpio.o)
 .debug_frame   0x0000000000001168      0x68c ../../platform/ns/libplatform_ns.a(stm32l5xx_hal_uart.o)
 .debug_frame   0x00000000000017f4      0x280 ../../platform/ns/libplatform_ns.a(stm32l5xx_hal.o)
 .debug_frame   0x0000000000001a74      0x1a4 ../../platform/ns/libplatform_ns.a(stm32l5xx_hal_rcc.o)
 .debug_frame   0x0000000000001c18       0x28 libtfm_test_app.a(test_app.o)
 .debug_frame   0x0000000000001c40       0x84 ../../lib/ext/tfm_test_repo-src/CMSIS/RTOS2/RTX/Library/GCC/libRTX_V8MMN.a(rtx_system.o)
 .debug_frame   0x0000000000001cc4      0x21c ../../lib/ext/tfm_test_repo-src/CMSIS/RTOS2/RTX/Library/GCC/libRTX_V8MMN.a(rtx_mempool.o)
 .debug_frame   0x0000000000001ee0       0xa4 ../../lib/ext/tfm_test_repo-src/CMSIS/RTOS2/RTX/Library/GCC/libRTX_V8MMN.a(rtx_memory.o)
 .debug_frame   0x0000000000001f84      0x134 ../../lib/ext/tfm_test_repo-src/CMSIS/RTOS2/RTX/Library/GCC/libRTX_V8MMN.a(rtx_mutex.o)
 .debug_frame   0x00000000000020b8      0x54c ../../lib/ext/tfm_test_repo-src/CMSIS/RTOS2/RTX/Library/GCC/libRTX_V8MMN.a(rtx_thread.o)
 .debug_frame   0x0000000000002604      0x234 ../../lib/ext/tfm_test_repo-src/CMSIS/RTOS2/RTX/Library/GCC/libRTX_V8MMN.a(rtx_kernel.o)
 .debug_frame   0x0000000000002838       0xb0 ../../lib/ext/tfm_test_repo-src/CMSIS/RTOS2/RTX/Library/GCC/libRTX_V8MMN.a(os_systick.o)
 .debug_frame   0x00000000000028e8       0x64 libtfm_api_ns.a(tfm_psa_ns_api.o)
 .debug_frame   0x000000000000294c       0x44 libtfm_api_ns.a(tfm_ns_interface.o)
 .debug_frame   0x0000000000002990       0x2c /usr/lib/gcc/arm-none-eabi/9.2.1/thumb/v8-m.main/nofp/libgcc.a(_aeabi_uldivmod.o)
 .debug_frame   0x00000000000029bc       0x34 /usr/lib/gcc/arm-none-eabi/9.2.1/thumb/v8-m.main/nofp/libgcc.a(_udivmoddi4.o)
 .debug_frame   0x00000000000029f0       0x40 /usr/lib/gcc/arm-none-eabi/9.2.1/../../../arm-none-eabi/lib/thumb/v8-m.main/nofp/libg_nano.a(lib_a-assert.o)
 .debug_frame   0x0000000000002a30       0x20 /usr/lib/gcc/arm-none-eabi/9.2.1/../../../arm-none-eabi/lib/thumb/v8-m.main/nofp/libg_nano.a(lib_a-atexit.o)
 .debug_frame   0x0000000000002a50       0x28 /usr/lib/gcc/arm-none-eabi/9.2.1/../../../arm-none-eabi/lib/thumb/v8-m.main/nofp/libg_nano.a(lib_a-exit.o)
 .debug_frame   0x0000000000002a78       0x34 /usr/lib/gcc/arm-none-eabi/9.2.1/../../../arm-none-eabi/lib/thumb/v8-m.main/nofp/libg_nano.a(lib_a-fini.o)
 .debug_frame   0x0000000000002aac       0x74 /usr/lib/gcc/arm-none-eabi/9.2.1/../../../arm-none-eabi/lib/thumb/v8-m.main/nofp/libg_nano.a(lib_a-fprintf.o)
 .debug_frame   0x0000000000002b20       0x2c /usr/lib/gcc/arm-none-eabi/9.2.1/../../../arm-none-eabi/lib/thumb/v8-m.main/nofp/libg_nano.a(lib_a-init.o)
 .debug_frame   0x0000000000002b4c       0x38 /usr/lib/gcc/arm-none-eabi/9.2.1/../../../arm-none-eabi/lib/thumb/v8-m.main/nofp/libg_nano.a(lib_a-memset.o)
 .debug_frame   0x0000000000002b84       0xbc /usr/lib/gcc/arm-none-eabi/9.2.1/../../../arm-none-eabi/lib/thumb/v8-m.main/nofp/libg_nano.a(lib_a-nano-vfprintf.o)
 .debug_frame   0x0000000000002c40       0x68 /usr/lib/gcc/arm-none-eabi/9.2.1/../../../arm-none-eabi/lib/thumb/v8-m.main/nofp/libg_nano.a(lib_a-nano-vfprintf_i.o)
 .debug_frame   0x0000000000002ca8       0x40 /usr/lib/gcc/arm-none-eabi/9.2.1/../../../arm-none-eabi/lib/thumb/v8-m.main/nofp/libg_nano.a(lib_a-wbuf.o)
 .debug_frame   0x0000000000002ce8       0x2c /usr/lib/gcc/arm-none-eabi/9.2.1/../../../arm-none-eabi/lib/thumb/v8-m.main/nofp/libg_nano.a(lib_a-wsetup.o)
 .debug_frame   0x0000000000002d14       0x38 /usr/lib/gcc/arm-none-eabi/9.2.1/../../../arm-none-eabi/lib/thumb/v8-m.main/nofp/libg_nano.a(lib_a-__atexit.o)
 .debug_frame   0x0000000000002d4c       0x40 /usr/lib/gcc/arm-none-eabi/9.2.1/../../../arm-none-eabi/lib/thumb/v8-m.main/nofp/libg_nano.a(lib_a-__call_atexit.o)
 .debug_frame   0x0000000000002d8c       0x28 /usr/lib/gcc/arm-none-eabi/9.2.1/../../../arm-none-eabi/lib/thumb/v8-m.main/nofp/libg_nano.a(lib_a-abort.o)
 .debug_frame   0x0000000000002db4       0x70 /usr/lib/gcc/arm-none-eabi/9.2.1/../../../arm-none-eabi/lib/thumb/v8-m.main/nofp/libg_nano.a(lib_a-fflush.o)
 .debug_frame   0x0000000000002e24      0x120 /usr/lib/gcc/arm-none-eabi/9.2.1/../../../arm-none-eabi/lib/thumb/v8-m.main/nofp/libg_nano.a(lib_a-findfp.o)
 .debug_frame   0x0000000000002f44       0x64 /usr/lib/gcc/arm-none-eabi/9.2.1/../../../arm-none-eabi/lib/thumb/v8-m.main/nofp/libg_nano.a(lib_a-fvwrite.o)
 .debug_frame   0x0000000000002fa8       0x54 /usr/lib/gcc/arm-none-eabi/9.2.1/../../../arm-none-eabi/lib/thumb/v8-m.main/nofp/libg_nano.a(lib_a-fwalk.o)
 .debug_frame   0x0000000000002ffc       0x64 /usr/lib/gcc/arm-none-eabi/9.2.1/../../../arm-none-eabi/lib/thumb/v8-m.main/nofp/libg_nano.a(lib_a-makebuf.o)
 .debug_frame   0x0000000000003060       0x34 /usr/lib/gcc/arm-none-eabi/9.2.1/../../../arm-none-eabi/lib/thumb/v8-m.main/nofp/libg_nano.a(lib_a-memchr-stub.o)
 .debug_frame   0x0000000000003094       0x40 /usr/lib/gcc/arm-none-eabi/9.2.1/../../../arm-none-eabi/lib/thumb/v8-m.main/nofp/libg_nano.a(lib_a-memmove.o)
 .debug_frame   0x00000000000030d4       0x58 /usr/lib/gcc/arm-none-eabi/9.2.1/../../../arm-none-eabi/lib/thumb/v8-m.main/nofp/libg_nano.a(lib_a-nano-freer.o)
 .debug_frame   0x000000000000312c       0x30 /usr/lib/gcc/arm-none-eabi/9.2.1/../../../arm-none-eabi/lib/thumb/v8-m.main/nofp/libg_nano.a(lib_a-nano-mallocr.o)
 .debug_frame   0x000000000000315c       0x38 /usr/lib/gcc/arm-none-eabi/9.2.1/../../../arm-none-eabi/lib/thumb/v8-m.main/nofp/libg_nano.a(lib_a-nano-reallocr.o)
 .debug_frame   0x0000000000003194       0x2c /usr/lib/gcc/arm-none-eabi/9.2.1/../../../arm-none-eabi/lib/thumb/v8-m.main/nofp/libg_nano.a(lib_a-sbrkr.o)
 .debug_frame   0x00000000000031c0       0xe0 /usr/lib/gcc/arm-none-eabi/9.2.1/../../../arm-none-eabi/lib/thumb/v8-m.main/nofp/libg_nano.a(lib_a-signal.o)
 .debug_frame   0x00000000000032a0       0x3c /usr/lib/gcc/arm-none-eabi/9.2.1/../../../arm-none-eabi/lib/thumb/v8-m.main/nofp/libg_nano.a(lib_a-signalr.o)
 .debug_frame   0x00000000000032dc       0x8c /usr/lib/gcc/arm-none-eabi/9.2.1/../../../arm-none-eabi/lib/thumb/v8-m.main/nofp/libg_nano.a(lib_a-stdio.o)
 .debug_frame   0x0000000000003368       0x30 /usr/lib/gcc/arm-none-eabi/9.2.1/../../../arm-none-eabi/lib/thumb/v8-m.main/nofp/libg_nano.a(lib_a-writer.o)
 .debug_frame   0x0000000000003398       0x2c /usr/lib/gcc/arm-none-eabi/9.2.1/../../../arm-none-eabi/lib/thumb/v8-m.main/nofp/libg_nano.a(lib_a-closer.o)
 .debug_frame   0x00000000000033c4       0x2c /usr/lib/gcc/arm-none-eabi/9.2.1/../../../arm-none-eabi/lib/thumb/v8-m.main/nofp/libg_nano.a(lib_a-fstatr.o)
 .debug_frame   0x00000000000033f0       0x2c /usr/lib/gcc/arm-none-eabi/9.2.1/../../../arm-none-eabi/lib/thumb/v8-m.main/nofp/libg_nano.a(lib_a-isattyr.o)
 .debug_frame   0x000000000000341c       0x30 /usr/lib/gcc/arm-none-eabi/9.2.1/../../../arm-none-eabi/lib/thumb/v8-m.main/nofp/libg_nano.a(lib_a-lseekr.o)
 .debug_frame   0x000000000000344c       0x30 /usr/lib/gcc/arm-none-eabi/9.2.1/../../../arm-none-eabi/lib/thumb/v8-m.main/nofp/libg_nano.a(lib_a-mlock.o)
 .debug_frame   0x000000000000347c       0x20 /usr/lib/gcc/arm-none-eabi/9.2.1/../../../arm-none-eabi/lib/thumb/v8-m.main/nofp/libg_nano.a(lib_a-nano-msizer.o)
 .debug_frame   0x000000000000349c       0x30 /usr/lib/gcc/arm-none-eabi/9.2.1/../../../arm-none-eabi/lib/thumb/v8-m.main/nofp/libg_nano.a(lib_a-readr.o)
 .debug_frame   0x00000000000034cc       0x6c /usr/lib/gcc/arm-none-eabi/9.2.1/../../../arm-none-eabi/lib/thumb/v8-m.main/nofp/libg_nano.a(lib_a-reent.o)
 .debug_frame   0x0000000000003538       0x20 /usr/lib/gcc/arm-none-eabi/9.2.1/../../../arm-none-eabi/lib/thumb/v8-m.main/nofp/libnosys.a(close.o)
 .debug_frame   0x0000000000003558       0x20 /usr/lib/gcc/arm-none-eabi/9.2.1/../../../arm-none-eabi/lib/thumb/v8-m.main/nofp/libnosys.a(fstat.o)
 .debug_frame   0x0000000000003578       0x20 /usr/lib/gcc/arm-none-eabi/9.2.1/../../../arm-none-eabi/lib/thumb/v8-m.main/nofp/libnosys.a(getpid.o)
 .debug_frame   0x0000000000003598       0x20 /usr/lib/gcc/arm-none-eabi/9.2.1/../../../arm-none-eabi/lib/thumb/v8-m.main/nofp/libnosys.a(isatty.o)
 .debug_frame   0x00000000000035b8       0x20 /usr/lib/gcc/arm-none-eabi/9.2.1/../../../arm-none-eabi/lib/thumb/v8-m.main/nofp/libnosys.a(kill.o)
 .debug_frame   0x00000000000035d8       0x20 /usr/lib/gcc/arm-none-eabi/9.2.1/../../../arm-none-eabi/lib/thumb/v8-m.main/nofp/libnosys.a(lseek.o)
 .debug_frame   0x00000000000035f8       0x20 /usr/lib/gcc/arm-none-eabi/9.2.1/../../../arm-none-eabi/lib/thumb/v8-m.main/nofp/libnosys.a(read.o)
 .debug_frame   0x0000000000003618       0x20 /usr/lib/gcc/arm-none-eabi/9.2.1/../../../arm-none-eabi/lib/thumb/v8-m.main/nofp/libnosys.a(sbrk.o)
 .debug_frame   0x0000000000003638       0x20 /usr/lib/gcc/arm-none-eabi/9.2.1/../../../arm-none-eabi/lib/thumb/v8-m.main/nofp/libnosys.a(_exit.o)

.stab           0x0000000000000000       0xb4
 .stab          0x0000000000000000       0x24 /usr/lib/gcc/arm-none-eabi/9.2.1/../../../arm-none-eabi/lib/thumb/v8-m.main/nofp/libnosys.a(close.o)
 .stab          0x0000000000000024       0x18 /usr/lib/gcc/arm-none-eabi/9.2.1/../../../arm-none-eabi/lib/thumb/v8-m.main/nofp/libnosys.a(fstat.o)
                                         0x24 (size before relaxing)
 .stab          0x000000000000003c       0x18 /usr/lib/gcc/arm-none-eabi/9.2.1/../../../arm-none-eabi/lib/thumb/v8-m.main/nofp/libnosys.a(getpid.o)
                                         0x24 (size before relaxing)
 .stab          0x0000000000000054       0x18 /usr/lib/gcc/arm-none-eabi/9.2.1/../../../arm-none-eabi/lib/thumb/v8-m.main/nofp/libnosys.a(isatty.o)
                                         0x24 (size before relaxing)
 .stab          0x000000000000006c       0x18 /usr/lib/gcc/arm-none-eabi/9.2.1/../../../arm-none-eabi/lib/thumb/v8-m.main/nofp/libnosys.a(kill.o)
                                         0x24 (size before relaxing)
 .stab          0x0000000000000084       0x18 /usr/lib/gcc/arm-none-eabi/9.2.1/../../../arm-none-eabi/lib/thumb/v8-m.main/nofp/libnosys.a(lseek.o)
                                         0x24 (size before relaxing)
 .stab          0x000000000000009c       0x18 /usr/lib/gcc/arm-none-eabi/9.2.1/../../../arm-none-eabi/lib/thumb/v8-m.main/nofp/libnosys.a(read.o)
                                         0x24 (size before relaxing)

.stabstr        0x0000000000000000      0x183
 .stabstr       0x0000000000000000      0x183 /usr/lib/gcc/arm-none-eabi/9.2.1/../../../arm-none-eabi/lib/thumb/v8-m.main/nofp/libnosys.a(close.o)
