Archive member included to satisfy reference by file (symbol)

../../platform/ns/libplatform_ns.a(uart_stdout.o)
                              CMakeFiles/tfm_ns.dir/__/log/tfm_log_raw.o (stdio_output_string)
../../platform/ns/libplatform_ns.a(system_stm32l5xx.o)
                              CMakeFiles/tfm_ns.dir/__/__/__/__/__/platform/ext/target/stm/common/stm32l5xx/Device/Source/startup_stm32l5xx_ns.o (SystemInit)
../../platform/ns/libplatform_ns.a(low_level_com.o)
                              ../../platform/ns/libplatform_ns.a(uart_stdout.o) (Driver_USART0)
../../platform/ns/libplatform_ns.a(stm32l5xx_hal_pwr_ex.o)
                              ../../platform/ns/libplatform_ns.a(low_level_com.o) (HAL_PWREx_EnableVddIO2)
../../platform/ns/libplatform_ns.a(stm32l5xx_hal_gpio.o)
                              ../../platform/ns/libplatform_ns.a(low_level_com.o) (HAL_GPIO_Init)
../../platform/ns/libplatform_ns.a(stm32l5xx_hal_uart.o)
                              ../../platform/ns/libplatform_ns.a(low_level_com.o) (HAL_UART_Transmit)
../../platform/ns/libplatform_ns.a(stm32l5xx_hal_uart_ex.o)
                              ../../platform/ns/libplatform_ns.a(stm32l5xx_hal_uart.o) (HAL_UARTEx_WakeupCallback)
../../platform/ns/libplatform_ns.a(stm32l5xx_hal.o)
                              ../../platform/ns/libplatform_ns.a(stm32l5xx_hal_uart.o) (HAL_GetTick)
../../platform/ns/libplatform_ns.a(stm32l5xx_hal_dma.o)
                              ../../platform/ns/libplatform_ns.a(stm32l5xx_hal_uart.o) (HAL_DMA_Start_IT)
../../platform/ns/libplatform_ns.a(stm32l5xx_hal_pwr.o)
                              ../../platform/ns/libplatform_ns.a(stm32l5xx_hal_pwr_ex.o) (HAL_PWR_PVDCallback)
../../platform/ns/libplatform_ns.a(stm32l5xx_hal_rcc.o)
                              ../../platform/ns/libplatform_ns.a(stm32l5xx_hal_uart.o) (HAL_RCC_GetSysClockFreq)
../../platform/ns/libplatform_ns.a(stm32l5xx_hal_cortex.o)
                              ../../platform/ns/libplatform_ns.a(stm32l5xx_hal.o) (HAL_NVIC_SetPriorityGrouping)
libtfm_test_app.a(test_app.o)
                              CMakeFiles/tfm_ns.dir/main_ns.o (test_app)
../../lib/ext/tfm_test_repo-src/CMSIS/RTOS2/RTX/Library/GCC/libRTX_V8MMN.a(irq_armv8mml.o)
                              CMakeFiles/tfm_ns.dir/__/CMSIS/RTOS2/RTX/Source/rtx_lib.o (irqRtxLib)
../../lib/ext/tfm_test_repo-src/CMSIS/RTOS2/RTX/Library/GCC/libRTX_V8MMN.a(rtx_system.o)
                              ../../lib/ext/tfm_test_repo-src/CMSIS/RTOS2/RTX/Library/GCC/libRTX_V8MMN.a(irq_armv8mml.o) (osRtxTick_Handler)
../../lib/ext/tfm_test_repo-src/CMSIS/RTOS2/RTX/Library/GCC/libRTX_V8MMN.a(rtx_msgqueue.o)
                              CMakeFiles/tfm_ns.dir/os_wrapper_cmsis_rtos_v2.o (osMessageQueueNew)
../../lib/ext/tfm_test_repo-src/CMSIS/RTOS2/RTX/Library/GCC/libRTX_V8MMN.a(rtx_mempool.o)
                              ../../lib/ext/tfm_test_repo-src/CMSIS/RTOS2/RTX/Library/GCC/libRTX_V8MMN.a(rtx_msgqueue.o) (osRtxMemoryPoolInit)
../../lib/ext/tfm_test_repo-src/CMSIS/RTOS2/RTX/Library/GCC/libRTX_V8MMN.a(rtx_memory.o)
                              ../../lib/ext/tfm_test_repo-src/CMSIS/RTOS2/RTX/Library/GCC/libRTX_V8MMN.a(rtx_msgqueue.o) (osRtxMemoryAlloc)
../../lib/ext/tfm_test_repo-src/CMSIS/RTOS2/RTX/Library/GCC/libRTX_V8MMN.a(rtx_semaphore.o)
                              CMakeFiles/tfm_ns.dir/os_wrapper_cmsis_rtos_v2.o (osSemaphoreNew)
../../lib/ext/tfm_test_repo-src/CMSIS/RTOS2/RTX/Library/GCC/libRTX_V8MMN.a(rtx_mutex.o)
                              CMakeFiles/tfm_ns.dir/os_wrapper_cmsis_rtos_v2.o (osMutexNew)
../../lib/ext/tfm_test_repo-src/CMSIS/RTOS2/RTX/Library/GCC/libRTX_V8MMN.a(rtx_delay.o)
                              CMakeFiles/tfm_ns.dir/os_wrapper_cmsis_rtos_v2.o (osDelay)
../../lib/ext/tfm_test_repo-src/CMSIS/RTOS2/RTX/Library/GCC/libRTX_V8MMN.a(rtx_thread.o)
                              CMakeFiles/tfm_ns.dir/os_wrapper_cmsis_rtos_v2.o (osThreadExit)
../../lib/ext/tfm_test_repo-src/CMSIS/RTOS2/RTX/Library/GCC/libRTX_V8MMN.a(rtx_kernel.o)
                              CMakeFiles/tfm_ns.dir/main_ns.o (osKernelInitialize)
../../lib/ext/tfm_test_repo-src/CMSIS/RTOS2/RTX/Library/GCC/libRTX_V8MMN.a(os_systick.o)
                              ../../lib/ext/tfm_test_repo-src/CMSIS/RTOS2/RTX/Library/GCC/libRTX_V8MMN.a(rtx_kernel.o) (OS_Tick_Setup)
../../lib/ext/tfm_test_repo-src/CMSIS/RTOS2/RTX/Library/GCC/libRTX_V8MMN.a(rtx_timer.o)
                              ../../lib/ext/tfm_test_repo-src/CMSIS/RTOS2/RTX/Library/GCC/libRTX_V8MMN.a(rtx_thread.o) (osRtxTimerThread)
libtfm_api_ns.a(tfm_ns_interface.o)
                              CMakeFiles/tfm_ns.dir/main_ns.o (tfm_ns_interface_init)
/opt/gcc-arm-none-eabi-10.3-2021.10/bin/../lib/gcc/arm-none-eabi/10.3.1/thumb/v8-m.main/nofp/libgcc.a(_aeabi_ldivmod.o)
                              ../../platform/ns/libplatform_ns.a(stm32l5xx_hal_uart.o) (__aeabi_ldivmod)
/opt/gcc-arm-none-eabi-10.3-2021.10/bin/../lib/gcc/arm-none-eabi/10.3.1/thumb/v8-m.main/nofp/libgcc.a(_aeabi_uldivmod.o)
                              ../../platform/ns/libplatform_ns.a(stm32l5xx_hal_uart.o) (__aeabi_uldivmod)
/opt/gcc-arm-none-eabi-10.3-2021.10/bin/../lib/gcc/arm-none-eabi/10.3.1/thumb/v8-m.main/nofp/libgcc.a(_udivmoddi4.o)
                              /opt/gcc-arm-none-eabi-10.3-2021.10/bin/../lib/gcc/arm-none-eabi/10.3.1/thumb/v8-m.main/nofp/libgcc.a(_aeabi_ldivmod.o) (__udivmoddi4)
/opt/gcc-arm-none-eabi-10.3-2021.10/bin/../lib/gcc/arm-none-eabi/10.3.1/thumb/v8-m.main/nofp/libgcc.a(_dvmd_tls.o)
                              /opt/gcc-arm-none-eabi-10.3-2021.10/bin/../lib/gcc/arm-none-eabi/10.3.1/thumb/v8-m.main/nofp/libgcc.a(_aeabi_ldivmod.o) (__aeabi_ldiv0)
/opt/gcc-arm-none-eabi-10.3-2021.10/bin/../lib/gcc/arm-none-eabi/10.3.1/../../../../arm-none-eabi/lib/thumb/v8-m.main/nofp/libg_nano.a(lib_a-assert.o)
                              ../../platform/ns/libplatform_ns.a(uart_stdout.o) (__assert_func)
/opt/gcc-arm-none-eabi-10.3-2021.10/bin/../lib/gcc/arm-none-eabi/10.3.1/../../../../arm-none-eabi/lib/thumb/v8-m.main/nofp/libg_nano.a(lib_a-exit.o)
                              /opt/gcc-arm-none-eabi-10.3-2021.10/bin/../lib/gcc/arm-none-eabi/10.3.1/../../../../arm-none-eabi/lib/thumb/v8-m.main/nofp/crt0.o (exit)
/opt/gcc-arm-none-eabi-10.3-2021.10/bin/../lib/gcc/arm-none-eabi/10.3.1/../../../../arm-none-eabi/lib/thumb/v8-m.main/nofp/libg_nano.a(lib_a-fprintf.o)
                              /opt/gcc-arm-none-eabi-10.3-2021.10/bin/../lib/gcc/arm-none-eabi/10.3.1/../../../../arm-none-eabi/lib/thumb/v8-m.main/nofp/libg_nano.a(lib_a-assert.o) (fiprintf)
/opt/gcc-arm-none-eabi-10.3-2021.10/bin/../lib/gcc/arm-none-eabi/10.3.1/../../../../arm-none-eabi/lib/thumb/v8-m.main/nofp/libg_nano.a(lib_a-impure.o)
                              /opt/gcc-arm-none-eabi-10.3-2021.10/bin/../lib/gcc/arm-none-eabi/10.3.1/../../../../arm-none-eabi/lib/thumb/v8-m.main/nofp/libg_nano.a(lib_a-exit.o) (_global_impure_ptr)
/opt/gcc-arm-none-eabi-10.3-2021.10/bin/../lib/gcc/arm-none-eabi/10.3.1/../../../../arm-none-eabi/lib/thumb/v8-m.main/nofp/libg_nano.a(lib_a-init.o)
                              /opt/gcc-arm-none-eabi-10.3-2021.10/bin/../lib/gcc/arm-none-eabi/10.3.1/../../../../arm-none-eabi/lib/thumb/v8-m.main/nofp/crt0.o (__libc_init_array)
/opt/gcc-arm-none-eabi-10.3-2021.10/bin/../lib/gcc/arm-none-eabi/10.3.1/../../../../arm-none-eabi/lib/thumb/v8-m.main/nofp/libg_nano.a(lib_a-memcpy-stub.o)
                              ../../lib/ext/tfm_test_repo-src/CMSIS/RTOS2/RTX/Library/GCC/libRTX_V8MMN.a(rtx_msgqueue.o) (memcpy)
/opt/gcc-arm-none-eabi-10.3-2021.10/bin/../lib/gcc/arm-none-eabi/10.3.1/../../../../arm-none-eabi/lib/thumb/v8-m.main/nofp/libg_nano.a(lib_a-memset.o)
                              /opt/gcc-arm-none-eabi-10.3-2021.10/bin/../lib/gcc/arm-none-eabi/10.3.1/../../../../arm-none-eabi/lib/thumb/v8-m.main/nofp/crt0.o (memset)
/opt/gcc-arm-none-eabi-10.3-2021.10/bin/../lib/gcc/arm-none-eabi/10.3.1/../../../../arm-none-eabi/lib/thumb/v8-m.main/nofp/libg_nano.a(lib_a-nano-vfprintf.o)
                              /opt/gcc-arm-none-eabi-10.3-2021.10/bin/../lib/gcc/arm-none-eabi/10.3.1/../../../../arm-none-eabi/lib/thumb/v8-m.main/nofp/libg_nano.a(lib_a-fprintf.o) (_vfprintf_r)
/opt/gcc-arm-none-eabi-10.3-2021.10/bin/../lib/gcc/arm-none-eabi/10.3.1/../../../../arm-none-eabi/lib/thumb/v8-m.main/nofp/libg_nano.a(lib_a-nano-vfprintf_i.o)
                              /opt/gcc-arm-none-eabi-10.3-2021.10/bin/../lib/gcc/arm-none-eabi/10.3.1/../../../../arm-none-eabi/lib/thumb/v8-m.main/nofp/libg_nano.a(lib_a-nano-vfprintf.o) (_printf_i)
/opt/gcc-arm-none-eabi-10.3-2021.10/bin/../lib/gcc/arm-none-eabi/10.3.1/../../../../arm-none-eabi/lib/thumb/v8-m.main/nofp/libg_nano.a(lib_a-wbuf.o)
                              /opt/gcc-arm-none-eabi-10.3-2021.10/bin/../lib/gcc/arm-none-eabi/10.3.1/../../../../arm-none-eabi/lib/thumb/v8-m.main/nofp/libg_nano.a(lib_a-nano-vfprintf.o) (__swbuf_r)
/opt/gcc-arm-none-eabi-10.3-2021.10/bin/../lib/gcc/arm-none-eabi/10.3.1/../../../../arm-none-eabi/lib/thumb/v8-m.main/nofp/libg_nano.a(lib_a-wsetup.o)
                              /opt/gcc-arm-none-eabi-10.3-2021.10/bin/../lib/gcc/arm-none-eabi/10.3.1/../../../../arm-none-eabi/lib/thumb/v8-m.main/nofp/libg_nano.a(lib_a-nano-vfprintf.o) (__swsetup_r)
/opt/gcc-arm-none-eabi-10.3-2021.10/bin/../lib/gcc/arm-none-eabi/10.3.1/../../../../arm-none-eabi/lib/thumb/v8-m.main/nofp/libg_nano.a(lib_a-abort.o)
                              /opt/gcc-arm-none-eabi-10.3-2021.10/bin/../lib/gcc/arm-none-eabi/10.3.1/../../../../arm-none-eabi/lib/thumb/v8-m.main/nofp/libg_nano.a(lib_a-assert.o) (abort)
/opt/gcc-arm-none-eabi-10.3-2021.10/bin/../lib/gcc/arm-none-eabi/10.3.1/../../../../arm-none-eabi/lib/thumb/v8-m.main/nofp/libg_nano.a(lib_a-fflush.o)
                              /opt/gcc-arm-none-eabi-10.3-2021.10/bin/../lib/gcc/arm-none-eabi/10.3.1/../../../../arm-none-eabi/lib/thumb/v8-m.main/nofp/libg_nano.a(lib_a-wbuf.o) (_fflush_r)
/opt/gcc-arm-none-eabi-10.3-2021.10/bin/../lib/gcc/arm-none-eabi/10.3.1/../../../../arm-none-eabi/lib/thumb/v8-m.main/nofp/libg_nano.a(lib_a-findfp.o)
                              /opt/gcc-arm-none-eabi-10.3-2021.10/bin/../lib/gcc/arm-none-eabi/10.3.1/../../../../arm-none-eabi/lib/thumb/v8-m.main/nofp/libg_nano.a(lib_a-nano-vfprintf.o) (__sinit)
/opt/gcc-arm-none-eabi-10.3-2021.10/bin/../lib/gcc/arm-none-eabi/10.3.1/../../../../arm-none-eabi/lib/thumb/v8-m.main/nofp/libg_nano.a(lib_a-fvwrite.o)
                              /opt/gcc-arm-none-eabi-10.3-2021.10/bin/../lib/gcc/arm-none-eabi/10.3.1/../../../../arm-none-eabi/lib/thumb/v8-m.main/nofp/libg_nano.a(lib_a-nano-vfprintf.o) (__sfvwrite_r)
/opt/gcc-arm-none-eabi-10.3-2021.10/bin/../lib/gcc/arm-none-eabi/10.3.1/../../../../arm-none-eabi/lib/thumb/v8-m.main/nofp/libg_nano.a(lib_a-fwalk.o)
                              /opt/gcc-arm-none-eabi-10.3-2021.10/bin/../lib/gcc/arm-none-eabi/10.3.1/../../../../arm-none-eabi/lib/thumb/v8-m.main/nofp/libg_nano.a(lib_a-findfp.o) (_fwalk)
/opt/gcc-arm-none-eabi-10.3-2021.10/bin/../lib/gcc/arm-none-eabi/10.3.1/../../../../arm-none-eabi/lib/thumb/v8-m.main/nofp/libg_nano.a(lib_a-lock.o)
                              /opt/gcc-arm-none-eabi-10.3-2021.10/bin/../lib/gcc/arm-none-eabi/10.3.1/../../../../arm-none-eabi/lib/thumb/v8-m.main/nofp/libg_nano.a(lib_a-findfp.o) (__retarget_lock_init_recursive)
/opt/gcc-arm-none-eabi-10.3-2021.10/bin/../lib/gcc/arm-none-eabi/10.3.1/../../../../arm-none-eabi/lib/thumb/v8-m.main/nofp/libg_nano.a(lib_a-makebuf.o)
                              /opt/gcc-arm-none-eabi-10.3-2021.10/bin/../lib/gcc/arm-none-eabi/10.3.1/../../../../arm-none-eabi/lib/thumb/v8-m.main/nofp/libg_nano.a(lib_a-wsetup.o) (__smakebuf_r)
/opt/gcc-arm-none-eabi-10.3-2021.10/bin/../lib/gcc/arm-none-eabi/10.3.1/../../../../arm-none-eabi/lib/thumb/v8-m.main/nofp/libg_nano.a(lib_a-memchr-stub.o)
                              /opt/gcc-arm-none-eabi-10.3-2021.10/bin/../lib/gcc/arm-none-eabi/10.3.1/../../../../arm-none-eabi/lib/thumb/v8-m.main/nofp/libg_nano.a(lib_a-nano-vfprintf.o) (memchr)
/opt/gcc-arm-none-eabi-10.3-2021.10/bin/../lib/gcc/arm-none-eabi/10.3.1/../../../../arm-none-eabi/lib/thumb/v8-m.main/nofp/libg_nano.a(lib_a-memmove.o)
                              /opt/gcc-arm-none-eabi-10.3-2021.10/bin/../lib/gcc/arm-none-eabi/10.3.1/../../../../arm-none-eabi/lib/thumb/v8-m.main/nofp/libg_nano.a(lib_a-fvwrite.o) (memmove)
/opt/gcc-arm-none-eabi-10.3-2021.10/bin/../lib/gcc/arm-none-eabi/10.3.1/../../../../arm-none-eabi/lib/thumb/v8-m.main/nofp/libg_nano.a(lib_a-nano-freer.o)
                              /opt/gcc-arm-none-eabi-10.3-2021.10/bin/../lib/gcc/arm-none-eabi/10.3.1/../../../../arm-none-eabi/lib/thumb/v8-m.main/nofp/libg_nano.a(lib_a-wsetup.o) (_free_r)
/opt/gcc-arm-none-eabi-10.3-2021.10/bin/../lib/gcc/arm-none-eabi/10.3.1/../../../../arm-none-eabi/lib/thumb/v8-m.main/nofp/libg_nano.a(lib_a-nano-mallocr.o)
                              /opt/gcc-arm-none-eabi-10.3-2021.10/bin/../lib/gcc/arm-none-eabi/10.3.1/../../../../arm-none-eabi/lib/thumb/v8-m.main/nofp/libg_nano.a(lib_a-findfp.o) (_malloc_r)
/opt/gcc-arm-none-eabi-10.3-2021.10/bin/../lib/gcc/arm-none-eabi/10.3.1/../../../../arm-none-eabi/lib/thumb/v8-m.main/nofp/libg_nano.a(lib_a-nano-reallocr.o)
                              /opt/gcc-arm-none-eabi-10.3-2021.10/bin/../lib/gcc/arm-none-eabi/10.3.1/../../../../arm-none-eabi/lib/thumb/v8-m.main/nofp/libg_nano.a(lib_a-fvwrite.o) (_realloc_r)
/opt/gcc-arm-none-eabi-10.3-2021.10/bin/../lib/gcc/arm-none-eabi/10.3.1/../../../../arm-none-eabi/lib/thumb/v8-m.main/nofp/libg_nano.a(lib_a-sbrkr.o)
                              /opt/gcc-arm-none-eabi-10.3-2021.10/bin/../lib/gcc/arm-none-eabi/10.3.1/../../../../arm-none-eabi/lib/thumb/v8-m.main/nofp/libg_nano.a(lib_a-nano-mallocr.o) (_sbrk_r)
/opt/gcc-arm-none-eabi-10.3-2021.10/bin/../lib/gcc/arm-none-eabi/10.3.1/../../../../arm-none-eabi/lib/thumb/v8-m.main/nofp/libg_nano.a(lib_a-signal.o)
                              /opt/gcc-arm-none-eabi-10.3-2021.10/bin/../lib/gcc/arm-none-eabi/10.3.1/../../../../arm-none-eabi/lib/thumb/v8-m.main/nofp/libg_nano.a(lib_a-abort.o) (raise)
/opt/gcc-arm-none-eabi-10.3-2021.10/bin/../lib/gcc/arm-none-eabi/10.3.1/../../../../arm-none-eabi/lib/thumb/v8-m.main/nofp/libg_nano.a(lib_a-signalr.o)
                              /opt/gcc-arm-none-eabi-10.3-2021.10/bin/../lib/gcc/arm-none-eabi/10.3.1/../../../../arm-none-eabi/lib/thumb/v8-m.main/nofp/libg_nano.a(lib_a-signal.o) (_kill_r)
/opt/gcc-arm-none-eabi-10.3-2021.10/bin/../lib/gcc/arm-none-eabi/10.3.1/../../../../arm-none-eabi/lib/thumb/v8-m.main/nofp/libg_nano.a(lib_a-stdio.o)
                              /opt/gcc-arm-none-eabi-10.3-2021.10/bin/../lib/gcc/arm-none-eabi/10.3.1/../../../../arm-none-eabi/lib/thumb/v8-m.main/nofp/libg_nano.a(lib_a-findfp.o) (__sread)
/opt/gcc-arm-none-eabi-10.3-2021.10/bin/../lib/gcc/arm-none-eabi/10.3.1/../../../../arm-none-eabi/lib/thumb/v8-m.main/nofp/libg_nano.a(lib_a-writer.o)
                              /opt/gcc-arm-none-eabi-10.3-2021.10/bin/../lib/gcc/arm-none-eabi/10.3.1/../../../../arm-none-eabi/lib/thumb/v8-m.main/nofp/libg_nano.a(lib_a-stdio.o) (_write_r)
/opt/gcc-arm-none-eabi-10.3-2021.10/bin/../lib/gcc/arm-none-eabi/10.3.1/../../../../arm-none-eabi/lib/thumb/v8-m.main/nofp/libg_nano.a(lib_a-closer.o)
                              /opt/gcc-arm-none-eabi-10.3-2021.10/bin/../lib/gcc/arm-none-eabi/10.3.1/../../../../arm-none-eabi/lib/thumb/v8-m.main/nofp/libg_nano.a(lib_a-stdio.o) (_close_r)
/opt/gcc-arm-none-eabi-10.3-2021.10/bin/../lib/gcc/arm-none-eabi/10.3.1/../../../../arm-none-eabi/lib/thumb/v8-m.main/nofp/libg_nano.a(lib_a-fstatr.o)
                              /opt/gcc-arm-none-eabi-10.3-2021.10/bin/../lib/gcc/arm-none-eabi/10.3.1/../../../../arm-none-eabi/lib/thumb/v8-m.main/nofp/libg_nano.a(lib_a-makebuf.o) (_fstat_r)
/opt/gcc-arm-none-eabi-10.3-2021.10/bin/../lib/gcc/arm-none-eabi/10.3.1/../../../../arm-none-eabi/lib/thumb/v8-m.main/nofp/libg_nano.a(lib_a-isattyr.o)
                              /opt/gcc-arm-none-eabi-10.3-2021.10/bin/../lib/gcc/arm-none-eabi/10.3.1/../../../../arm-none-eabi/lib/thumb/v8-m.main/nofp/libg_nano.a(lib_a-makebuf.o) (_isatty_r)
/opt/gcc-arm-none-eabi-10.3-2021.10/bin/../lib/gcc/arm-none-eabi/10.3.1/../../../../arm-none-eabi/lib/thumb/v8-m.main/nofp/libg_nano.a(lib_a-lseekr.o)
                              /opt/gcc-arm-none-eabi-10.3-2021.10/bin/../lib/gcc/arm-none-eabi/10.3.1/../../../../arm-none-eabi/lib/thumb/v8-m.main/nofp/libg_nano.a(lib_a-stdio.o) (_lseek_r)
/opt/gcc-arm-none-eabi-10.3-2021.10/bin/../lib/gcc/arm-none-eabi/10.3.1/../../../../arm-none-eabi/lib/thumb/v8-m.main/nofp/libg_nano.a(lib_a-mlock.o)
                              /opt/gcc-arm-none-eabi-10.3-2021.10/bin/../lib/gcc/arm-none-eabi/10.3.1/../../../../arm-none-eabi/lib/thumb/v8-m.main/nofp/libg_nano.a(lib_a-nano-freer.o) (__malloc_lock)
/opt/gcc-arm-none-eabi-10.3-2021.10/bin/../lib/gcc/arm-none-eabi/10.3.1/../../../../arm-none-eabi/lib/thumb/v8-m.main/nofp/libg_nano.a(lib_a-nano-msizer.o)
                              /opt/gcc-arm-none-eabi-10.3-2021.10/bin/../lib/gcc/arm-none-eabi/10.3.1/../../../../arm-none-eabi/lib/thumb/v8-m.main/nofp/libg_nano.a(lib_a-nano-reallocr.o) (_malloc_usable_size_r)
/opt/gcc-arm-none-eabi-10.3-2021.10/bin/../lib/gcc/arm-none-eabi/10.3.1/../../../../arm-none-eabi/lib/thumb/v8-m.main/nofp/libg_nano.a(lib_a-readr.o)
                              /opt/gcc-arm-none-eabi-10.3-2021.10/bin/../lib/gcc/arm-none-eabi/10.3.1/../../../../arm-none-eabi/lib/thumb/v8-m.main/nofp/libg_nano.a(lib_a-stdio.o) (_read_r)
/opt/gcc-arm-none-eabi-10.3-2021.10/bin/../lib/gcc/arm-none-eabi/10.3.1/../../../../arm-none-eabi/lib/thumb/v8-m.main/nofp/libg_nano.a(lib_a-reent.o)
                              /opt/gcc-arm-none-eabi-10.3-2021.10/bin/../lib/gcc/arm-none-eabi/10.3.1/../../../../arm-none-eabi/lib/thumb/v8-m.main/nofp/libg_nano.a(lib_a-sbrkr.o) (errno)
/opt/gcc-arm-none-eabi-10.3-2021.10/bin/../lib/gcc/arm-none-eabi/10.3.1/../../../../arm-none-eabi/lib/thumb/v8-m.main/nofp/libnosys.a(close.o)
                              /opt/gcc-arm-none-eabi-10.3-2021.10/bin/../lib/gcc/arm-none-eabi/10.3.1/../../../../arm-none-eabi/lib/thumb/v8-m.main/nofp/libg_nano.a(lib_a-closer.o) (_close)
/opt/gcc-arm-none-eabi-10.3-2021.10/bin/../lib/gcc/arm-none-eabi/10.3.1/../../../../arm-none-eabi/lib/thumb/v8-m.main/nofp/libnosys.a(fstat.o)
                              /opt/gcc-arm-none-eabi-10.3-2021.10/bin/../lib/gcc/arm-none-eabi/10.3.1/../../../../arm-none-eabi/lib/thumb/v8-m.main/nofp/libg_nano.a(lib_a-fstatr.o) (_fstat)
/opt/gcc-arm-none-eabi-10.3-2021.10/bin/../lib/gcc/arm-none-eabi/10.3.1/../../../../arm-none-eabi/lib/thumb/v8-m.main/nofp/libnosys.a(getpid.o)
                              /opt/gcc-arm-none-eabi-10.3-2021.10/bin/../lib/gcc/arm-none-eabi/10.3.1/../../../../arm-none-eabi/lib/thumb/v8-m.main/nofp/libg_nano.a(lib_a-signalr.o) (_getpid)
/opt/gcc-arm-none-eabi-10.3-2021.10/bin/../lib/gcc/arm-none-eabi/10.3.1/../../../../arm-none-eabi/lib/thumb/v8-m.main/nofp/libnosys.a(isatty.o)
                              /opt/gcc-arm-none-eabi-10.3-2021.10/bin/../lib/gcc/arm-none-eabi/10.3.1/../../../../arm-none-eabi/lib/thumb/v8-m.main/nofp/libg_nano.a(lib_a-isattyr.o) (_isatty)
/opt/gcc-arm-none-eabi-10.3-2021.10/bin/../lib/gcc/arm-none-eabi/10.3.1/../../../../arm-none-eabi/lib/thumb/v8-m.main/nofp/libnosys.a(kill.o)
                              /opt/gcc-arm-none-eabi-10.3-2021.10/bin/../lib/gcc/arm-none-eabi/10.3.1/../../../../arm-none-eabi/lib/thumb/v8-m.main/nofp/libg_nano.a(lib_a-signalr.o) (_kill)
/opt/gcc-arm-none-eabi-10.3-2021.10/bin/../lib/gcc/arm-none-eabi/10.3.1/../../../../arm-none-eabi/lib/thumb/v8-m.main/nofp/libnosys.a(lseek.o)
                              /opt/gcc-arm-none-eabi-10.3-2021.10/bin/../lib/gcc/arm-none-eabi/10.3.1/../../../../arm-none-eabi/lib/thumb/v8-m.main/nofp/libg_nano.a(lib_a-lseekr.o) (_lseek)
/opt/gcc-arm-none-eabi-10.3-2021.10/bin/../lib/gcc/arm-none-eabi/10.3.1/../../../../arm-none-eabi/lib/thumb/v8-m.main/nofp/libnosys.a(read.o)
                              /opt/gcc-arm-none-eabi-10.3-2021.10/bin/../lib/gcc/arm-none-eabi/10.3.1/../../../../arm-none-eabi/lib/thumb/v8-m.main/nofp/libg_nano.a(lib_a-readr.o) (_read)
/opt/gcc-arm-none-eabi-10.3-2021.10/bin/../lib/gcc/arm-none-eabi/10.3.1/../../../../arm-none-eabi/lib/thumb/v8-m.main/nofp/libnosys.a(sbrk.o)
                              /opt/gcc-arm-none-eabi-10.3-2021.10/bin/../lib/gcc/arm-none-eabi/10.3.1/../../../../arm-none-eabi/lib/thumb/v8-m.main/nofp/libg_nano.a(lib_a-sbrkr.o) (_sbrk)
/opt/gcc-arm-none-eabi-10.3-2021.10/bin/../lib/gcc/arm-none-eabi/10.3.1/../../../../arm-none-eabi/lib/thumb/v8-m.main/nofp/libnosys.a(_exit.o)
                              /opt/gcc-arm-none-eabi-10.3-2021.10/bin/../lib/gcc/arm-none-eabi/10.3.1/../../../../arm-none-eabi/lib/thumb/v8-m.main/nofp/libg_nano.a(lib_a-exit.o) (_exit)

Discarded input sections

 .text          0x0000000000000000        0x0 /opt/gcc-arm-none-eabi-10.3-2021.10/bin/../lib/gcc/arm-none-eabi/10.3.1/thumb/v8-m.main/nofp/crti.o
 .data          0x0000000000000000        0x0 /opt/gcc-arm-none-eabi-10.3-2021.10/bin/../lib/gcc/arm-none-eabi/10.3.1/thumb/v8-m.main/nofp/crti.o
 .bss           0x0000000000000000        0x0 /opt/gcc-arm-none-eabi-10.3-2021.10/bin/../lib/gcc/arm-none-eabi/10.3.1/thumb/v8-m.main/nofp/crti.o
 .data          0x0000000000000000        0x4 /opt/gcc-arm-none-eabi-10.3-2021.10/bin/../lib/gcc/arm-none-eabi/10.3.1/thumb/v8-m.main/nofp/crtbegin.o
 .rodata        0x0000000000000000       0x24 /opt/gcc-arm-none-eabi-10.3-2021.10/bin/../lib/gcc/arm-none-eabi/10.3.1/thumb/v8-m.main/nofp/crtbegin.o
 .data          0x0000000000000000        0x0 /opt/gcc-arm-none-eabi-10.3-2021.10/bin/../lib/gcc/arm-none-eabi/10.3.1/../../../../arm-none-eabi/lib/thumb/v8-m.main/nofp/crt0.o
 .bss           0x0000000000000000        0x0 /opt/gcc-arm-none-eabi-10.3-2021.10/bin/../lib/gcc/arm-none-eabi/10.3.1/../../../../arm-none-eabi/lib/thumb/v8-m.main/nofp/crt0.o
 .ARM.extab     0x0000000000000000        0x0 /opt/gcc-arm-none-eabi-10.3-2021.10/bin/../lib/gcc/arm-none-eabi/10.3.1/../../../../arm-none-eabi/lib/thumb/v8-m.main/nofp/crt0.o
 .text          0x0000000000000000        0x0 CMakeFiles/tfm_ns.dir/main_ns.o
 .data          0x0000000000000000        0x0 CMakeFiles/tfm_ns.dir/main_ns.o
 .bss           0x0000000000000000        0x0 CMakeFiles/tfm_ns.dir/main_ns.o
 .text.tfm_ns_platform_uninit
                0x0000000000000000        0xa CMakeFiles/tfm_ns.dir/main_ns.o
 .text          0x0000000000000000        0x0 CMakeFiles/tfm_ns.dir/__/__/__/__/__/platform/ext/target/stm/common/stm32l5xx/Device/Source/startup_stm32l5xx_ns.o
 .data          0x0000000000000000        0x0 CMakeFiles/tfm_ns.dir/__/__/__/__/__/platform/ext/target/stm/common/stm32l5xx/Device/Source/startup_stm32l5xx_ns.o
 .bss           0x0000000000000000        0x0 CMakeFiles/tfm_ns.dir/__/__/__/__/__/platform/ext/target/stm/common/stm32l5xx/Device/Source/startup_stm32l5xx_ns.o
 .text.SVC_Handler
                0x0000000000000000        0x2 CMakeFiles/tfm_ns.dir/__/__/__/__/__/platform/ext/target/stm/common/stm32l5xx/Device/Source/startup_stm32l5xx_ns.o
 .text.PendSV_Handler
                0x0000000000000000        0x2 CMakeFiles/tfm_ns.dir/__/__/__/__/__/platform/ext/target/stm/common/stm32l5xx/Device/Source/startup_stm32l5xx_ns.o
 .text.SysTick_Handler
                0x0000000000000000        0x2 CMakeFiles/tfm_ns.dir/__/__/__/__/__/platform/ext/target/stm/common/stm32l5xx/Device/Source/startup_stm32l5xx_ns.o
 .text          0x0000000000000000        0x0 CMakeFiles/tfm_ns.dir/__/ns_interface/ns_client_ext/tz_shim_layer.o
 .data          0x0000000000000000        0x0 CMakeFiles/tfm_ns.dir/__/ns_interface/ns_client_ext/tz_shim_layer.o
 .bss           0x0000000000000000        0x0 CMakeFiles/tfm_ns.dir/__/ns_interface/ns_client_ext/tz_shim_layer.o
 .text          0x0000000000000000        0x0 CMakeFiles/tfm_ns.dir/__/CMSIS/RTOS2/RTX/Config/RTX_Config.o
 .data          0x0000000000000000        0x0 CMakeFiles/tfm_ns.dir/__/CMSIS/RTOS2/RTX/Config/RTX_Config.o
 .bss           0x0000000000000000        0x0 CMakeFiles/tfm_ns.dir/__/CMSIS/RTOS2/RTX/Config/RTX_Config.o
 .text          0x0000000000000000        0x0 CMakeFiles/tfm_ns.dir/__/CMSIS/RTOS2/RTX/Source/rtx_lib.o
 .data          0x0000000000000000        0x0 CMakeFiles/tfm_ns.dir/__/CMSIS/RTOS2/RTX/Source/rtx_lib.o
 .bss           0x0000000000000000        0x0 CMakeFiles/tfm_ns.dir/__/CMSIS/RTOS2/RTX/Source/rtx_lib.o
 .data.irqRtxLibRef
                0x0000000000000000        0x4 CMakeFiles/tfm_ns.dir/__/CMSIS/RTOS2/RTX/Source/rtx_lib.o
 .text          0x0000000000000000        0x0 CMakeFiles/tfm_ns.dir/os_wrapper_cmsis_rtos_v2.o
 .data          0x0000000000000000        0x0 CMakeFiles/tfm_ns.dir/os_wrapper_cmsis_rtos_v2.o
 .bss           0x0000000000000000        0x0 CMakeFiles/tfm_ns.dir/os_wrapper_cmsis_rtos_v2.o
 .text.os_wrapper_thread_new
                0x0000000000000000       0x36 CMakeFiles/tfm_ns.dir/os_wrapper_cmsis_rtos_v2.o
 .text.os_wrapper_semaphore_create
                0x0000000000000000       0x18 CMakeFiles/tfm_ns.dir/os_wrapper_cmsis_rtos_v2.o
 .text.os_wrapper_semaphore_acquire
                0x0000000000000000       0x10 CMakeFiles/tfm_ns.dir/os_wrapper_cmsis_rtos_v2.o
 .text.os_wrapper_semaphore_release
                0x0000000000000000       0x10 CMakeFiles/tfm_ns.dir/os_wrapper_cmsis_rtos_v2.o
 .text.os_wrapper_semaphore_delete
                0x0000000000000000       0x10 CMakeFiles/tfm_ns.dir/os_wrapper_cmsis_rtos_v2.o
 .text.os_wrapper_mutex_acquire
                0x0000000000000000       0x18 CMakeFiles/tfm_ns.dir/os_wrapper_cmsis_rtos_v2.o
 .text.os_wrapper_mutex_release
                0x0000000000000000       0x18 CMakeFiles/tfm_ns.dir/os_wrapper_cmsis_rtos_v2.o
 .text.os_wrapper_mutex_delete
                0x0000000000000000       0x18 CMakeFiles/tfm_ns.dir/os_wrapper_cmsis_rtos_v2.o
 .text.os_wrapper_thread_get_handle
                0x0000000000000000        0x4 CMakeFiles/tfm_ns.dir/os_wrapper_cmsis_rtos_v2.o
 .text.os_wrapper_thread_get_priority
                0x0000000000000000       0x12 CMakeFiles/tfm_ns.dir/os_wrapper_cmsis_rtos_v2.o
 .text.os_wrapper_thread_exit
                0x0000000000000000        0x6 CMakeFiles/tfm_ns.dir/os_wrapper_cmsis_rtos_v2.o
 .text.os_wrapper_thread_set_flag
                0x0000000000000000        0xa CMakeFiles/tfm_ns.dir/os_wrapper_cmsis_rtos_v2.o
 .text.os_wrapper_thread_set_flag_isr
                0x0000000000000000        0x4 CMakeFiles/tfm_ns.dir/os_wrapper_cmsis_rtos_v2.o
 .text.os_wrapper_thread_wait_flag
                0x0000000000000000        0xe CMakeFiles/tfm_ns.dir/os_wrapper_cmsis_rtos_v2.o
 .text.os_wrapper_get_tick
                0x0000000000000000        0x4 CMakeFiles/tfm_ns.dir/os_wrapper_cmsis_rtos_v2.o
 .text.os_wrapper_msg_queue_create
                0x0000000000000000        0xc CMakeFiles/tfm_ns.dir/os_wrapper_cmsis_rtos_v2.o
 .text.os_wrapper_msg_queue_send
                0x0000000000000000       0x14 CMakeFiles/tfm_ns.dir/os_wrapper_cmsis_rtos_v2.o
 .text.os_wrapper_msg_queue_receive
                0x0000000000000000       0x16 CMakeFiles/tfm_ns.dir/os_wrapper_cmsis_rtos_v2.o
 .text.os_wrapper_delay
                0x0000000000000000       0x10 CMakeFiles/tfm_ns.dir/os_wrapper_cmsis_rtos_v2.o
 .text          0x0000000000000000        0x0 CMakeFiles/tfm_ns.dir/__/log/tfm_log_raw.o
 .data          0x0000000000000000        0x0 CMakeFiles/tfm_ns.dir/__/log/tfm_log_raw.o
 .bss           0x0000000000000000        0x0 CMakeFiles/tfm_ns.dir/__/log/tfm_log_raw.o
 .text          0x0000000000000000        0x0 ../../platform/ns/libplatform_ns.a(uart_stdout.o)
 .data          0x0000000000000000        0x0 ../../platform/ns/libplatform_ns.a(uart_stdout.o)
 .bss           0x0000000000000000        0x0 ../../platform/ns/libplatform_ns.a(uart_stdout.o)
 .text.stdio_uninit
                0x0000000000000000       0x30 ../../platform/ns/libplatform_ns.a(uart_stdout.o)
 .rodata.__func__.0
                0x0000000000000000        0xd ../../platform/ns/libplatform_ns.a(uart_stdout.o)
 .text          0x0000000000000000        0x0 ../../platform/ns/libplatform_ns.a(system_stm32l5xx.o)
 .data          0x0000000000000000        0x0 ../../platform/ns/libplatform_ns.a(system_stm32l5xx.o)
 .bss           0x0000000000000000        0x0 ../../platform/ns/libplatform_ns.a(system_stm32l5xx.o)
 .text.SystemCoreClockUpdate
                0x0000000000000000       0x9c ../../platform/ns/libplatform_ns.a(system_stm32l5xx.o)
 .text          0x0000000000000000        0x0 ../../platform/ns/libplatform_ns.a(low_level_com.o)
 .data          0x0000000000000000        0x0 ../../platform/ns/libplatform_ns.a(low_level_com.o)
 .bss           0x0000000000000000        0x0 ../../platform/ns/libplatform_ns.a(low_level_com.o)
 .text          0x0000000000000000        0x0 ../../platform/ns/libplatform_ns.a(stm32l5xx_hal_pwr_ex.o)
 .data          0x0000000000000000        0x0 ../../platform/ns/libplatform_ns.a(stm32l5xx_hal_pwr_ex.o)
 .bss           0x0000000000000000        0x0 ../../platform/ns/libplatform_ns.a(stm32l5xx_hal_pwr_ex.o)
 .text.HAL_PWREx_GetVoltageRange
                0x0000000000000000       0x10 ../../platform/ns/libplatform_ns.a(stm32l5xx_hal_pwr_ex.o)
 .text.HAL_PWREx_EnableBatteryCharging
                0x0000000000000000       0x1c ../../platform/ns/libplatform_ns.a(stm32l5xx_hal_pwr_ex.o)
 .text.HAL_PWREx_DisableBatteryCharging
                0x0000000000000000       0x10 ../../platform/ns/libplatform_ns.a(stm32l5xx_hal_pwr_ex.o)
 .text.HAL_PWREx_EnableVddUSB
                0x0000000000000000       0x10 ../../platform/ns/libplatform_ns.a(stm32l5xx_hal_pwr_ex.o)
 .text.HAL_PWREx_DisableVddUSB
                0x0000000000000000       0x10 ../../platform/ns/libplatform_ns.a(stm32l5xx_hal_pwr_ex.o)
 .text.HAL_PWREx_DisableVddIO2
                0x0000000000000000       0x10 ../../platform/ns/libplatform_ns.a(stm32l5xx_hal_pwr_ex.o)
 .text.HAL_PWREx_EnableGPIOPullUp
                0x0000000000000000       0xbc ../../platform/ns/libplatform_ns.a(stm32l5xx_hal_pwr_ex.o)
 .text.HAL_PWREx_DisableGPIOPullUp
                0x0000000000000000       0x84 ../../platform/ns/libplatform_ns.a(stm32l5xx_hal_pwr_ex.o)
 .text.HAL_PWREx_EnableGPIOPullDown
                0x0000000000000000       0xbc ../../platform/ns/libplatform_ns.a(stm32l5xx_hal_pwr_ex.o)
 .text.HAL_PWREx_DisableGPIOPullDown
                0x0000000000000000       0x88 ../../platform/ns/libplatform_ns.a(stm32l5xx_hal_pwr_ex.o)
 .text.HAL_PWREx_EnablePullUpPullDownConfig
                0x0000000000000000       0x10 ../../platform/ns/libplatform_ns.a(stm32l5xx_hal_pwr_ex.o)
 .text.HAL_PWREx_DisablePullUpPullDownConfig
                0x0000000000000000       0x10 ../../platform/ns/libplatform_ns.a(stm32l5xx_hal_pwr_ex.o)
 .text.HAL_PWREx_ConfigSRAM2ContentRetention
                0x0000000000000000       0x14 ../../platform/ns/libplatform_ns.a(stm32l5xx_hal_pwr_ex.o)
 .text.HAL_PWREx_EnableSRAM2ContentRetention
                0x0000000000000000        0x8 ../../platform/ns/libplatform_ns.a(stm32l5xx_hal_pwr_ex.o)
 .text.HAL_PWREx_DisableSRAM2ContentRetention
                0x0000000000000000        0x6 ../../platform/ns/libplatform_ns.a(stm32l5xx_hal_pwr_ex.o)
 .text.HAL_PWREx_EnablePVM1
                0x0000000000000000       0x10 ../../platform/ns/libplatform_ns.a(stm32l5xx_hal_pwr_ex.o)
 .text.HAL_PWREx_DisablePVM1
                0x0000000000000000       0x10 ../../platform/ns/libplatform_ns.a(stm32l5xx_hal_pwr_ex.o)
 .text.HAL_PWREx_EnablePVM2
                0x0000000000000000       0x10 ../../platform/ns/libplatform_ns.a(stm32l5xx_hal_pwr_ex.o)
 .text.HAL_PWREx_DisablePVM2
                0x0000000000000000       0x10 ../../platform/ns/libplatform_ns.a(stm32l5xx_hal_pwr_ex.o)
 .text.HAL_PWREx_EnablePVM3
                0x0000000000000000       0x10 ../../platform/ns/libplatform_ns.a(stm32l5xx_hal_pwr_ex.o)
 .text.HAL_PWREx_DisablePVM3
                0x0000000000000000       0x10 ../../platform/ns/libplatform_ns.a(stm32l5xx_hal_pwr_ex.o)
 .text.HAL_PWREx_EnablePVM4
                0x0000000000000000       0x10 ../../platform/ns/libplatform_ns.a(stm32l5xx_hal_pwr_ex.o)
 .text.HAL_PWREx_DisablePVM4
                0x0000000000000000       0x10 ../../platform/ns/libplatform_ns.a(stm32l5xx_hal_pwr_ex.o)
 .text.HAL_PWREx_ConfigPVM
                0x0000000000000000      0x1c4 ../../platform/ns/libplatform_ns.a(stm32l5xx_hal_pwr_ex.o)
 .text.HAL_PWREx_EnableLowPowerRunMode
                0x0000000000000000       0x10 ../../platform/ns/libplatform_ns.a(stm32l5xx_hal_pwr_ex.o)
 .text.HAL_PWREx_DisableLowPowerRunMode
                0x0000000000000000       0x48 ../../platform/ns/libplatform_ns.a(stm32l5xx_hal_pwr_ex.o)
 .text.HAL_PWREx_EnterSTOP0Mode
                0x0000000000000000       0x34 ../../platform/ns/libplatform_ns.a(stm32l5xx_hal_pwr_ex.o)
 .text.HAL_PWREx_EnterSTOP1Mode
                0x0000000000000000       0x38 ../../platform/ns/libplatform_ns.a(stm32l5xx_hal_pwr_ex.o)
 .text.HAL_PWREx_EnterSTOP2Mode
                0x0000000000000000       0x38 ../../platform/ns/libplatform_ns.a(stm32l5xx_hal_pwr_ex.o)
 .text.HAL_PWREx_EnterSHUTDOWNMode
                0x0000000000000000       0x24 ../../platform/ns/libplatform_ns.a(stm32l5xx_hal_pwr_ex.o)
 .text.HAL_PWREx_PVM1Callback
                0x0000000000000000        0x2 ../../platform/ns/libplatform_ns.a(stm32l5xx_hal_pwr_ex.o)
 .text.HAL_PWREx_PVM2Callback
                0x0000000000000000        0x2 ../../platform/ns/libplatform_ns.a(stm32l5xx_hal_pwr_ex.o)
 .text.HAL_PWREx_PVM3Callback
                0x0000000000000000        0x2 ../../platform/ns/libplatform_ns.a(stm32l5xx_hal_pwr_ex.o)
 .text.HAL_PWREx_PVM4Callback
                0x0000000000000000        0x2 ../../platform/ns/libplatform_ns.a(stm32l5xx_hal_pwr_ex.o)
 .text.HAL_PWREx_PVD_PVM_IRQHandler
                0x0000000000000000       0x64 ../../platform/ns/libplatform_ns.a(stm32l5xx_hal_pwr_ex.o)
 .text.HAL_PWREx_EnableUCPDStandbyMode
                0x0000000000000000       0x10 ../../platform/ns/libplatform_ns.a(stm32l5xx_hal_pwr_ex.o)
 .text.HAL_PWREx_DisableUCPDStandbyMode
                0x0000000000000000       0x10 ../../platform/ns/libplatform_ns.a(stm32l5xx_hal_pwr_ex.o)
 .text.HAL_PWREx_EnableUCPDDeadBattery
                0x0000000000000000       0x10 ../../platform/ns/libplatform_ns.a(stm32l5xx_hal_pwr_ex.o)
 .text.HAL_PWREx_DisableUCPDDeadBattery
                0x0000000000000000       0x10 ../../platform/ns/libplatform_ns.a(stm32l5xx_hal_pwr_ex.o)
 .text.HAL_PWREx_EnableUltraLowPowerMode
                0x0000000000000000       0x10 ../../platform/ns/libplatform_ns.a(stm32l5xx_hal_pwr_ex.o)
 .text.HAL_PWREx_DisableUltraLowPowerMode
                0x0000000000000000       0x10 ../../platform/ns/libplatform_ns.a(stm32l5xx_hal_pwr_ex.o)
 .text.HAL_PWREx_SMPS_GetEffectiveMode
                0x0000000000000000       0x20 ../../platform/ns/libplatform_ns.a(stm32l5xx_hal_pwr_ex.o)
 .text.HAL_PWREx_ControlVoltageScaling
                0x0000000000000000       0x6c ../../platform/ns/libplatform_ns.a(stm32l5xx_hal_pwr_ex.o)
 .text.HAL_PWREx_SMPS_EnableFastStart
                0x0000000000000000       0x10 ../../platform/ns/libplatform_ns.a(stm32l5xx_hal_pwr_ex.o)
 .text.HAL_PWREx_SMPS_DisableFastStart
                0x0000000000000000       0x10 ../../platform/ns/libplatform_ns.a(stm32l5xx_hal_pwr_ex.o)
 .text.HAL_PWREx_SMPS_DisableBypassMode
                0x0000000000000000       0x10 ../../platform/ns/libplatform_ns.a(stm32l5xx_hal_pwr_ex.o)
 .text.HAL_PWREx_SMPS_EnableBypassMode
                0x0000000000000000       0x10 ../../platform/ns/libplatform_ns.a(stm32l5xx_hal_pwr_ex.o)
 .text.HAL_PWREx_SMPS_SetMode
                0x0000000000000000       0x84 ../../platform/ns/libplatform_ns.a(stm32l5xx_hal_pwr_ex.o)
 .text.HAL_PWREx_SMPS_EnableExternal
                0x0000000000000000       0x10 ../../platform/ns/libplatform_ns.a(stm32l5xx_hal_pwr_ex.o)
 .text.HAL_PWREx_SMPS_DisableExternal
                0x0000000000000000       0x10 ../../platform/ns/libplatform_ns.a(stm32l5xx_hal_pwr_ex.o)
 .text.HAL_PWREx_SMPS_GetMainRegulatorExtSMPSReadyStatus
                0x0000000000000000       0x10 ../../platform/ns/libplatform_ns.a(stm32l5xx_hal_pwr_ex.o)
 .text          0x0000000000000000        0x0 ../../platform/ns/libplatform_ns.a(stm32l5xx_hal_gpio.o)
 .data          0x0000000000000000        0x0 ../../platform/ns/libplatform_ns.a(stm32l5xx_hal_gpio.o)
 .bss           0x0000000000000000        0x0 ../../platform/ns/libplatform_ns.a(stm32l5xx_hal_gpio.o)
 .text.HAL_GPIO_DeInit
                0x0000000000000000      0x124 ../../platform/ns/libplatform_ns.a(stm32l5xx_hal_gpio.o)
 .text.HAL_GPIO_ReadPin
                0x0000000000000000        0xc ../../platform/ns/libplatform_ns.a(stm32l5xx_hal_gpio.o)
 .text.HAL_GPIO_WritePin
                0x0000000000000000        0xa ../../platform/ns/libplatform_ns.a(stm32l5xx_hal_gpio.o)
 .text.HAL_GPIO_TogglePin
                0x0000000000000000       0x12 ../../platform/ns/libplatform_ns.a(stm32l5xx_hal_gpio.o)
 .text.HAL_GPIO_LockPin
                0x0000000000000000       0x2a ../../platform/ns/libplatform_ns.a(stm32l5xx_hal_gpio.o)
 .text.HAL_GPIO_EXTI_Rising_Callback
                0x0000000000000000        0x2 ../../platform/ns/libplatform_ns.a(stm32l5xx_hal_gpio.o)
 .text.HAL_GPIO_EXTI_Falling_Callback
                0x0000000000000000        0x2 ../../platform/ns/libplatform_ns.a(stm32l5xx_hal_gpio.o)
 .text.HAL_GPIO_EXTI_IRQHandler
                0x0000000000000000       0x28 ../../platform/ns/libplatform_ns.a(stm32l5xx_hal_gpio.o)
 .text          0x0000000000000000        0x0 ../../platform/ns/libplatform_ns.a(stm32l5xx_hal_uart.o)
 .data          0x0000000000000000        0x0 ../../platform/ns/libplatform_ns.a(stm32l5xx_hal_uart.o)
 .bss           0x0000000000000000        0x0 ../../platform/ns/libplatform_ns.a(stm32l5xx_hal_uart.o)
 .text.UART_EndRxTransfer
                0x0000000000000000       0x32 ../../platform/ns/libplatform_ns.a(stm32l5xx_hal_uart.o)
 .text.UART_TxISR_8BIT
                0x0000000000000000       0x3c ../../platform/ns/libplatform_ns.a(stm32l5xx_hal_uart.o)
 .text.UART_TxISR_16BIT
                0x0000000000000000       0x40 ../../platform/ns/libplatform_ns.a(stm32l5xx_hal_uart.o)
 .text.UART_TxISR_8BIT_FIFOEN
                0x0000000000000000       0x4e ../../platform/ns/libplatform_ns.a(stm32l5xx_hal_uart.o)
 .text.UART_TxISR_16BIT_FIFOEN
                0x0000000000000000       0x52 ../../platform/ns/libplatform_ns.a(stm32l5xx_hal_uart.o)
 .text.HAL_UART_MspDeInit
                0x0000000000000000        0x2 ../../platform/ns/libplatform_ns.a(stm32l5xx_hal_uart.o)
 .text.HAL_UART_DeInit
                0x0000000000000000       0x3c ../../platform/ns/libplatform_ns.a(stm32l5xx_hal_uart.o)
 .text.HAL_UART_Transmit_IT
                0x0000000000000000       0xac ../../platform/ns/libplatform_ns.a(stm32l5xx_hal_uart.o)
 .text.HAL_UART_Transmit_DMA
                0x0000000000000000       0x94 ../../platform/ns/libplatform_ns.a(stm32l5xx_hal_uart.o)
 .text.HAL_UART_DMAPause
                0x0000000000000000       0x5c ../../platform/ns/libplatform_ns.a(stm32l5xx_hal_uart.o)
 .text.HAL_UART_DMAResume
                0x0000000000000000       0x54 ../../platform/ns/libplatform_ns.a(stm32l5xx_hal_uart.o)
 .text.HAL_UART_DMAStop
                0x0000000000000000       0x8a ../../platform/ns/libplatform_ns.a(stm32l5xx_hal_uart.o)
 .text.HAL_UART_Abort
                0x0000000000000000       0xbc ../../platform/ns/libplatform_ns.a(stm32l5xx_hal_uart.o)
 .text.HAL_UART_AbortTransmit
                0x0000000000000000       0x68 ../../platform/ns/libplatform_ns.a(stm32l5xx_hal_uart.o)
 .text.HAL_UART_AbortReceive
                0x0000000000000000       0x76 ../../platform/ns/libplatform_ns.a(stm32l5xx_hal_uart.o)
 .text.HAL_UART_TxCpltCallback
                0x0000000000000000        0x2 ../../platform/ns/libplatform_ns.a(stm32l5xx_hal_uart.o)
 .text.UART_DMATransmitCplt
                0x0000000000000000       0x2e ../../platform/ns/libplatform_ns.a(stm32l5xx_hal_uart.o)
 .text.HAL_UART_TxHalfCpltCallback
                0x0000000000000000        0x2 ../../platform/ns/libplatform_ns.a(stm32l5xx_hal_uart.o)
 .text.UART_DMATxHalfCplt
                0x0000000000000000        0xa ../../platform/ns/libplatform_ns.a(stm32l5xx_hal_uart.o)
 .text.HAL_UART_RxHalfCpltCallback
                0x0000000000000000        0x2 ../../platform/ns/libplatform_ns.a(stm32l5xx_hal_uart.o)
 .text.UART_DMAError
                0x0000000000000000       0x5a ../../platform/ns/libplatform_ns.a(stm32l5xx_hal_uart.o)
 .text.UART_DMAAbortOnError
                0x0000000000000000       0x14 ../../platform/ns/libplatform_ns.a(stm32l5xx_hal_uart.o)
 .text.HAL_UART_AbortCpltCallback
                0x0000000000000000        0x2 ../../platform/ns/libplatform_ns.a(stm32l5xx_hal_uart.o)
 .text.HAL_UART_Abort_IT
                0x0000000000000000       0xe8 ../../platform/ns/libplatform_ns.a(stm32l5xx_hal_uart.o)
 .text.UART_DMARxAbortCallback
                0x0000000000000000       0x3e ../../platform/ns/libplatform_ns.a(stm32l5xx_hal_uart.o)
 .text.UART_DMATxAbortCallback
                0x0000000000000000       0x48 ../../platform/ns/libplatform_ns.a(stm32l5xx_hal_uart.o)
 .text.HAL_UART_AbortTransmitCpltCallback
                0x0000000000000000        0x2 ../../platform/ns/libplatform_ns.a(stm32l5xx_hal_uart.o)
 .text.HAL_UART_AbortTransmit_IT
                0x0000000000000000       0x74 ../../platform/ns/libplatform_ns.a(stm32l5xx_hal_uart.o)
 .text.UART_DMATxOnlyAbortCallback
                0x0000000000000000       0x28 ../../platform/ns/libplatform_ns.a(stm32l5xx_hal_uart.o)
 .text.HAL_UART_AbortReceiveCpltCallback
                0x0000000000000000        0x2 ../../platform/ns/libplatform_ns.a(stm32l5xx_hal_uart.o)
 .text.HAL_UART_AbortReceive_IT
                0x0000000000000000       0x8c ../../platform/ns/libplatform_ns.a(stm32l5xx_hal_uart.o)
 .text.UART_DMARxOnlyAbortCallback
                0x0000000000000000       0x26 ../../platform/ns/libplatform_ns.a(stm32l5xx_hal_uart.o)
 .text.HAL_UART_IRQHandler
                0x0000000000000000      0x278 ../../platform/ns/libplatform_ns.a(stm32l5xx_hal_uart.o)
 .text.UART_DMARxHalfCplt
                0x0000000000000000       0x1c ../../platform/ns/libplatform_ns.a(stm32l5xx_hal_uart.o)
 .text.UART_DMAReceiveCplt
                0x0000000000000000       0x58 ../../platform/ns/libplatform_ns.a(stm32l5xx_hal_uart.o)
 .text.HAL_UART_ReceiverTimeout_Config
                0x0000000000000000       0x18 ../../platform/ns/libplatform_ns.a(stm32l5xx_hal_uart.o)
 .text.HAL_UART_EnableReceiverTimeout
                0x0000000000000000       0x40 ../../platform/ns/libplatform_ns.a(stm32l5xx_hal_uart.o)
 .text.HAL_UART_DisableReceiverTimeout
                0x0000000000000000       0x40 ../../platform/ns/libplatform_ns.a(stm32l5xx_hal_uart.o)
 .text.HAL_MultiProcessor_EnterMuteMode
                0x0000000000000000        0xc ../../platform/ns/libplatform_ns.a(stm32l5xx_hal_uart.o)
 .text.HAL_HalfDuplex_EnableTransmitter
                0x0000000000000000       0x34 ../../platform/ns/libplatform_ns.a(stm32l5xx_hal_uart.o)
 .text.HAL_HalfDuplex_EnableReceiver
                0x0000000000000000       0x34 ../../platform/ns/libplatform_ns.a(stm32l5xx_hal_uart.o)
 .text.HAL_LIN_SendBreak
                0x0000000000000000       0x2c ../../platform/ns/libplatform_ns.a(stm32l5xx_hal_uart.o)
 .text.HAL_UART_GetState
                0x0000000000000000        0xc ../../platform/ns/libplatform_ns.a(stm32l5xx_hal_uart.o)
 .text.HAL_UART_GetError
                0x0000000000000000        0x6 ../../platform/ns/libplatform_ns.a(stm32l5xx_hal_uart.o)
 .text.HAL_UART_Receive
                0x0000000000000000       0xf2 ../../platform/ns/libplatform_ns.a(stm32l5xx_hal_uart.o)
 .text.HAL_HalfDuplex_Init
                0x0000000000000000       0x68 ../../platform/ns/libplatform_ns.a(stm32l5xx_hal_uart.o)
 .text.HAL_LIN_Init
                0x0000000000000000       0x84 ../../platform/ns/libplatform_ns.a(stm32l5xx_hal_uart.o)
 .text.HAL_MultiProcessor_Init
                0x0000000000000000       0x82 ../../platform/ns/libplatform_ns.a(stm32l5xx_hal_uart.o)
 .text.HAL_MultiProcessor_EnableMuteMode
                0x0000000000000000       0x2c ../../platform/ns/libplatform_ns.a(stm32l5xx_hal_uart.o)
 .text.HAL_MultiProcessor_DisableMuteMode
                0x0000000000000000       0x2c ../../platform/ns/libplatform_ns.a(stm32l5xx_hal_uart.o)
 .text.UART_Start_Receive_DMA
                0x0000000000000000       0x7c ../../platform/ns/libplatform_ns.a(stm32l5xx_hal_uart.o)
 .text.HAL_UART_Receive_DMA
                0x0000000000000000       0x4c ../../platform/ns/libplatform_ns.a(stm32l5xx_hal_uart.o)
 .text          0x0000000000000000        0x0 ../../platform/ns/libplatform_ns.a(stm32l5xx_hal_uart_ex.o)
 .data          0x0000000000000000        0x0 ../../platform/ns/libplatform_ns.a(stm32l5xx_hal_uart_ex.o)
 .bss           0x0000000000000000        0x0 ../../platform/ns/libplatform_ns.a(stm32l5xx_hal_uart_ex.o)
 .text.UARTEx_SetNbDataToProcess
                0x0000000000000000       0x44 ../../platform/ns/libplatform_ns.a(stm32l5xx_hal_uart_ex.o)
 .text.HAL_RS485Ex_Init
                0x0000000000000000       0x7e ../../platform/ns/libplatform_ns.a(stm32l5xx_hal_uart_ex.o)
 .text.HAL_UARTEx_WakeupCallback
                0x0000000000000000        0x2 ../../platform/ns/libplatform_ns.a(stm32l5xx_hal_uart_ex.o)
 .text.HAL_UARTEx_RxFifoFullCallback
                0x0000000000000000        0x2 ../../platform/ns/libplatform_ns.a(stm32l5xx_hal_uart_ex.o)
 .text.HAL_UARTEx_TxFifoEmptyCallback
                0x0000000000000000        0x2 ../../platform/ns/libplatform_ns.a(stm32l5xx_hal_uart_ex.o)
 .text.HAL_MultiProcessorEx_AddressLength_Set
                0x0000000000000000       0x2c ../../platform/ns/libplatform_ns.a(stm32l5xx_hal_uart_ex.o)
 .text.HAL_UARTEx_StopModeWakeUpSourceConfig
                0x0000000000000000       0x8c ../../platform/ns/libplatform_ns.a(stm32l5xx_hal_uart_ex.o)
 .text.HAL_UARTEx_EnableStopMode
                0x0000000000000000       0x20 ../../platform/ns/libplatform_ns.a(stm32l5xx_hal_uart_ex.o)
 .text.HAL_UARTEx_DisableStopMode
                0x0000000000000000       0x20 ../../platform/ns/libplatform_ns.a(stm32l5xx_hal_uart_ex.o)
 .text.HAL_UARTEx_EnableFifoMode
                0x0000000000000000       0x46 ../../platform/ns/libplatform_ns.a(stm32l5xx_hal_uart_ex.o)
 .text.HAL_UARTEx_DisableFifoMode
                0x0000000000000000       0x36 ../../platform/ns/libplatform_ns.a(stm32l5xx_hal_uart_ex.o)
 .text.HAL_UARTEx_SetTxFifoThreshold
                0x0000000000000000       0x48 ../../platform/ns/libplatform_ns.a(stm32l5xx_hal_uart_ex.o)
 .text.HAL_UARTEx_SetRxFifoThreshold
                0x0000000000000000       0x48 ../../platform/ns/libplatform_ns.a(stm32l5xx_hal_uart_ex.o)
 .text.HAL_UARTEx_ReceiveToIdle
                0x0000000000000000      0x13c ../../platform/ns/libplatform_ns.a(stm32l5xx_hal_uart_ex.o)
 .text.HAL_UARTEx_ReceiveToIdle_IT
                0x0000000000000000       0x48 ../../platform/ns/libplatform_ns.a(stm32l5xx_hal_uart_ex.o)
 .text.HAL_UARTEx_ReceiveToIdle_DMA
                0x0000000000000000       0x48 ../../platform/ns/libplatform_ns.a(stm32l5xx_hal_uart_ex.o)
 .rodata.denominator.0
                0x0000000000000000        0x8 ../../platform/ns/libplatform_ns.a(stm32l5xx_hal_uart_ex.o)
 .rodata.numerator.1
                0x0000000000000000        0x8 ../../platform/ns/libplatform_ns.a(stm32l5xx_hal_uart_ex.o)
 .debug_info    0x0000000000000000     0x1002 ../../platform/ns/libplatform_ns.a(stm32l5xx_hal_uart_ex.o)
 .debug_abbrev  0x0000000000000000      0x2c4 ../../platform/ns/libplatform_ns.a(stm32l5xx_hal_uart_ex.o)
 .debug_loc     0x0000000000000000      0x965 ../../platform/ns/libplatform_ns.a(stm32l5xx_hal_uart_ex.o)
 .debug_aranges
                0x0000000000000000       0x88 ../../platform/ns/libplatform_ns.a(stm32l5xx_hal_uart_ex.o)
 .debug_ranges  0x0000000000000000       0x78 ../../platform/ns/libplatform_ns.a(stm32l5xx_hal_uart_ex.o)
 .debug_line    0x0000000000000000      0xb58 ../../platform/ns/libplatform_ns.a(stm32l5xx_hal_uart_ex.o)
 .debug_str     0x0000000000000000      0xb62 ../../platform/ns/libplatform_ns.a(stm32l5xx_hal_uart_ex.o)
 .comment       0x0000000000000000       0x4a ../../platform/ns/libplatform_ns.a(stm32l5xx_hal_uart_ex.o)
 .debug_frame   0x0000000000000000      0x198 ../../platform/ns/libplatform_ns.a(stm32l5xx_hal_uart_ex.o)
 .ARM.attributes
                0x0000000000000000       0x34 ../../platform/ns/libplatform_ns.a(stm32l5xx_hal_uart_ex.o)
 .text          0x0000000000000000        0x0 ../../platform/ns/libplatform_ns.a(stm32l5xx_hal.o)
 .data          0x0000000000000000        0x0 ../../platform/ns/libplatform_ns.a(stm32l5xx_hal.o)
 .bss           0x0000000000000000        0x0 ../../platform/ns/libplatform_ns.a(stm32l5xx_hal.o)
 .text.HAL_MspInit
                0x0000000000000000        0x2 ../../platform/ns/libplatform_ns.a(stm32l5xx_hal.o)
 .text.HAL_MspDeInit
                0x0000000000000000        0x2 ../../platform/ns/libplatform_ns.a(stm32l5xx_hal.o)
 .text.HAL_DeInit
                0x0000000000000000       0x30 ../../platform/ns/libplatform_ns.a(stm32l5xx_hal.o)
 .text.HAL_InitTick
                0x0000000000000000       0x4c ../../platform/ns/libplatform_ns.a(stm32l5xx_hal.o)
 .text.HAL_Init
                0x0000000000000000       0x22 ../../platform/ns/libplatform_ns.a(stm32l5xx_hal.o)
 .text.HAL_IncTick
                0x0000000000000000       0x18 ../../platform/ns/libplatform_ns.a(stm32l5xx_hal.o)
 .text.HAL_GetTickPrio
                0x0000000000000000        0xc ../../platform/ns/libplatform_ns.a(stm32l5xx_hal.o)
 .text.HAL_SetTickFreq
                0x0000000000000000       0x28 ../../platform/ns/libplatform_ns.a(stm32l5xx_hal.o)
 .text.HAL_GetTickFreq
                0x0000000000000000        0xc ../../platform/ns/libplatform_ns.a(stm32l5xx_hal.o)
 .text.HAL_Delay
                0x0000000000000000       0x24 ../../platform/ns/libplatform_ns.a(stm32l5xx_hal.o)
 .text.HAL_SuspendTick
                0x0000000000000000        0xe ../../platform/ns/libplatform_ns.a(stm32l5xx_hal.o)
 .text.HAL_ResumeTick
                0x0000000000000000        0xe ../../platform/ns/libplatform_ns.a(stm32l5xx_hal.o)
 .text.HAL_GetHalVersion
                0x0000000000000000        0x8 ../../platform/ns/libplatform_ns.a(stm32l5xx_hal.o)
 .text.HAL_GetREVID
                0x0000000000000000        0xc ../../platform/ns/libplatform_ns.a(stm32l5xx_hal.o)
 .text.HAL_GetDEVID
                0x0000000000000000       0x10 ../../platform/ns/libplatform_ns.a(stm32l5xx_hal.o)
 .text.HAL_GetUIDw0
                0x0000000000000000        0xc ../../platform/ns/libplatform_ns.a(stm32l5xx_hal.o)
 .text.HAL_GetUIDw1
                0x0000000000000000        0xc ../../platform/ns/libplatform_ns.a(stm32l5xx_hal.o)
 .text.HAL_GetUIDw2
                0x0000000000000000        0xc ../../platform/ns/libplatform_ns.a(stm32l5xx_hal.o)
 .text.HAL_DBGMCU_EnableDBGStopMode
                0x0000000000000000       0x10 ../../platform/ns/libplatform_ns.a(stm32l5xx_hal.o)
 .text.HAL_DBGMCU_DisableDBGStopMode
                0x0000000000000000       0x10 ../../platform/ns/libplatform_ns.a(stm32l5xx_hal.o)
 .text.HAL_DBGMCU_EnableDBGStandbyMode
                0x0000000000000000       0x10 ../../platform/ns/libplatform_ns.a(stm32l5xx_hal.o)
 .text.HAL_DBGMCU_DisableDBGStandbyMode
                0x0000000000000000       0x10 ../../platform/ns/libplatform_ns.a(stm32l5xx_hal.o)
 .text.HAL_SYSCFG_SRAM2Erase
                0x0000000000000000       0x18 ../../platform/ns/libplatform_ns.a(stm32l5xx_hal.o)
 .text.HAL_SYSCFG_VREFBUF_HighImpedanceConfig
                0x0000000000000000       0x14 ../../platform/ns/libplatform_ns.a(stm32l5xx_hal.o)
 .text.HAL_SYSCFG_VREFBUF_TrimmingConfig
                0x0000000000000000       0x14 ../../platform/ns/libplatform_ns.a(stm32l5xx_hal.o)
 .text.HAL_SYSCFG_VREFBUF_VoltageScalingConfig
                0x0000000000000000       0x2c ../../platform/ns/libplatform_ns.a(stm32l5xx_hal.o)
 .text.HAL_SYSCFG_EnableVREFBUF
                0x0000000000000000       0x30 ../../platform/ns/libplatform_ns.a(stm32l5xx_hal.o)
 .text.HAL_SYSCFG_DisableVREFBUF
                0x0000000000000000       0x10 ../../platform/ns/libplatform_ns.a(stm32l5xx_hal.o)
 .text.HAL_SYSCFG_EnableIOAnalogBooster
                0x0000000000000000       0x14 ../../platform/ns/libplatform_ns.a(stm32l5xx_hal.o)
 .text.HAL_SYSCFG_DisableIOAnalogBooster
                0x0000000000000000       0x10 ../../platform/ns/libplatform_ns.a(stm32l5xx_hal.o)
 .text.HAL_SYSCFG_EnableIOAnalogSwitchVdd
                0x0000000000000000       0x14 ../../platform/ns/libplatform_ns.a(stm32l5xx_hal.o)
 .text.HAL_SYSCFG_DisableIOAnalogSwitchVdd
                0x0000000000000000       0x10 ../../platform/ns/libplatform_ns.a(stm32l5xx_hal.o)
 .text.HAL_SYSCFG_Lock
                0x0000000000000000        0xc ../../platform/ns/libplatform_ns.a(stm32l5xx_hal.o)
 .text.HAL_SYSCFG_GetLock
                0x0000000000000000       0x14 ../../platform/ns/libplatform_ns.a(stm32l5xx_hal.o)
 .data.uwTickFreq
                0x0000000000000000        0x1 ../../platform/ns/libplatform_ns.a(stm32l5xx_hal.o)
 .data.uwTickPrio
                0x0000000000000000        0x4 ../../platform/ns/libplatform_ns.a(stm32l5xx_hal.o)
 .text          0x0000000000000000        0x0 ../../platform/ns/libplatform_ns.a(stm32l5xx_hal_dma.o)
 .data          0x0000000000000000        0x0 ../../platform/ns/libplatform_ns.a(stm32l5xx_hal_dma.o)
 .bss           0x0000000000000000        0x0 ../../platform/ns/libplatform_ns.a(stm32l5xx_hal_dma.o)
 .text.DMA_SetConfig
                0x0000000000000000       0x34 ../../platform/ns/libplatform_ns.a(stm32l5xx_hal_dma.o)
 .text.DMA_CalcDMAMUXChannelBaseAndMask
                0x0000000000000000       0x48 ../../platform/ns/libplatform_ns.a(stm32l5xx_hal_dma.o)
 .text.HAL_DMA_Init
                0x0000000000000000       0xe4 ../../platform/ns/libplatform_ns.a(stm32l5xx_hal_dma.o)
 .text.HAL_DMA_DeInit
                0x0000000000000000       0xb0 ../../platform/ns/libplatform_ns.a(stm32l5xx_hal_dma.o)
 .text.HAL_DMA_Start
                0x0000000000000000       0x48 ../../platform/ns/libplatform_ns.a(stm32l5xx_hal_dma.o)
 .text.HAL_DMA_Start_IT
                0x0000000000000000       0x82 ../../platform/ns/libplatform_ns.a(stm32l5xx_hal_dma.o)
 .text.HAL_DMA_Abort
                0x0000000000000000       0x68 ../../platform/ns/libplatform_ns.a(stm32l5xx_hal_dma.o)
 .text.HAL_DMA_Abort_IT
                0x0000000000000000       0x6e ../../platform/ns/libplatform_ns.a(stm32l5xx_hal_dma.o)
 .text.HAL_DMA_PollForTransfer
                0x0000000000000000      0x102 ../../platform/ns/libplatform_ns.a(stm32l5xx_hal_dma.o)
 .text.HAL_DMA_IRQHandler
                0x0000000000000000       0xc2 ../../platform/ns/libplatform_ns.a(stm32l5xx_hal_dma.o)
 .text.HAL_DMA_RegisterCallback
                0x0000000000000000       0x4e ../../platform/ns/libplatform_ns.a(stm32l5xx_hal_dma.o)
 .text.HAL_DMA_UnRegisterCallback
                0x0000000000000000       0x62 ../../platform/ns/libplatform_ns.a(stm32l5xx_hal_dma.o)
 .text.HAL_DMA_GetState
                0x0000000000000000        0x6 ../../platform/ns/libplatform_ns.a(stm32l5xx_hal_dma.o)
 .text.HAL_DMA_GetError
                0x0000000000000000        0x4 ../../platform/ns/libplatform_ns.a(stm32l5xx_hal_dma.o)
 .text.HAL_DMA_ConfigChannelAttributes
                0x0000000000000000       0x20 ../../platform/ns/libplatform_ns.a(stm32l5xx_hal_dma.o)
 .text.HAL_DMA_GetConfigChannelAttributes
                0x0000000000000000       0x1e ../../platform/ns/libplatform_ns.a(stm32l5xx_hal_dma.o)
 .debug_info    0x0000000000000000      0xb71 ../../platform/ns/libplatform_ns.a(stm32l5xx_hal_dma.o)
 .debug_abbrev  0x0000000000000000      0x2bb ../../platform/ns/libplatform_ns.a(stm32l5xx_hal_dma.o)
 .debug_loc     0x0000000000000000      0x8ce ../../platform/ns/libplatform_ns.a(stm32l5xx_hal_dma.o)
 .debug_aranges
                0x0000000000000000       0x98 ../../platform/ns/libplatform_ns.a(stm32l5xx_hal_dma.o)
 .debug_ranges  0x0000000000000000       0xa0 ../../platform/ns/libplatform_ns.a(stm32l5xx_hal_dma.o)
 .debug_line    0x0000000000000000      0xd71 ../../platform/ns/libplatform_ns.a(stm32l5xx_hal_dma.o)
 .debug_str     0x0000000000000000      0x899 ../../platform/ns/libplatform_ns.a(stm32l5xx_hal_dma.o)
 .comment       0x0000000000000000       0x4a ../../platform/ns/libplatform_ns.a(stm32l5xx_hal_dma.o)
 .debug_frame   0x0000000000000000      0x1a0 ../../platform/ns/libplatform_ns.a(stm32l5xx_hal_dma.o)
 .ARM.attributes
                0x0000000000000000       0x34 ../../platform/ns/libplatform_ns.a(stm32l5xx_hal_dma.o)
 .text          0x0000000000000000        0x0 ../../platform/ns/libplatform_ns.a(stm32l5xx_hal_pwr.o)
 .data          0x0000000000000000        0x0 ../../platform/ns/libplatform_ns.a(stm32l5xx_hal_pwr.o)
 .bss           0x0000000000000000        0x0 ../../platform/ns/libplatform_ns.a(stm32l5xx_hal_pwr.o)
 .text.HAL_PWR_DeInit
                0x0000000000000000       0x18 ../../platform/ns/libplatform_ns.a(stm32l5xx_hal_pwr.o)
 .text.HAL_PWR_EnableBkUpAccess
                0x0000000000000000       0x10 ../../platform/ns/libplatform_ns.a(stm32l5xx_hal_pwr.o)
 .text.HAL_PWR_DisableBkUpAccess
                0x0000000000000000       0x10 ../../platform/ns/libplatform_ns.a(stm32l5xx_hal_pwr.o)
 .text.HAL_PWR_ConfigPVD
                0x0000000000000000       0x88 ../../platform/ns/libplatform_ns.a(stm32l5xx_hal_pwr.o)
 .text.HAL_PWR_EnablePVD
                0x0000000000000000       0x10 ../../platform/ns/libplatform_ns.a(stm32l5xx_hal_pwr.o)
 .text.HAL_PWR_DisablePVD
                0x0000000000000000       0x10 ../../platform/ns/libplatform_ns.a(stm32l5xx_hal_pwr.o)
 .text.HAL_PWR_EnableWakeUpPin
                0x0000000000000000       0x20 ../../platform/ns/libplatform_ns.a(stm32l5xx_hal_pwr.o)
 .text.HAL_PWR_DisableWakeUpPin
                0x0000000000000000       0x14 ../../platform/ns/libplatform_ns.a(stm32l5xx_hal_pwr.o)
 .text.HAL_PWR_EnterSLEEPMode
                0x0000000000000000       0x40 ../../platform/ns/libplatform_ns.a(stm32l5xx_hal_pwr.o)
 .text.HAL_PWR_EnterSTOPMode
                0x0000000000000000       0x12 ../../platform/ns/libplatform_ns.a(stm32l5xx_hal_pwr.o)
 .text.HAL_PWR_EnterSTANDBYMode
                0x0000000000000000       0x24 ../../platform/ns/libplatform_ns.a(stm32l5xx_hal_pwr.o)
 .text.HAL_PWR_EnableSleepOnExit
                0x0000000000000000       0x10 ../../platform/ns/libplatform_ns.a(stm32l5xx_hal_pwr.o)
 .text.HAL_PWR_DisableSleepOnExit
                0x0000000000000000       0x10 ../../platform/ns/libplatform_ns.a(stm32l5xx_hal_pwr.o)
 .text.HAL_PWR_EnableSEVOnPend
                0x0000000000000000       0x10 ../../platform/ns/libplatform_ns.a(stm32l5xx_hal_pwr.o)
 .text.HAL_PWR_DisableSEVOnPend
                0x0000000000000000       0x10 ../../platform/ns/libplatform_ns.a(stm32l5xx_hal_pwr.o)
 .text.HAL_PWR_PVDCallback
                0x0000000000000000        0x2 ../../platform/ns/libplatform_ns.a(stm32l5xx_hal_pwr.o)
 .text.HAL_PWR_ConfigAttributes
                0x0000000000000000       0x2c ../../platform/ns/libplatform_ns.a(stm32l5xx_hal_pwr.o)
 .text.HAL_PWR_GetConfigAttributes
                0x0000000000000000       0x24 ../../platform/ns/libplatform_ns.a(stm32l5xx_hal_pwr.o)
 .debug_info    0x0000000000000000      0xd96 ../../platform/ns/libplatform_ns.a(stm32l5xx_hal_pwr.o)
 .debug_abbrev  0x0000000000000000      0x1da ../../platform/ns/libplatform_ns.a(stm32l5xx_hal_pwr.o)
 .debug_loc     0x0000000000000000      0x1db ../../platform/ns/libplatform_ns.a(stm32l5xx_hal_pwr.o)
 .debug_aranges
                0x0000000000000000       0xa8 ../../platform/ns/libplatform_ns.a(stm32l5xx_hal_pwr.o)
 .debug_ranges  0x0000000000000000       0x98 ../../platform/ns/libplatform_ns.a(stm32l5xx_hal_pwr.o)
 .debug_line    0x0000000000000000      0x547 ../../platform/ns/libplatform_ns.a(stm32l5xx_hal_pwr.o)
 .debug_str     0x0000000000000000      0x8b0 ../../platform/ns/libplatform_ns.a(stm32l5xx_hal_pwr.o)
 .comment       0x0000000000000000       0x4a ../../platform/ns/libplatform_ns.a(stm32l5xx_hal_pwr.o)
 .debug_frame   0x0000000000000000      0x138 ../../platform/ns/libplatform_ns.a(stm32l5xx_hal_pwr.o)
 .ARM.attributes
                0x0000000000000000       0x34 ../../platform/ns/libplatform_ns.a(stm32l5xx_hal_pwr.o)
 .text          0x0000000000000000        0x0 ../../platform/ns/libplatform_ns.a(stm32l5xx_hal_rcc.o)
 .data          0x0000000000000000        0x0 ../../platform/ns/libplatform_ns.a(stm32l5xx_hal_rcc.o)
 .bss           0x0000000000000000        0x0 ../../platform/ns/libplatform_ns.a(stm32l5xx_hal_rcc.o)
 .text.RCC_SetFlashLatencyFromMSIRange
                0x0000000000000000       0x74 ../../platform/ns/libplatform_ns.a(stm32l5xx_hal_rcc.o)
 .text.HAL_RCC_DeInit
                0x0000000000000000      0x1a0 ../../platform/ns/libplatform_ns.a(stm32l5xx_hal_rcc.o)
 .text.HAL_RCC_MCOConfig
                0x0000000000000000       0x50 ../../platform/ns/libplatform_ns.a(stm32l5xx_hal_rcc.o)
 .text.HAL_RCC_OscConfig
                0x0000000000000000      0x644 ../../platform/ns/libplatform_ns.a(stm32l5xx_hal_rcc.o)
 .text.HAL_RCC_ClockConfig
                0x0000000000000000      0x1f0 ../../platform/ns/libplatform_ns.a(stm32l5xx_hal_rcc.o)
 .text.HAL_RCC_GetOscConfig
                0x0000000000000000       0xe0 ../../platform/ns/libplatform_ns.a(stm32l5xx_hal_rcc.o)
 .text.HAL_RCC_GetClockConfig
                0x0000000000000000       0x3c ../../platform/ns/libplatform_ns.a(stm32l5xx_hal_rcc.o)
 .text.HAL_RCC_EnableCSS
                0x0000000000000000       0x10 ../../platform/ns/libplatform_ns.a(stm32l5xx_hal_rcc.o)
 .text.HAL_RCC_CSSCallback
                0x0000000000000000        0x2 ../../platform/ns/libplatform_ns.a(stm32l5xx_hal_rcc.o)
 .text.HAL_RCC_NMI_IRQHandler
                0x0000000000000000       0x1c ../../platform/ns/libplatform_ns.a(stm32l5xx_hal_rcc.o)
 .text.HAL_RCC_ConfigAttributes
                0x0000000000000000       0x28 ../../platform/ns/libplatform_ns.a(stm32l5xx_hal_rcc.o)
 .text.HAL_RCC_GetConfigAttributes
                0x0000000000000000       0x20 ../../platform/ns/libplatform_ns.a(stm32l5xx_hal_rcc.o)
 .text          0x0000000000000000        0x0 ../../platform/ns/libplatform_ns.a(stm32l5xx_hal_cortex.o)
 .data          0x0000000000000000        0x0 ../../platform/ns/libplatform_ns.a(stm32l5xx_hal_cortex.o)
 .bss           0x0000000000000000        0x0 ../../platform/ns/libplatform_ns.a(stm32l5xx_hal_cortex.o)
 .text.HAL_NVIC_SetPriorityGrouping
                0x0000000000000000       0x24 ../../platform/ns/libplatform_ns.a(stm32l5xx_hal_cortex.o)
 .text.HAL_NVIC_SetPriority
                0x0000000000000000       0x64 ../../platform/ns/libplatform_ns.a(stm32l5xx_hal_cortex.o)
 .text.HAL_NVIC_EnableIRQ
                0x0000000000000000       0x1c ../../platform/ns/libplatform_ns.a(stm32l5xx_hal_cortex.o)
 .text.HAL_NVIC_DisableIRQ
                0x0000000000000000       0x28 ../../platform/ns/libplatform_ns.a(stm32l5xx_hal_cortex.o)
 .text.HAL_NVIC_SystemReset
                0x0000000000000000       0x24 ../../platform/ns/libplatform_ns.a(stm32l5xx_hal_cortex.o)
 .text.HAL_SYSTICK_Config
                0x0000000000000000       0x28 ../../platform/ns/libplatform_ns.a(stm32l5xx_hal_cortex.o)
 .text.HAL_NVIC_GetPriorityGrouping
                0x0000000000000000       0x10 ../../platform/ns/libplatform_ns.a(stm32l5xx_hal_cortex.o)
 .text.HAL_NVIC_GetPriority
                0x0000000000000000       0x60 ../../platform/ns/libplatform_ns.a(stm32l5xx_hal_cortex.o)
 .text.HAL_NVIC_SetPendingIRQ
                0x0000000000000000       0x20 ../../platform/ns/libplatform_ns.a(stm32l5xx_hal_cortex.o)
 .text.HAL_NVIC_GetPendingIRQ
                0x0000000000000000       0x24 ../../platform/ns/libplatform_ns.a(stm32l5xx_hal_cortex.o)
 .text.HAL_NVIC_ClearPendingIRQ
                0x0000000000000000       0x20 ../../platform/ns/libplatform_ns.a(stm32l5xx_hal_cortex.o)
 .text.HAL_NVIC_GetActive
                0x0000000000000000       0x24 ../../platform/ns/libplatform_ns.a(stm32l5xx_hal_cortex.o)
 .text.HAL_SYSTICK_CLKSourceConfig
                0x0000000000000000       0x16 ../../platform/ns/libplatform_ns.a(stm32l5xx_hal_cortex.o)
 .text.HAL_SYSTICK_Callback
                0x0000000000000000        0x2 ../../platform/ns/libplatform_ns.a(stm32l5xx_hal_cortex.o)
 .text.HAL_SYSTICK_IRQHandler
                0x0000000000000000        0x8 ../../platform/ns/libplatform_ns.a(stm32l5xx_hal_cortex.o)
 .text.HAL_MPU_Enable
                0x0000000000000000       0x20 ../../platform/ns/libplatform_ns.a(stm32l5xx_hal_cortex.o)
 .text.HAL_MPU_Disable
                0x0000000000000000       0x18 ../../platform/ns/libplatform_ns.a(stm32l5xx_hal_cortex.o)
 .text.HAL_MPU_ConfigRegion
                0x0000000000000000       0x50 ../../platform/ns/libplatform_ns.a(stm32l5xx_hal_cortex.o)
 .text.HAL_MPU_ConfigMemoryAttributes
                0x0000000000000000       0x34 ../../platform/ns/libplatform_ns.a(stm32l5xx_hal_cortex.o)
 .debug_info    0x0000000000000000     0x147a ../../platform/ns/libplatform_ns.a(stm32l5xx_hal_cortex.o)
 .debug_abbrev  0x0000000000000000      0x393 ../../platform/ns/libplatform_ns.a(stm32l5xx_hal_cortex.o)
 .debug_loc     0x0000000000000000      0x614 ../../platform/ns/libplatform_ns.a(stm32l5xx_hal_cortex.o)
 .debug_aranges
                0x0000000000000000       0xb0 ../../platform/ns/libplatform_ns.a(stm32l5xx_hal_cortex.o)
 .debug_ranges  0x0000000000000000      0x1d0 ../../platform/ns/libplatform_ns.a(stm32l5xx_hal_cortex.o)
 .debug_line    0x0000000000000000      0x901 ../../platform/ns/libplatform_ns.a(stm32l5xx_hal_cortex.o)
 .debug_str     0x0000000000000000      0xec0 ../../platform/ns/libplatform_ns.a(stm32l5xx_hal_cortex.o)
 .comment       0x0000000000000000       0x4a ../../platform/ns/libplatform_ns.a(stm32l5xx_hal_cortex.o)
 .debug_frame   0x0000000000000000      0x170 ../../platform/ns/libplatform_ns.a(stm32l5xx_hal_cortex.o)
 .ARM.attributes
                0x0000000000000000       0x34 ../../platform/ns/libplatform_ns.a(stm32l5xx_hal_cortex.o)
 .text          0x0000000000000000        0x0 libtfm_test_app.a(test_app.o)
 .data          0x0000000000000000        0x0 libtfm_test_app.a(test_app.o)
 .bss           0x0000000000000000        0x0 libtfm_test_app.a(test_app.o)
 .data          0x0000000000000000        0x0 ../../lib/ext/tfm_test_repo-src/CMSIS/RTOS2/RTX/Library/GCC/libRTX_V8MMN.a(irq_armv8mml.o)
 .bss           0x0000000000000000        0x0 ../../lib/ext/tfm_test_repo-src/CMSIS/RTOS2/RTX/Library/GCC/libRTX_V8MMN.a(irq_armv8mml.o)
 .rodata        0x0000000000000000        0x1 ../../lib/ext/tfm_test_repo-src/CMSIS/RTOS2/RTX/Library/GCC/libRTX_V8MMN.a(irq_armv8mml.o)
 .ARM.extab     0x0000000000000000        0x0 ../../lib/ext/tfm_test_repo-src/CMSIS/RTOS2/RTX/Library/GCC/libRTX_V8MMN.a(irq_armv8mml.o)
 .text          0x0000000000000000        0x0 ../../lib/ext/tfm_test_repo-src/CMSIS/RTOS2/RTX/Library/GCC/libRTX_V8MMN.a(rtx_system.o)
 .data          0x0000000000000000        0x0 ../../lib/ext/tfm_test_repo-src/CMSIS/RTOS2/RTX/Library/GCC/libRTX_V8MMN.a(rtx_system.o)
 .bss           0x0000000000000000        0x0 ../../lib/ext/tfm_test_repo-src/CMSIS/RTOS2/RTX/Library/GCC/libRTX_V8MMN.a(rtx_system.o)
 .text          0x0000000000000000        0x0 ../../lib/ext/tfm_test_repo-src/CMSIS/RTOS2/RTX/Library/GCC/libRTX_V8MMN.a(rtx_msgqueue.o)
 .data          0x0000000000000000        0x0 ../../lib/ext/tfm_test_repo-src/CMSIS/RTOS2/RTX/Library/GCC/libRTX_V8MMN.a(rtx_msgqueue.o)
 .bss           0x0000000000000000        0x0 ../../lib/ext/tfm_test_repo-src/CMSIS/RTOS2/RTX/Library/GCC/libRTX_V8MMN.a(rtx_msgqueue.o)
 .text.svcRtxMessageQueueGetName
                0x0000000000000000       0x10 ../../lib/ext/tfm_test_repo-src/CMSIS/RTOS2/RTX/Library/GCC/libRTX_V8MMN.a(rtx_msgqueue.o)
 .text.svcRtxMessageQueueGetCapacity
                0x0000000000000000       0x10 ../../lib/ext/tfm_test_repo-src/CMSIS/RTOS2/RTX/Library/GCC/libRTX_V8MMN.a(rtx_msgqueue.o)
 .text.svcRtxMessageQueueGetMsgSize
                0x0000000000000000       0x10 ../../lib/ext/tfm_test_repo-src/CMSIS/RTOS2/RTX/Library/GCC/libRTX_V8MMN.a(rtx_msgqueue.o)
 .text.svcRtxMessageQueueGetCount
                0x0000000000000000       0x10 ../../lib/ext/tfm_test_repo-src/CMSIS/RTOS2/RTX/Library/GCC/libRTX_V8MMN.a(rtx_msgqueue.o)
 .text.svcRtxMessageQueueGetSpace
                0x0000000000000000       0x14 ../../lib/ext/tfm_test_repo-src/CMSIS/RTOS2/RTX/Library/GCC/libRTX_V8MMN.a(rtx_msgqueue.o)
 .text.svcRtxMessageQueueDelete
                0x0000000000000000       0x74 ../../lib/ext/tfm_test_repo-src/CMSIS/RTOS2/RTX/Library/GCC/libRTX_V8MMN.a(rtx_msgqueue.o)
 .text.svcRtxMessageQueueReset
                0x0000000000000000      0x198 ../../lib/ext/tfm_test_repo-src/CMSIS/RTOS2/RTX/Library/GCC/libRTX_V8MMN.a(rtx_msgqueue.o)
 .text.osMessageQueueGetName
                0x0000000000000000       0x24 ../../lib/ext/tfm_test_repo-src/CMSIS/RTOS2/RTX/Library/GCC/libRTX_V8MMN.a(rtx_msgqueue.o)
 .text.osMessageQueueGetCapacity
                0x0000000000000000       0x34 ../../lib/ext/tfm_test_repo-src/CMSIS/RTOS2/RTX/Library/GCC/libRTX_V8MMN.a(rtx_msgqueue.o)
 .text.osMessageQueueGetMsgSize
                0x0000000000000000       0x34 ../../lib/ext/tfm_test_repo-src/CMSIS/RTOS2/RTX/Library/GCC/libRTX_V8MMN.a(rtx_msgqueue.o)
 .text.osMessageQueueGetCount
                0x0000000000000000       0x34 ../../lib/ext/tfm_test_repo-src/CMSIS/RTOS2/RTX/Library/GCC/libRTX_V8MMN.a(rtx_msgqueue.o)
 .text.osMessageQueueGetSpace
                0x0000000000000000       0x38 ../../lib/ext/tfm_test_repo-src/CMSIS/RTOS2/RTX/Library/GCC/libRTX_V8MMN.a(rtx_msgqueue.o)
 .text.osMessageQueueReset
                0x0000000000000000       0x24 ../../lib/ext/tfm_test_repo-src/CMSIS/RTOS2/RTX/Library/GCC/libRTX_V8MMN.a(rtx_msgqueue.o)
 .text.osMessageQueueDelete
                0x0000000000000000       0x24 ../../lib/ext/tfm_test_repo-src/CMSIS/RTOS2/RTX/Library/GCC/libRTX_V8MMN.a(rtx_msgqueue.o)
 .text          0x0000000000000000        0x0 ../../lib/ext/tfm_test_repo-src/CMSIS/RTOS2/RTX/Library/GCC/libRTX_V8MMN.a(rtx_mempool.o)
 .data          0x0000000000000000        0x0 ../../lib/ext/tfm_test_repo-src/CMSIS/RTOS2/RTX/Library/GCC/libRTX_V8MMN.a(rtx_mempool.o)
 .bss           0x0000000000000000        0x0 ../../lib/ext/tfm_test_repo-src/CMSIS/RTOS2/RTX/Library/GCC/libRTX_V8MMN.a(rtx_mempool.o)
 .text.svcRtxMemoryPoolGetName
                0x0000000000000000       0x10 ../../lib/ext/tfm_test_repo-src/CMSIS/RTOS2/RTX/Library/GCC/libRTX_V8MMN.a(rtx_mempool.o)
 .text.svcRtxMemoryPoolGetCapacity
                0x0000000000000000       0x10 ../../lib/ext/tfm_test_repo-src/CMSIS/RTOS2/RTX/Library/GCC/libRTX_V8MMN.a(rtx_mempool.o)
 .text.svcRtxMemoryPoolGetBlockSize
                0x0000000000000000       0x10 ../../lib/ext/tfm_test_repo-src/CMSIS/RTOS2/RTX/Library/GCC/libRTX_V8MMN.a(rtx_mempool.o)
 .text.svcRtxMemoryPoolGetCount
                0x0000000000000000       0x10 ../../lib/ext/tfm_test_repo-src/CMSIS/RTOS2/RTX/Library/GCC/libRTX_V8MMN.a(rtx_mempool.o)
 .text.svcRtxMemoryPoolGetSpace
                0x0000000000000000       0x14 ../../lib/ext/tfm_test_repo-src/CMSIS/RTOS2/RTX/Library/GCC/libRTX_V8MMN.a(rtx_mempool.o)
 .text.svcRtxMemoryPoolAlloc
                0x0000000000000000       0x60 ../../lib/ext/tfm_test_repo-src/CMSIS/RTOS2/RTX/Library/GCC/libRTX_V8MMN.a(rtx_mempool.o)
 .text.osRtxMemoryPoolPostProcess
                0x0000000000000000       0x48 ../../lib/ext/tfm_test_repo-src/CMSIS/RTOS2/RTX/Library/GCC/libRTX_V8MMN.a(rtx_mempool.o)
 .text.svcRtxMemoryPoolFree
                0x0000000000000000       0x88 ../../lib/ext/tfm_test_repo-src/CMSIS/RTOS2/RTX/Library/GCC/libRTX_V8MMN.a(rtx_mempool.o)
 .text.svcRtxMemoryPoolDelete
                0x0000000000000000       0xac ../../lib/ext/tfm_test_repo-src/CMSIS/RTOS2/RTX/Library/GCC/libRTX_V8MMN.a(rtx_mempool.o)
 .text.svcRtxMemoryPoolNew
                0x0000000000000000      0x224 ../../lib/ext/tfm_test_repo-src/CMSIS/RTOS2/RTX/Library/GCC/libRTX_V8MMN.a(rtx_mempool.o)
 .text.osMemoryPoolNew
                0x0000000000000000       0x24 ../../lib/ext/tfm_test_repo-src/CMSIS/RTOS2/RTX/Library/GCC/libRTX_V8MMN.a(rtx_mempool.o)
 .text.osMemoryPoolGetName
                0x0000000000000000       0x24 ../../lib/ext/tfm_test_repo-src/CMSIS/RTOS2/RTX/Library/GCC/libRTX_V8MMN.a(rtx_mempool.o)
 .text.osMemoryPoolAlloc
                0x0000000000000000       0x6c ../../lib/ext/tfm_test_repo-src/CMSIS/RTOS2/RTX/Library/GCC/libRTX_V8MMN.a(rtx_mempool.o)
 .text.osMemoryPoolFree
                0x0000000000000000       0x80 ../../lib/ext/tfm_test_repo-src/CMSIS/RTOS2/RTX/Library/GCC/libRTX_V8MMN.a(rtx_mempool.o)
 .text.osMemoryPoolGetCapacity
                0x0000000000000000       0x34 ../../lib/ext/tfm_test_repo-src/CMSIS/RTOS2/RTX/Library/GCC/libRTX_V8MMN.a(rtx_mempool.o)
 .text.osMemoryPoolGetBlockSize
                0x0000000000000000       0x34 ../../lib/ext/tfm_test_repo-src/CMSIS/RTOS2/RTX/Library/GCC/libRTX_V8MMN.a(rtx_mempool.o)
 .text.osMemoryPoolGetCount
                0x0000000000000000       0x34 ../../lib/ext/tfm_test_repo-src/CMSIS/RTOS2/RTX/Library/GCC/libRTX_V8MMN.a(rtx_mempool.o)
 .text.osMemoryPoolGetSpace
                0x0000000000000000       0x38 ../../lib/ext/tfm_test_repo-src/CMSIS/RTOS2/RTX/Library/GCC/libRTX_V8MMN.a(rtx_mempool.o)
 .text.osMemoryPoolDelete
                0x0000000000000000       0x24 ../../lib/ext/tfm_test_repo-src/CMSIS/RTOS2/RTX/Library/GCC/libRTX_V8MMN.a(rtx_mempool.o)
 .text          0x0000000000000000        0x0 ../../lib/ext/tfm_test_repo-src/CMSIS/RTOS2/RTX/Library/GCC/libRTX_V8MMN.a(rtx_memory.o)
 .data          0x0000000000000000        0x0 ../../lib/ext/tfm_test_repo-src/CMSIS/RTOS2/RTX/Library/GCC/libRTX_V8MMN.a(rtx_memory.o)
 .bss           0x0000000000000000        0x0 ../../lib/ext/tfm_test_repo-src/CMSIS/RTOS2/RTX/Library/GCC/libRTX_V8MMN.a(rtx_memory.o)
 .text          0x0000000000000000        0x0 ../../lib/ext/tfm_test_repo-src/CMSIS/RTOS2/RTX/Library/GCC/libRTX_V8MMN.a(rtx_semaphore.o)
 .data          0x0000000000000000        0x0 ../../lib/ext/tfm_test_repo-src/CMSIS/RTOS2/RTX/Library/GCC/libRTX_V8MMN.a(rtx_semaphore.o)
 .bss           0x0000000000000000        0x0 ../../lib/ext/tfm_test_repo-src/CMSIS/RTOS2/RTX/Library/GCC/libRTX_V8MMN.a(rtx_semaphore.o)
 .text.svcRtxSemaphoreGetName
                0x0000000000000000       0x10 ../../lib/ext/tfm_test_repo-src/CMSIS/RTOS2/RTX/Library/GCC/libRTX_V8MMN.a(rtx_semaphore.o)
 .text.svcRtxSemaphoreGetCount
                0x0000000000000000       0x10 ../../lib/ext/tfm_test_repo-src/CMSIS/RTOS2/RTX/Library/GCC/libRTX_V8MMN.a(rtx_semaphore.o)
 .text.svcRtxSemaphoreNew
                0x0000000000000000       0x7c ../../lib/ext/tfm_test_repo-src/CMSIS/RTOS2/RTX/Library/GCC/libRTX_V8MMN.a(rtx_semaphore.o)
 .text.osRtxSemaphorePostProcess
                0x0000000000000000       0x38 ../../lib/ext/tfm_test_repo-src/CMSIS/RTOS2/RTX/Library/GCC/libRTX_V8MMN.a(rtx_semaphore.o)
 .text.svcRtxSemaphoreRelease
                0x0000000000000000       0x54 ../../lib/ext/tfm_test_repo-src/CMSIS/RTOS2/RTX/Library/GCC/libRTX_V8MMN.a(rtx_semaphore.o)
 .text.svcRtxSemaphoreAcquire
                0x0000000000000000       0x60 ../../lib/ext/tfm_test_repo-src/CMSIS/RTOS2/RTX/Library/GCC/libRTX_V8MMN.a(rtx_semaphore.o)
 .text.svcRtxSemaphoreDelete
                0x0000000000000000       0x60 ../../lib/ext/tfm_test_repo-src/CMSIS/RTOS2/RTX/Library/GCC/libRTX_V8MMN.a(rtx_semaphore.o)
 .text.osSemaphoreNew
                0x0000000000000000       0x24 ../../lib/ext/tfm_test_repo-src/CMSIS/RTOS2/RTX/Library/GCC/libRTX_V8MMN.a(rtx_semaphore.o)
 .text.osSemaphoreGetName
                0x0000000000000000       0x24 ../../lib/ext/tfm_test_repo-src/CMSIS/RTOS2/RTX/Library/GCC/libRTX_V8MMN.a(rtx_semaphore.o)
 .text.osSemaphoreAcquire
                0x0000000000000000       0x60 ../../lib/ext/tfm_test_repo-src/CMSIS/RTOS2/RTX/Library/GCC/libRTX_V8MMN.a(rtx_semaphore.o)
 .text.osSemaphoreRelease
                0x0000000000000000       0x68 ../../lib/ext/tfm_test_repo-src/CMSIS/RTOS2/RTX/Library/GCC/libRTX_V8MMN.a(rtx_semaphore.o)
 .text.osSemaphoreGetCount
                0x0000000000000000       0x34 ../../lib/ext/tfm_test_repo-src/CMSIS/RTOS2/RTX/Library/GCC/libRTX_V8MMN.a(rtx_semaphore.o)
 .text.osSemaphoreDelete
                0x0000000000000000       0x24 ../../lib/ext/tfm_test_repo-src/CMSIS/RTOS2/RTX/Library/GCC/libRTX_V8MMN.a(rtx_semaphore.o)
 .debug_info    0x0000000000000000     0x3120 ../../lib/ext/tfm_test_repo-src/CMSIS/RTOS2/RTX/Library/GCC/libRTX_V8MMN.a(rtx_semaphore.o)
 .debug_abbrev  0x0000000000000000      0x4b3 ../../lib/ext/tfm_test_repo-src/CMSIS/RTOS2/RTX/Library/GCC/libRTX_V8MMN.a(rtx_semaphore.o)
 .debug_loc     0x0000000000000000     0x1131 ../../lib/ext/tfm_test_repo-src/CMSIS/RTOS2/RTX/Library/GCC/libRTX_V8MMN.a(rtx_semaphore.o)
 .debug_aranges
                0x0000000000000000       0x80 ../../lib/ext/tfm_test_repo-src/CMSIS/RTOS2/RTX/Library/GCC/libRTX_V8MMN.a(rtx_semaphore.o)
 .debug_ranges  0x0000000000000000      0x2d8 ../../lib/ext/tfm_test_repo-src/CMSIS/RTOS2/RTX/Library/GCC/libRTX_V8MMN.a(rtx_semaphore.o)
 .debug_line    0x0000000000000000      0xc31 ../../lib/ext/tfm_test_repo-src/CMSIS/RTOS2/RTX/Library/GCC/libRTX_V8MMN.a(rtx_semaphore.o)
 .debug_str     0x0000000000000000     0x1441 ../../lib/ext/tfm_test_repo-src/CMSIS/RTOS2/RTX/Library/GCC/libRTX_V8MMN.a(rtx_semaphore.o)
 .comment       0x0000000000000000       0x76 ../../lib/ext/tfm_test_repo-src/CMSIS/RTOS2/RTX/Library/GCC/libRTX_V8MMN.a(rtx_semaphore.o)
 .debug_frame   0x0000000000000000      0x144 ../../lib/ext/tfm_test_repo-src/CMSIS/RTOS2/RTX/Library/GCC/libRTX_V8MMN.a(rtx_semaphore.o)
 .ARM.attributes
                0x0000000000000000       0x32 ../../lib/ext/tfm_test_repo-src/CMSIS/RTOS2/RTX/Library/GCC/libRTX_V8MMN.a(rtx_semaphore.o)
 .text          0x0000000000000000        0x0 ../../lib/ext/tfm_test_repo-src/CMSIS/RTOS2/RTX/Library/GCC/libRTX_V8MMN.a(rtx_mutex.o)
 .data          0x0000000000000000        0x0 ../../lib/ext/tfm_test_repo-src/CMSIS/RTOS2/RTX/Library/GCC/libRTX_V8MMN.a(rtx_mutex.o)
 .bss           0x0000000000000000        0x0 ../../lib/ext/tfm_test_repo-src/CMSIS/RTOS2/RTX/Library/GCC/libRTX_V8MMN.a(rtx_mutex.o)
 .text.svcRtxMutexGetName
                0x0000000000000000       0x10 ../../lib/ext/tfm_test_repo-src/CMSIS/RTOS2/RTX/Library/GCC/libRTX_V8MMN.a(rtx_mutex.o)
 .text.svcRtxMutexAcquire
                0x0000000000000000       0xa4 ../../lib/ext/tfm_test_repo-src/CMSIS/RTOS2/RTX/Library/GCC/libRTX_V8MMN.a(rtx_mutex.o)
 .text.svcRtxMutexRelease
                0x0000000000000000       0xac ../../lib/ext/tfm_test_repo-src/CMSIS/RTOS2/RTX/Library/GCC/libRTX_V8MMN.a(rtx_mutex.o)
 .text.svcRtxMutexDelete
                0x0000000000000000       0xb4 ../../lib/ext/tfm_test_repo-src/CMSIS/RTOS2/RTX/Library/GCC/libRTX_V8MMN.a(rtx_mutex.o)
 .text.svcRtxMutexGetOwner
                0x0000000000000000       0x18 ../../lib/ext/tfm_test_repo-src/CMSIS/RTOS2/RTX/Library/GCC/libRTX_V8MMN.a(rtx_mutex.o)
 .text.osMutexGetName
                0x0000000000000000       0x24 ../../lib/ext/tfm_test_repo-src/CMSIS/RTOS2/RTX/Library/GCC/libRTX_V8MMN.a(rtx_mutex.o)
 .text.osMutexAcquire
                0x0000000000000000       0x24 ../../lib/ext/tfm_test_repo-src/CMSIS/RTOS2/RTX/Library/GCC/libRTX_V8MMN.a(rtx_mutex.o)
 .text.osMutexRelease
                0x0000000000000000       0x24 ../../lib/ext/tfm_test_repo-src/CMSIS/RTOS2/RTX/Library/GCC/libRTX_V8MMN.a(rtx_mutex.o)
 .text.osMutexGetOwner
                0x0000000000000000       0x24 ../../lib/ext/tfm_test_repo-src/CMSIS/RTOS2/RTX/Library/GCC/libRTX_V8MMN.a(rtx_mutex.o)
 .text.osMutexDelete
                0x0000000000000000       0x24 ../../lib/ext/tfm_test_repo-src/CMSIS/RTOS2/RTX/Library/GCC/libRTX_V8MMN.a(rtx_mutex.o)
 .text          0x0000000000000000        0x0 ../../lib/ext/tfm_test_repo-src/CMSIS/RTOS2/RTX/Library/GCC/libRTX_V8MMN.a(rtx_delay.o)
 .data          0x0000000000000000        0x0 ../../lib/ext/tfm_test_repo-src/CMSIS/RTOS2/RTX/Library/GCC/libRTX_V8MMN.a(rtx_delay.o)
 .bss           0x0000000000000000        0x0 ../../lib/ext/tfm_test_repo-src/CMSIS/RTOS2/RTX/Library/GCC/libRTX_V8MMN.a(rtx_delay.o)
 .text.svcRtxDelay
                0x0000000000000000       0x14 ../../lib/ext/tfm_test_repo-src/CMSIS/RTOS2/RTX/Library/GCC/libRTX_V8MMN.a(rtx_delay.o)
 .text.svcRtxDelayUntil
                0x0000000000000000       0x20 ../../lib/ext/tfm_test_repo-src/CMSIS/RTOS2/RTX/Library/GCC/libRTX_V8MMN.a(rtx_delay.o)
 .text.osDelay  0x0000000000000000       0x24 ../../lib/ext/tfm_test_repo-src/CMSIS/RTOS2/RTX/Library/GCC/libRTX_V8MMN.a(rtx_delay.o)
 .text.osDelayUntil
                0x0000000000000000       0x24 ../../lib/ext/tfm_test_repo-src/CMSIS/RTOS2/RTX/Library/GCC/libRTX_V8MMN.a(rtx_delay.o)
 .debug_info    0x0000000000000000     0x1fe8 ../../lib/ext/tfm_test_repo-src/CMSIS/RTOS2/RTX/Library/GCC/libRTX_V8MMN.a(rtx_delay.o)
 .debug_abbrev  0x0000000000000000      0x33b ../../lib/ext/tfm_test_repo-src/CMSIS/RTOS2/RTX/Library/GCC/libRTX_V8MMN.a(rtx_delay.o)
 .debug_loc     0x0000000000000000      0x1ea ../../lib/ext/tfm_test_repo-src/CMSIS/RTOS2/RTX/Library/GCC/libRTX_V8MMN.a(rtx_delay.o)
 .debug_aranges
                0x0000000000000000       0x38 ../../lib/ext/tfm_test_repo-src/CMSIS/RTOS2/RTX/Library/GCC/libRTX_V8MMN.a(rtx_delay.o)
 .debug_ranges  0x0000000000000000       0x58 ../../lib/ext/tfm_test_repo-src/CMSIS/RTOS2/RTX/Library/GCC/libRTX_V8MMN.a(rtx_delay.o)
 .debug_line    0x0000000000000000      0x44f ../../lib/ext/tfm_test_repo-src/CMSIS/RTOS2/RTX/Library/GCC/libRTX_V8MMN.a(rtx_delay.o)
 .debug_str     0x0000000000000000     0x114a ../../lib/ext/tfm_test_repo-src/CMSIS/RTOS2/RTX/Library/GCC/libRTX_V8MMN.a(rtx_delay.o)
 .comment       0x0000000000000000       0x76 ../../lib/ext/tfm_test_repo-src/CMSIS/RTOS2/RTX/Library/GCC/libRTX_V8MMN.a(rtx_delay.o)
 .debug_frame   0x0000000000000000       0x60 ../../lib/ext/tfm_test_repo-src/CMSIS/RTOS2/RTX/Library/GCC/libRTX_V8MMN.a(rtx_delay.o)
 .ARM.attributes
                0x0000000000000000       0x32 ../../lib/ext/tfm_test_repo-src/CMSIS/RTOS2/RTX/Library/GCC/libRTX_V8MMN.a(rtx_delay.o)
 .text          0x0000000000000000        0x0 ../../lib/ext/tfm_test_repo-src/CMSIS/RTOS2/RTX/Library/GCC/libRTX_V8MMN.a(rtx_thread.o)
 .data          0x0000000000000000        0x0 ../../lib/ext/tfm_test_repo-src/CMSIS/RTOS2/RTX/Library/GCC/libRTX_V8MMN.a(rtx_thread.o)
 .bss           0x0000000000000000        0x0 ../../lib/ext/tfm_test_repo-src/CMSIS/RTOS2/RTX/Library/GCC/libRTX_V8MMN.a(rtx_thread.o)
 .text.svcRtxThreadGetName
                0x0000000000000000       0x10 ../../lib/ext/tfm_test_repo-src/CMSIS/RTOS2/RTX/Library/GCC/libRTX_V8MMN.a(rtx_thread.o)
 .text.svcRtxThreadGetId
                0x0000000000000000        0xc ../../lib/ext/tfm_test_repo-src/CMSIS/RTOS2/RTX/Library/GCC/libRTX_V8MMN.a(rtx_thread.o)
 .text.svcRtxThreadGetState
                0x0000000000000000       0x18 ../../lib/ext/tfm_test_repo-src/CMSIS/RTOS2/RTX/Library/GCC/libRTX_V8MMN.a(rtx_thread.o)
 .text.svcRtxThreadGetStackSize
                0x0000000000000000       0x10 ../../lib/ext/tfm_test_repo-src/CMSIS/RTOS2/RTX/Library/GCC/libRTX_V8MMN.a(rtx_thread.o)
 .text.svcRtxThreadGetPriority
                0x0000000000000000       0x1c ../../lib/ext/tfm_test_repo-src/CMSIS/RTOS2/RTX/Library/GCC/libRTX_V8MMN.a(rtx_thread.o)
 .text.svcRtxThreadGetCount
                0x0000000000000000       0x30 ../../lib/ext/tfm_test_repo-src/CMSIS/RTOS2/RTX/Library/GCC/libRTX_V8MMN.a(rtx_thread.o)
 .text.svcRtxThreadFlagsClear
                0x0000000000000000       0x38 ../../lib/ext/tfm_test_repo-src/CMSIS/RTOS2/RTX/Library/GCC/libRTX_V8MMN.a(rtx_thread.o)
 .text.svcRtxThreadFlagsGet
                0x0000000000000000       0x10 ../../lib/ext/tfm_test_repo-src/CMSIS/RTOS2/RTX/Library/GCC/libRTX_V8MMN.a(rtx_thread.o)
 .text.svcRtxThreadGetStackSpace
                0x0000000000000000       0x54 ../../lib/ext/tfm_test_repo-src/CMSIS/RTOS2/RTX/Library/GCC/libRTX_V8MMN.a(rtx_thread.o)
 .text.svcRtxThreadEnumerate
                0x0000000000000000       0x74 ../../lib/ext/tfm_test_repo-src/CMSIS/RTOS2/RTX/Library/GCC/libRTX_V8MMN.a(rtx_thread.o)
 .text.svcRtxThreadDetach
                0x0000000000000000       0x54 ../../lib/ext/tfm_test_repo-src/CMSIS/RTOS2/RTX/Library/GCC/libRTX_V8MMN.a(rtx_thread.o)
 .text.osRtxThreadListSort
                0x0000000000000000       0x6c ../../lib/ext/tfm_test_repo-src/CMSIS/RTOS2/RTX/Library/GCC/libRTX_V8MMN.a(rtx_thread.o)
 .text.svcRtxThreadFlagsSet
                0x0000000000000000      0x104 ../../lib/ext/tfm_test_repo-src/CMSIS/RTOS2/RTX/Library/GCC/libRTX_V8MMN.a(rtx_thread.o)
 .text.svcRtxThreadSetPriority
                0x0000000000000000       0xa4 ../../lib/ext/tfm_test_repo-src/CMSIS/RTOS2/RTX/Library/GCC/libRTX_V8MMN.a(rtx_thread.o)
 .text.svcRtxThreadResume
                0x0000000000000000       0x74 ../../lib/ext/tfm_test_repo-src/CMSIS/RTOS2/RTX/Library/GCC/libRTX_V8MMN.a(rtx_thread.o)
 .text.svcRtxThreadFlagsWait
                0x0000000000000000      0x164 ../../lib/ext/tfm_test_repo-src/CMSIS/RTOS2/RTX/Library/GCC/libRTX_V8MMN.a(rtx_thread.o)
 .text.svcRtxThreadYield
                0x0000000000000000       0x84 ../../lib/ext/tfm_test_repo-src/CMSIS/RTOS2/RTX/Library/GCC/libRTX_V8MMN.a(rtx_thread.o)
 .text.svcRtxThreadSuspend
                0x0000000000000000       0xfc ../../lib/ext/tfm_test_repo-src/CMSIS/RTOS2/RTX/Library/GCC/libRTX_V8MMN.a(rtx_thread.o)
 .text.svcRtxThreadTerminate
                0x0000000000000000      0x194 ../../lib/ext/tfm_test_repo-src/CMSIS/RTOS2/RTX/Library/GCC/libRTX_V8MMN.a(rtx_thread.o)
 .text.svcRtxThreadJoin
                0x0000000000000000       0xb0 ../../lib/ext/tfm_test_repo-src/CMSIS/RTOS2/RTX/Library/GCC/libRTX_V8MMN.a(rtx_thread.o)
 .text.osThreadGetName
                0x0000000000000000       0x24 ../../lib/ext/tfm_test_repo-src/CMSIS/RTOS2/RTX/Library/GCC/libRTX_V8MMN.a(rtx_thread.o)
 .text.osThreadGetId
                0x0000000000000000       0x2c ../../lib/ext/tfm_test_repo-src/CMSIS/RTOS2/RTX/Library/GCC/libRTX_V8MMN.a(rtx_thread.o)
 .text.osThreadGetState
                0x0000000000000000       0x24 ../../lib/ext/tfm_test_repo-src/CMSIS/RTOS2/RTX/Library/GCC/libRTX_V8MMN.a(rtx_thread.o)
 .text.osThreadGetStackSize
                0x0000000000000000       0x24 ../../lib/ext/tfm_test_repo-src/CMSIS/RTOS2/RTX/Library/GCC/libRTX_V8MMN.a(rtx_thread.o)
 .text.osThreadGetStackSpace
                0x0000000000000000       0x24 ../../lib/ext/tfm_test_repo-src/CMSIS/RTOS2/RTX/Library/GCC/libRTX_V8MMN.a(rtx_thread.o)
 .text.osThreadSetPriority
                0x0000000000000000       0x24 ../../lib/ext/tfm_test_repo-src/CMSIS/RTOS2/RTX/Library/GCC/libRTX_V8MMN.a(rtx_thread.o)
 .text.osThreadGetPriority
                0x0000000000000000       0x24 ../../lib/ext/tfm_test_repo-src/CMSIS/RTOS2/RTX/Library/GCC/libRTX_V8MMN.a(rtx_thread.o)
 .text.osThreadYield
                0x0000000000000000       0x24 ../../lib/ext/tfm_test_repo-src/CMSIS/RTOS2/RTX/Library/GCC/libRTX_V8MMN.a(rtx_thread.o)
 .text.osThreadSuspend
                0x0000000000000000       0x24 ../../lib/ext/tfm_test_repo-src/CMSIS/RTOS2/RTX/Library/GCC/libRTX_V8MMN.a(rtx_thread.o)
 .text.osThreadResume
                0x0000000000000000       0x24 ../../lib/ext/tfm_test_repo-src/CMSIS/RTOS2/RTX/Library/GCC/libRTX_V8MMN.a(rtx_thread.o)
 .text.osThreadDetach
                0x0000000000000000       0x24 ../../lib/ext/tfm_test_repo-src/CMSIS/RTOS2/RTX/Library/GCC/libRTX_V8MMN.a(rtx_thread.o)
 .text.osThreadJoin
                0x0000000000000000       0x24 ../../lib/ext/tfm_test_repo-src/CMSIS/RTOS2/RTX/Library/GCC/libRTX_V8MMN.a(rtx_thread.o)
 .text.osThreadTerminate
                0x0000000000000000       0x24 ../../lib/ext/tfm_test_repo-src/CMSIS/RTOS2/RTX/Library/GCC/libRTX_V8MMN.a(rtx_thread.o)
 .text.osThreadGetCount
                0x0000000000000000       0x24 ../../lib/ext/tfm_test_repo-src/CMSIS/RTOS2/RTX/Library/GCC/libRTX_V8MMN.a(rtx_thread.o)
 .text.osThreadEnumerate
                0x0000000000000000       0x24 ../../lib/ext/tfm_test_repo-src/CMSIS/RTOS2/RTX/Library/GCC/libRTX_V8MMN.a(rtx_thread.o)
 .text.osThreadFlagsSet
                0x0000000000000000       0x68 ../../lib/ext/tfm_test_repo-src/CMSIS/RTOS2/RTX/Library/GCC/libRTX_V8MMN.a(rtx_thread.o)
 .text.osThreadFlagsClear
                0x0000000000000000       0x28 ../../lib/ext/tfm_test_repo-src/CMSIS/RTOS2/RTX/Library/GCC/libRTX_V8MMN.a(rtx_thread.o)
 .text.osThreadFlagsGet
                0x0000000000000000       0x24 ../../lib/ext/tfm_test_repo-src/CMSIS/RTOS2/RTX/Library/GCC/libRTX_V8MMN.a(rtx_thread.o)
 .text.osThreadFlagsWait
                0x0000000000000000       0x28 ../../lib/ext/tfm_test_repo-src/CMSIS/RTOS2/RTX/Library/GCC/libRTX_V8MMN.a(rtx_thread.o)
 .text          0x0000000000000000        0x0 ../../lib/ext/tfm_test_repo-src/CMSIS/RTOS2/RTX/Library/GCC/libRTX_V8MMN.a(rtx_kernel.o)
 .data          0x0000000000000000        0x0 ../../lib/ext/tfm_test_repo-src/CMSIS/RTOS2/RTX/Library/GCC/libRTX_V8MMN.a(rtx_kernel.o)
 .bss           0x0000000000000000        0x0 ../../lib/ext/tfm_test_repo-src/CMSIS/RTOS2/RTX/Library/GCC/libRTX_V8MMN.a(rtx_kernel.o)
 .text.svcRtxKernelGetState
                0x0000000000000000        0xc ../../lib/ext/tfm_test_repo-src/CMSIS/RTOS2/RTX/Library/GCC/libRTX_V8MMN.a(rtx_kernel.o)
 .text.svcRtxKernelLock
                0x0000000000000000       0x20 ../../lib/ext/tfm_test_repo-src/CMSIS/RTOS2/RTX/Library/GCC/libRTX_V8MMN.a(rtx_kernel.o)
 .text.svcRtxKernelUnlock
                0x0000000000000000       0x24 ../../lib/ext/tfm_test_repo-src/CMSIS/RTOS2/RTX/Library/GCC/libRTX_V8MMN.a(rtx_kernel.o)
 .text.svcRtxKernelGetTickCount
                0x0000000000000000        0xc ../../lib/ext/tfm_test_repo-src/CMSIS/RTOS2/RTX/Library/GCC/libRTX_V8MMN.a(rtx_kernel.o)
 .text.svcRtxKernelGetTickFreq
                0x0000000000000000        0xc ../../lib/ext/tfm_test_repo-src/CMSIS/RTOS2/RTX/Library/GCC/libRTX_V8MMN.a(rtx_kernel.o)
 .text.svcRtxKernelGetSysTimerCount
                0x0000000000000000       0x34 ../../lib/ext/tfm_test_repo-src/CMSIS/RTOS2/RTX/Library/GCC/libRTX_V8MMN.a(rtx_kernel.o)
 .text.svcRtxKernelGetSysTimerFreq
                0x0000000000000000        0x4 ../../lib/ext/tfm_test_repo-src/CMSIS/RTOS2/RTX/Library/GCC/libRTX_V8MMN.a(rtx_kernel.o)
 .text.svcRtxKernelRestoreLock
                0x0000000000000000       0x28 ../../lib/ext/tfm_test_repo-src/CMSIS/RTOS2/RTX/Library/GCC/libRTX_V8MMN.a(rtx_kernel.o)
 .text.svcRtxKernelSuspend
                0x0000000000000000       0x54 ../../lib/ext/tfm_test_repo-src/CMSIS/RTOS2/RTX/Library/GCC/libRTX_V8MMN.a(rtx_kernel.o)
 .text.svcRtxKernelResume
                0x0000000000000000       0x90 ../../lib/ext/tfm_test_repo-src/CMSIS/RTOS2/RTX/Library/GCC/libRTX_V8MMN.a(rtx_kernel.o)
 .text.svcRtxKernelGetInfo
                0x0000000000000000       0x30 ../../lib/ext/tfm_test_repo-src/CMSIS/RTOS2/RTX/Library/GCC/libRTX_V8MMN.a(rtx_kernel.o)
 .text.osKernelGetInfo
                0x0000000000000000       0x64 ../../lib/ext/tfm_test_repo-src/CMSIS/RTOS2/RTX/Library/GCC/libRTX_V8MMN.a(rtx_kernel.o)
 .text.osKernelGetState
                0x0000000000000000       0x34 ../../lib/ext/tfm_test_repo-src/CMSIS/RTOS2/RTX/Library/GCC/libRTX_V8MMN.a(rtx_kernel.o)
 .text.osKernelLock
                0x0000000000000000       0x24 ../../lib/ext/tfm_test_repo-src/CMSIS/RTOS2/RTX/Library/GCC/libRTX_V8MMN.a(rtx_kernel.o)
 .text.osKernelUnlock
                0x0000000000000000       0x24 ../../lib/ext/tfm_test_repo-src/CMSIS/RTOS2/RTX/Library/GCC/libRTX_V8MMN.a(rtx_kernel.o)
 .text.osKernelRestoreLock
                0x0000000000000000       0x24 ../../lib/ext/tfm_test_repo-src/CMSIS/RTOS2/RTX/Library/GCC/libRTX_V8MMN.a(rtx_kernel.o)
 .text.osKernelSuspend
                0x0000000000000000       0x24 ../../lib/ext/tfm_test_repo-src/CMSIS/RTOS2/RTX/Library/GCC/libRTX_V8MMN.a(rtx_kernel.o)
 .text.osKernelResume
                0x0000000000000000       0x24 ../../lib/ext/tfm_test_repo-src/CMSIS/RTOS2/RTX/Library/GCC/libRTX_V8MMN.a(rtx_kernel.o)
 .text.osKernelGetTickCount
                0x0000000000000000       0x2c ../../lib/ext/tfm_test_repo-src/CMSIS/RTOS2/RTX/Library/GCC/libRTX_V8MMN.a(rtx_kernel.o)
 .text.osKernelGetTickFreq
                0x0000000000000000       0x2c ../../lib/ext/tfm_test_repo-src/CMSIS/RTOS2/RTX/Library/GCC/libRTX_V8MMN.a(rtx_kernel.o)
 .text.osKernelGetSysTimerCount
                0x0000000000000000       0x4c ../../lib/ext/tfm_test_repo-src/CMSIS/RTOS2/RTX/Library/GCC/libRTX_V8MMN.a(rtx_kernel.o)
 .text.osKernelGetSysTimerFreq
                0x0000000000000000       0x24 ../../lib/ext/tfm_test_repo-src/CMSIS/RTOS2/RTX/Library/GCC/libRTX_V8MMN.a(rtx_kernel.o)
 .text          0x0000000000000000        0x0 ../../lib/ext/tfm_test_repo-src/CMSIS/RTOS2/RTX/Library/GCC/libRTX_V8MMN.a(os_systick.o)
 .data          0x0000000000000000        0x0 ../../lib/ext/tfm_test_repo-src/CMSIS/RTOS2/RTX/Library/GCC/libRTX_V8MMN.a(os_systick.o)
 .text.OS_Tick_Disable
                0x0000000000000000       0x2c ../../lib/ext/tfm_test_repo-src/CMSIS/RTOS2/RTX/Library/GCC/libRTX_V8MMN.a(os_systick.o)
 .text.OS_Tick_GetClock
                0x0000000000000000        0xc ../../lib/ext/tfm_test_repo-src/CMSIS/RTOS2/RTX/Library/GCC/libRTX_V8MMN.a(os_systick.o)
 .text.OS_Tick_GetInterval
                0x0000000000000000        0xc ../../lib/ext/tfm_test_repo-src/CMSIS/RTOS2/RTX/Library/GCC/libRTX_V8MMN.a(os_systick.o)
 .text.OS_Tick_GetCount
                0x0000000000000000       0x10 ../../lib/ext/tfm_test_repo-src/CMSIS/RTOS2/RTX/Library/GCC/libRTX_V8MMN.a(os_systick.o)
 .text.OS_Tick_GetOverflow
                0x0000000000000000       0x10 ../../lib/ext/tfm_test_repo-src/CMSIS/RTOS2/RTX/Library/GCC/libRTX_V8MMN.a(os_systick.o)
 .text          0x0000000000000000        0x0 ../../lib/ext/tfm_test_repo-src/CMSIS/RTOS2/RTX/Library/GCC/libRTX_V8MMN.a(rtx_timer.o)
 .data          0x0000000000000000        0x0 ../../lib/ext/tfm_test_repo-src/CMSIS/RTOS2/RTX/Library/GCC/libRTX_V8MMN.a(rtx_timer.o)
 .bss           0x0000000000000000        0x0 ../../lib/ext/tfm_test_repo-src/CMSIS/RTOS2/RTX/Library/GCC/libRTX_V8MMN.a(rtx_timer.o)
 .text.svcRtxTimerGetName
                0x0000000000000000       0x10 ../../lib/ext/tfm_test_repo-src/CMSIS/RTOS2/RTX/Library/GCC/libRTX_V8MMN.a(rtx_timer.o)
 .text.svcRtxTimerStop
                0x0000000000000000       0x4c ../../lib/ext/tfm_test_repo-src/CMSIS/RTOS2/RTX/Library/GCC/libRTX_V8MMN.a(rtx_timer.o)
 .text.svcRtxTimerIsRunning
                0x0000000000000000       0x1c ../../lib/ext/tfm_test_repo-src/CMSIS/RTOS2/RTX/Library/GCC/libRTX_V8MMN.a(rtx_timer.o)
 .text.svcRtxTimerNew
                0x0000000000000000       0x80 ../../lib/ext/tfm_test_repo-src/CMSIS/RTOS2/RTX/Library/GCC/libRTX_V8MMN.a(rtx_timer.o)
 .text.svcRtxTimerDelete
                0x0000000000000000       0x68 ../../lib/ext/tfm_test_repo-src/CMSIS/RTOS2/RTX/Library/GCC/libRTX_V8MMN.a(rtx_timer.o)
 .text.svcRtxTimerStart
                0x0000000000000000       0xb8 ../../lib/ext/tfm_test_repo-src/CMSIS/RTOS2/RTX/Library/GCC/libRTX_V8MMN.a(rtx_timer.o)
 .text.osTimerNew
                0x0000000000000000       0x2c ../../lib/ext/tfm_test_repo-src/CMSIS/RTOS2/RTX/Library/GCC/libRTX_V8MMN.a(rtx_timer.o)
 .text.osTimerGetName
                0x0000000000000000       0x24 ../../lib/ext/tfm_test_repo-src/CMSIS/RTOS2/RTX/Library/GCC/libRTX_V8MMN.a(rtx_timer.o)
 .text.osTimerStart
                0x0000000000000000       0x24 ../../lib/ext/tfm_test_repo-src/CMSIS/RTOS2/RTX/Library/GCC/libRTX_V8MMN.a(rtx_timer.o)
 .text.osTimerStop
                0x0000000000000000       0x24 ../../lib/ext/tfm_test_repo-src/CMSIS/RTOS2/RTX/Library/GCC/libRTX_V8MMN.a(rtx_timer.o)
 .text.osTimerIsRunning
                0x0000000000000000       0x24 ../../lib/ext/tfm_test_repo-src/CMSIS/RTOS2/RTX/Library/GCC/libRTX_V8MMN.a(rtx_timer.o)
 .text.osTimerDelete
                0x0000000000000000       0x24 ../../lib/ext/tfm_test_repo-src/CMSIS/RTOS2/RTX/Library/GCC/libRTX_V8MMN.a(rtx_timer.o)
 .text          0x0000000000000000        0x0 libtfm_api_ns.a(tfm_ns_interface.o)
 .data          0x0000000000000000        0x0 libtfm_api_ns.a(tfm_ns_interface.o)
 .bss           0x0000000000000000        0x0 libtfm_api_ns.a(tfm_ns_interface.o)
 .text.tfm_ns_interface_dispatch
                0x0000000000000000       0x44 libtfm_api_ns.a(tfm_ns_interface.o)
 .text          0x0000000000000000       0xa0 /opt/gcc-arm-none-eabi-10.3-2021.10/bin/../lib/gcc/arm-none-eabi/10.3.1/thumb/v8-m.main/nofp/libgcc.a(_aeabi_ldivmod.o)
 .data          0x0000000000000000        0x0 /opt/gcc-arm-none-eabi-10.3-2021.10/bin/../lib/gcc/arm-none-eabi/10.3.1/thumb/v8-m.main/nofp/libgcc.a(_aeabi_ldivmod.o)
 .bss           0x0000000000000000        0x0 /opt/gcc-arm-none-eabi-10.3-2021.10/bin/../lib/gcc/arm-none-eabi/10.3.1/thumb/v8-m.main/nofp/libgcc.a(_aeabi_ldivmod.o)
 .debug_frame   0x0000000000000000       0x44 /opt/gcc-arm-none-eabi-10.3-2021.10/bin/../lib/gcc/arm-none-eabi/10.3.1/thumb/v8-m.main/nofp/libgcc.a(_aeabi_ldivmod.o)
 .ARM.attributes
                0x0000000000000000       0x22 /opt/gcc-arm-none-eabi-10.3-2021.10/bin/../lib/gcc/arm-none-eabi/10.3.1/thumb/v8-m.main/nofp/libgcc.a(_aeabi_ldivmod.o)
 .data          0x0000000000000000        0x0 /opt/gcc-arm-none-eabi-10.3-2021.10/bin/../lib/gcc/arm-none-eabi/10.3.1/thumb/v8-m.main/nofp/libgcc.a(_aeabi_uldivmod.o)
 .bss           0x0000000000000000        0x0 /opt/gcc-arm-none-eabi-10.3-2021.10/bin/../lib/gcc/arm-none-eabi/10.3.1/thumb/v8-m.main/nofp/libgcc.a(_aeabi_uldivmod.o)
 .data          0x0000000000000000        0x0 /opt/gcc-arm-none-eabi-10.3-2021.10/bin/../lib/gcc/arm-none-eabi/10.3.1/thumb/v8-m.main/nofp/libgcc.a(_udivmoddi4.o)
 .bss           0x0000000000000000        0x0 /opt/gcc-arm-none-eabi-10.3-2021.10/bin/../lib/gcc/arm-none-eabi/10.3.1/thumb/v8-m.main/nofp/libgcc.a(_udivmoddi4.o)
 .ARM.extab     0x0000000000000000        0x0 /opt/gcc-arm-none-eabi-10.3-2021.10/bin/../lib/gcc/arm-none-eabi/10.3.1/thumb/v8-m.main/nofp/libgcc.a(_udivmoddi4.o)
 .data          0x0000000000000000        0x0 /opt/gcc-arm-none-eabi-10.3-2021.10/bin/../lib/gcc/arm-none-eabi/10.3.1/thumb/v8-m.main/nofp/libgcc.a(_dvmd_tls.o)
 .bss           0x0000000000000000        0x0 /opt/gcc-arm-none-eabi-10.3-2021.10/bin/../lib/gcc/arm-none-eabi/10.3.1/thumb/v8-m.main/nofp/libgcc.a(_dvmd_tls.o)
 .text          0x0000000000000000        0x0 /opt/gcc-arm-none-eabi-10.3-2021.10/bin/../lib/gcc/arm-none-eabi/10.3.1/../../../../arm-none-eabi/lib/thumb/v8-m.main/nofp/libg_nano.a(lib_a-assert.o)
 .data          0x0000000000000000        0x0 /opt/gcc-arm-none-eabi-10.3-2021.10/bin/../lib/gcc/arm-none-eabi/10.3.1/../../../../arm-none-eabi/lib/thumb/v8-m.main/nofp/libg_nano.a(lib_a-assert.o)
 .bss           0x0000000000000000        0x0 /opt/gcc-arm-none-eabi-10.3-2021.10/bin/../lib/gcc/arm-none-eabi/10.3.1/../../../../arm-none-eabi/lib/thumb/v8-m.main/nofp/libg_nano.a(lib_a-assert.o)
 .text.__assert
                0x0000000000000000        0xa /opt/gcc-arm-none-eabi-10.3-2021.10/bin/../lib/gcc/arm-none-eabi/10.3.1/../../../../arm-none-eabi/lib/thumb/v8-m.main/nofp/libg_nano.a(lib_a-assert.o)
 .text          0x0000000000000000        0x0 /opt/gcc-arm-none-eabi-10.3-2021.10/bin/../lib/gcc/arm-none-eabi/10.3.1/../../../../arm-none-eabi/lib/thumb/v8-m.main/nofp/libg_nano.a(lib_a-exit.o)
 .data          0x0000000000000000        0x0 /opt/gcc-arm-none-eabi-10.3-2021.10/bin/../lib/gcc/arm-none-eabi/10.3.1/../../../../arm-none-eabi/lib/thumb/v8-m.main/nofp/libg_nano.a(lib_a-exit.o)
 .bss           0x0000000000000000        0x0 /opt/gcc-arm-none-eabi-10.3-2021.10/bin/../lib/gcc/arm-none-eabi/10.3.1/../../../../arm-none-eabi/lib/thumb/v8-m.main/nofp/libg_nano.a(lib_a-exit.o)
 .text          0x0000000000000000        0x0 /opt/gcc-arm-none-eabi-10.3-2021.10/bin/../lib/gcc/arm-none-eabi/10.3.1/../../../../arm-none-eabi/lib/thumb/v8-m.main/nofp/libg_nano.a(lib_a-fprintf.o)
 .data          0x0000000000000000        0x0 /opt/gcc-arm-none-eabi-10.3-2021.10/bin/../lib/gcc/arm-none-eabi/10.3.1/../../../../arm-none-eabi/lib/thumb/v8-m.main/nofp/libg_nano.a(lib_a-fprintf.o)
 .bss           0x0000000000000000        0x0 /opt/gcc-arm-none-eabi-10.3-2021.10/bin/../lib/gcc/arm-none-eabi/10.3.1/../../../../arm-none-eabi/lib/thumb/v8-m.main/nofp/libg_nano.a(lib_a-fprintf.o)
 .text._fprintf_r
                0x0000000000000000       0x1a /opt/gcc-arm-none-eabi-10.3-2021.10/bin/../lib/gcc/arm-none-eabi/10.3.1/../../../../arm-none-eabi/lib/thumb/v8-m.main/nofp/libg_nano.a(lib_a-fprintf.o)
 .text          0x0000000000000000        0x0 /opt/gcc-arm-none-eabi-10.3-2021.10/bin/../lib/gcc/arm-none-eabi/10.3.1/../../../../arm-none-eabi/lib/thumb/v8-m.main/nofp/libg_nano.a(lib_a-impure.o)
 .data          0x0000000000000000        0x0 /opt/gcc-arm-none-eabi-10.3-2021.10/bin/../lib/gcc/arm-none-eabi/10.3.1/../../../../arm-none-eabi/lib/thumb/v8-m.main/nofp/libg_nano.a(lib_a-impure.o)
 .bss           0x0000000000000000        0x0 /opt/gcc-arm-none-eabi-10.3-2021.10/bin/../lib/gcc/arm-none-eabi/10.3.1/../../../../arm-none-eabi/lib/thumb/v8-m.main/nofp/libg_nano.a(lib_a-impure.o)
 .text          0x0000000000000000        0x0 /opt/gcc-arm-none-eabi-10.3-2021.10/bin/../lib/gcc/arm-none-eabi/10.3.1/../../../../arm-none-eabi/lib/thumb/v8-m.main/nofp/libg_nano.a(lib_a-init.o)
 .data          0x0000000000000000        0x0 /opt/gcc-arm-none-eabi-10.3-2021.10/bin/../lib/gcc/arm-none-eabi/10.3.1/../../../../arm-none-eabi/lib/thumb/v8-m.main/nofp/libg_nano.a(lib_a-init.o)
 .bss           0x0000000000000000        0x0 /opt/gcc-arm-none-eabi-10.3-2021.10/bin/../lib/gcc/arm-none-eabi/10.3.1/../../../../arm-none-eabi/lib/thumb/v8-m.main/nofp/libg_nano.a(lib_a-init.o)
 .text          0x0000000000000000        0x0 /opt/gcc-arm-none-eabi-10.3-2021.10/bin/../lib/gcc/arm-none-eabi/10.3.1/../../../../arm-none-eabi/lib/thumb/v8-m.main/nofp/libg_nano.a(lib_a-memcpy-stub.o)
 .data          0x0000000000000000        0x0 /opt/gcc-arm-none-eabi-10.3-2021.10/bin/../lib/gcc/arm-none-eabi/10.3.1/../../../../arm-none-eabi/lib/thumb/v8-m.main/nofp/libg_nano.a(lib_a-memcpy-stub.o)
 .bss           0x0000000000000000        0x0 /opt/gcc-arm-none-eabi-10.3-2021.10/bin/../lib/gcc/arm-none-eabi/10.3.1/../../../../arm-none-eabi/lib/thumb/v8-m.main/nofp/libg_nano.a(lib_a-memcpy-stub.o)
 .text          0x0000000000000000        0x0 /opt/gcc-arm-none-eabi-10.3-2021.10/bin/../lib/gcc/arm-none-eabi/10.3.1/../../../../arm-none-eabi/lib/thumb/v8-m.main/nofp/libg_nano.a(lib_a-memset.o)
 .data          0x0000000000000000        0x0 /opt/gcc-arm-none-eabi-10.3-2021.10/bin/../lib/gcc/arm-none-eabi/10.3.1/../../../../arm-none-eabi/lib/thumb/v8-m.main/nofp/libg_nano.a(lib_a-memset.o)
 .bss           0x0000000000000000        0x0 /opt/gcc-arm-none-eabi-10.3-2021.10/bin/../lib/gcc/arm-none-eabi/10.3.1/../../../../arm-none-eabi/lib/thumb/v8-m.main/nofp/libg_nano.a(lib_a-memset.o)
 .text          0x0000000000000000        0x0 /opt/gcc-arm-none-eabi-10.3-2021.10/bin/../lib/gcc/arm-none-eabi/10.3.1/../../../../arm-none-eabi/lib/thumb/v8-m.main/nofp/libg_nano.a(lib_a-nano-vfprintf.o)
 .data          0x0000000000000000        0x0 /opt/gcc-arm-none-eabi-10.3-2021.10/bin/../lib/gcc/arm-none-eabi/10.3.1/../../../../arm-none-eabi/lib/thumb/v8-m.main/nofp/libg_nano.a(lib_a-nano-vfprintf.o)
 .bss           0x0000000000000000        0x0 /opt/gcc-arm-none-eabi-10.3-2021.10/bin/../lib/gcc/arm-none-eabi/10.3.1/../../../../arm-none-eabi/lib/thumb/v8-m.main/nofp/libg_nano.a(lib_a-nano-vfprintf.o)
 .text.__sprint_r
                0x0000000000000000       0x1a /opt/gcc-arm-none-eabi-10.3-2021.10/bin/../lib/gcc/arm-none-eabi/10.3.1/../../../../arm-none-eabi/lib/thumb/v8-m.main/nofp/libg_nano.a(lib_a-nano-vfprintf.o)
 .text.vfprintf
                0x0000000000000000       0x14 /opt/gcc-arm-none-eabi-10.3-2021.10/bin/../lib/gcc/arm-none-eabi/10.3.1/../../../../arm-none-eabi/lib/thumb/v8-m.main/nofp/libg_nano.a(lib_a-nano-vfprintf.o)
 .text          0x0000000000000000        0x0 /opt/gcc-arm-none-eabi-10.3-2021.10/bin/../lib/gcc/arm-none-eabi/10.3.1/../../../../arm-none-eabi/lib/thumb/v8-m.main/nofp/libg_nano.a(lib_a-nano-vfprintf_i.o)
 .data          0x0000000000000000        0x0 /opt/gcc-arm-none-eabi-10.3-2021.10/bin/../lib/gcc/arm-none-eabi/10.3.1/../../../../arm-none-eabi/lib/thumb/v8-m.main/nofp/libg_nano.a(lib_a-nano-vfprintf_i.o)
 .bss           0x0000000000000000        0x0 /opt/gcc-arm-none-eabi-10.3-2021.10/bin/../lib/gcc/arm-none-eabi/10.3.1/../../../../arm-none-eabi/lib/thumb/v8-m.main/nofp/libg_nano.a(lib_a-nano-vfprintf_i.o)
 .text          0x0000000000000000        0x0 /opt/gcc-arm-none-eabi-10.3-2021.10/bin/../lib/gcc/arm-none-eabi/10.3.1/../../../../arm-none-eabi/lib/thumb/v8-m.main/nofp/libg_nano.a(lib_a-wbuf.o)
 .data          0x0000000000000000        0x0 /opt/gcc-arm-none-eabi-10.3-2021.10/bin/../lib/gcc/arm-none-eabi/10.3.1/../../../../arm-none-eabi/lib/thumb/v8-m.main/nofp/libg_nano.a(lib_a-wbuf.o)
 .bss           0x0000000000000000        0x0 /opt/gcc-arm-none-eabi-10.3-2021.10/bin/../lib/gcc/arm-none-eabi/10.3.1/../../../../arm-none-eabi/lib/thumb/v8-m.main/nofp/libg_nano.a(lib_a-wbuf.o)
 .text.__swbuf  0x0000000000000000       0x10 /opt/gcc-arm-none-eabi-10.3-2021.10/bin/../lib/gcc/arm-none-eabi/10.3.1/../../../../arm-none-eabi/lib/thumb/v8-m.main/nofp/libg_nano.a(lib_a-wbuf.o)
 .text          0x0000000000000000        0x0 /opt/gcc-arm-none-eabi-10.3-2021.10/bin/../lib/gcc/arm-none-eabi/10.3.1/../../../../arm-none-eabi/lib/thumb/v8-m.main/nofp/libg_nano.a(lib_a-wsetup.o)
 .data          0x0000000000000000        0x0 /opt/gcc-arm-none-eabi-10.3-2021.10/bin/../lib/gcc/arm-none-eabi/10.3.1/../../../../arm-none-eabi/lib/thumb/v8-m.main/nofp/libg_nano.a(lib_a-wsetup.o)
 .bss           0x0000000000000000        0x0 /opt/gcc-arm-none-eabi-10.3-2021.10/bin/../lib/gcc/arm-none-eabi/10.3.1/../../../../arm-none-eabi/lib/thumb/v8-m.main/nofp/libg_nano.a(lib_a-wsetup.o)
 .text          0x0000000000000000        0x0 /opt/gcc-arm-none-eabi-10.3-2021.10/bin/../lib/gcc/arm-none-eabi/10.3.1/../../../../arm-none-eabi/lib/thumb/v8-m.main/nofp/libg_nano.a(lib_a-abort.o)
 .data          0x0000000000000000        0x0 /opt/gcc-arm-none-eabi-10.3-2021.10/bin/../lib/gcc/arm-none-eabi/10.3.1/../../../../arm-none-eabi/lib/thumb/v8-m.main/nofp/libg_nano.a(lib_a-abort.o)
 .bss           0x0000000000000000        0x0 /opt/gcc-arm-none-eabi-10.3-2021.10/bin/../lib/gcc/arm-none-eabi/10.3.1/../../../../arm-none-eabi/lib/thumb/v8-m.main/nofp/libg_nano.a(lib_a-abort.o)
 .text          0x0000000000000000        0x0 /opt/gcc-arm-none-eabi-10.3-2021.10/bin/../lib/gcc/arm-none-eabi/10.3.1/../../../../arm-none-eabi/lib/thumb/v8-m.main/nofp/libg_nano.a(lib_a-fflush.o)
 .data          0x0000000000000000        0x0 /opt/gcc-arm-none-eabi-10.3-2021.10/bin/../lib/gcc/arm-none-eabi/10.3.1/../../../../arm-none-eabi/lib/thumb/v8-m.main/nofp/libg_nano.a(lib_a-fflush.o)
 .bss           0x0000000000000000        0x0 /opt/gcc-arm-none-eabi-10.3-2021.10/bin/../lib/gcc/arm-none-eabi/10.3.1/../../../../arm-none-eabi/lib/thumb/v8-m.main/nofp/libg_nano.a(lib_a-fflush.o)
 .text.fflush   0x0000000000000000       0x24 /opt/gcc-arm-none-eabi-10.3-2021.10/bin/../lib/gcc/arm-none-eabi/10.3.1/../../../../arm-none-eabi/lib/thumb/v8-m.main/nofp/libg_nano.a(lib_a-fflush.o)
 .text          0x0000000000000000        0x0 /opt/gcc-arm-none-eabi-10.3-2021.10/bin/../lib/gcc/arm-none-eabi/10.3.1/../../../../arm-none-eabi/lib/thumb/v8-m.main/nofp/libg_nano.a(lib_a-findfp.o)
 .data          0x0000000000000000        0x0 /opt/gcc-arm-none-eabi-10.3-2021.10/bin/../lib/gcc/arm-none-eabi/10.3.1/../../../../arm-none-eabi/lib/thumb/v8-m.main/nofp/libg_nano.a(lib_a-findfp.o)
 .bss           0x0000000000000000        0x0 /opt/gcc-arm-none-eabi-10.3-2021.10/bin/../lib/gcc/arm-none-eabi/10.3.1/../../../../arm-none-eabi/lib/thumb/v8-m.main/nofp/libg_nano.a(lib_a-findfp.o)
 .text.__fp_lock
                0x0000000000000000       0x18 /opt/gcc-arm-none-eabi-10.3-2021.10/bin/../lib/gcc/arm-none-eabi/10.3.1/../../../../arm-none-eabi/lib/thumb/v8-m.main/nofp/libg_nano.a(lib_a-findfp.o)
 .text.__fp_unlock
                0x0000000000000000       0x18 /opt/gcc-arm-none-eabi-10.3-2021.10/bin/../lib/gcc/arm-none-eabi/10.3.1/../../../../arm-none-eabi/lib/thumb/v8-m.main/nofp/libg_nano.a(lib_a-findfp.o)
 .text._cleanup
                0x0000000000000000        0xc /opt/gcc-arm-none-eabi-10.3-2021.10/bin/../lib/gcc/arm-none-eabi/10.3.1/../../../../arm-none-eabi/lib/thumb/v8-m.main/nofp/libg_nano.a(lib_a-findfp.o)
 .text.__fp_lock_all
                0x0000000000000000       0x1c /opt/gcc-arm-none-eabi-10.3-2021.10/bin/../lib/gcc/arm-none-eabi/10.3.1/../../../../arm-none-eabi/lib/thumb/v8-m.main/nofp/libg_nano.a(lib_a-findfp.o)
 .text.__fp_unlock_all
                0x0000000000000000       0x1c /opt/gcc-arm-none-eabi-10.3-2021.10/bin/../lib/gcc/arm-none-eabi/10.3.1/../../../../arm-none-eabi/lib/thumb/v8-m.main/nofp/libg_nano.a(lib_a-findfp.o)
 .text          0x0000000000000000        0x0 /opt/gcc-arm-none-eabi-10.3-2021.10/bin/../lib/gcc/arm-none-eabi/10.3.1/../../../../arm-none-eabi/lib/thumb/v8-m.main/nofp/libg_nano.a(lib_a-fvwrite.o)
 .data          0x0000000000000000        0x0 /opt/gcc-arm-none-eabi-10.3-2021.10/bin/../lib/gcc/arm-none-eabi/10.3.1/../../../../arm-none-eabi/lib/thumb/v8-m.main/nofp/libg_nano.a(lib_a-fvwrite.o)
 .bss           0x0000000000000000        0x0 /opt/gcc-arm-none-eabi-10.3-2021.10/bin/../lib/gcc/arm-none-eabi/10.3.1/../../../../arm-none-eabi/lib/thumb/v8-m.main/nofp/libg_nano.a(lib_a-fvwrite.o)
 .text.__sfvwrite_r
                0x0000000000000000      0x290 /opt/gcc-arm-none-eabi-10.3-2021.10/bin/../lib/gcc/arm-none-eabi/10.3.1/../../../../arm-none-eabi/lib/thumb/v8-m.main/nofp/libg_nano.a(lib_a-fvwrite.o)
 .debug_frame   0x0000000000000000       0x3c /opt/gcc-arm-none-eabi-10.3-2021.10/bin/../lib/gcc/arm-none-eabi/10.3.1/../../../../arm-none-eabi/lib/thumb/v8-m.main/nofp/libg_nano.a(lib_a-fvwrite.o)
 .ARM.attributes
                0x0000000000000000       0x32 /opt/gcc-arm-none-eabi-10.3-2021.10/bin/../lib/gcc/arm-none-eabi/10.3.1/../../../../arm-none-eabi/lib/thumb/v8-m.main/nofp/libg_nano.a(lib_a-fvwrite.o)
 .text          0x0000000000000000        0x0 /opt/gcc-arm-none-eabi-10.3-2021.10/bin/../lib/gcc/arm-none-eabi/10.3.1/../../../../arm-none-eabi/lib/thumb/v8-m.main/nofp/libg_nano.a(lib_a-fwalk.o)
 .data          0x0000000000000000        0x0 /opt/gcc-arm-none-eabi-10.3-2021.10/bin/../lib/gcc/arm-none-eabi/10.3.1/../../../../arm-none-eabi/lib/thumb/v8-m.main/nofp/libg_nano.a(lib_a-fwalk.o)
 .bss           0x0000000000000000        0x0 /opt/gcc-arm-none-eabi-10.3-2021.10/bin/../lib/gcc/arm-none-eabi/10.3.1/../../../../arm-none-eabi/lib/thumb/v8-m.main/nofp/libg_nano.a(lib_a-fwalk.o)
 .text._fwalk   0x0000000000000000       0x3a /opt/gcc-arm-none-eabi-10.3-2021.10/bin/../lib/gcc/arm-none-eabi/10.3.1/../../../../arm-none-eabi/lib/thumb/v8-m.main/nofp/libg_nano.a(lib_a-fwalk.o)
 .text          0x0000000000000000        0x0 /opt/gcc-arm-none-eabi-10.3-2021.10/bin/../lib/gcc/arm-none-eabi/10.3.1/../../../../arm-none-eabi/lib/thumb/v8-m.main/nofp/libg_nano.a(lib_a-lock.o)
 .data          0x0000000000000000        0x0 /opt/gcc-arm-none-eabi-10.3-2021.10/bin/../lib/gcc/arm-none-eabi/10.3.1/../../../../arm-none-eabi/lib/thumb/v8-m.main/nofp/libg_nano.a(lib_a-lock.o)
 .bss           0x0000000000000000        0x0 /opt/gcc-arm-none-eabi-10.3-2021.10/bin/../lib/gcc/arm-none-eabi/10.3.1/../../../../arm-none-eabi/lib/thumb/v8-m.main/nofp/libg_nano.a(lib_a-lock.o)
 .text.__retarget_lock_init
                0x0000000000000000        0x2 /opt/gcc-arm-none-eabi-10.3-2021.10/bin/../lib/gcc/arm-none-eabi/10.3.1/../../../../arm-none-eabi/lib/thumb/v8-m.main/nofp/libg_nano.a(lib_a-lock.o)
 .text.__retarget_lock_close
                0x0000000000000000        0x2 /opt/gcc-arm-none-eabi-10.3-2021.10/bin/../lib/gcc/arm-none-eabi/10.3.1/../../../../arm-none-eabi/lib/thumb/v8-m.main/nofp/libg_nano.a(lib_a-lock.o)
 .text.__retarget_lock_close_recursive
                0x0000000000000000        0x2 /opt/gcc-arm-none-eabi-10.3-2021.10/bin/../lib/gcc/arm-none-eabi/10.3.1/../../../../arm-none-eabi/lib/thumb/v8-m.main/nofp/libg_nano.a(lib_a-lock.o)
 .text.__retarget_lock_acquire
                0x0000000000000000        0x2 /opt/gcc-arm-none-eabi-10.3-2021.10/bin/../lib/gcc/arm-none-eabi/10.3.1/../../../../arm-none-eabi/lib/thumb/v8-m.main/nofp/libg_nano.a(lib_a-lock.o)
 .text.__retarget_lock_try_acquire
                0x0000000000000000        0x4 /opt/gcc-arm-none-eabi-10.3-2021.10/bin/../lib/gcc/arm-none-eabi/10.3.1/../../../../arm-none-eabi/lib/thumb/v8-m.main/nofp/libg_nano.a(lib_a-lock.o)
 .text.__retarget_lock_try_acquire_recursive
                0x0000000000000000        0x4 /opt/gcc-arm-none-eabi-10.3-2021.10/bin/../lib/gcc/arm-none-eabi/10.3.1/../../../../arm-none-eabi/lib/thumb/v8-m.main/nofp/libg_nano.a(lib_a-lock.o)
 .text.__retarget_lock_release
                0x0000000000000000        0x2 /opt/gcc-arm-none-eabi-10.3-2021.10/bin/../lib/gcc/arm-none-eabi/10.3.1/../../../../arm-none-eabi/lib/thumb/v8-m.main/nofp/libg_nano.a(lib_a-lock.o)
 .bss.__lock___arc4random_mutex
                0x0000000000000000        0x1 /opt/gcc-arm-none-eabi-10.3-2021.10/bin/../lib/gcc/arm-none-eabi/10.3.1/../../../../arm-none-eabi/lib/thumb/v8-m.main/nofp/libg_nano.a(lib_a-lock.o)
 .bss.__lock___at_quick_exit_mutex
                0x0000000000000000        0x1 /opt/gcc-arm-none-eabi-10.3-2021.10/bin/../lib/gcc/arm-none-eabi/10.3.1/../../../../arm-none-eabi/lib/thumb/v8-m.main/nofp/libg_nano.a(lib_a-lock.o)
 .bss.__lock___atexit_recursive_mutex
                0x0000000000000000        0x1 /opt/gcc-arm-none-eabi-10.3-2021.10/bin/../lib/gcc/arm-none-eabi/10.3.1/../../../../arm-none-eabi/lib/thumb/v8-m.main/nofp/libg_nano.a(lib_a-lock.o)
 .bss.__lock___dd_hash_mutex
                0x0000000000000000        0x1 /opt/gcc-arm-none-eabi-10.3-2021.10/bin/../lib/gcc/arm-none-eabi/10.3.1/../../../../arm-none-eabi/lib/thumb/v8-m.main/nofp/libg_nano.a(lib_a-lock.o)
 .bss.__lock___env_recursive_mutex
                0x0000000000000000        0x1 /opt/gcc-arm-none-eabi-10.3-2021.10/bin/../lib/gcc/arm-none-eabi/10.3.1/../../../../arm-none-eabi/lib/thumb/v8-m.main/nofp/libg_nano.a(lib_a-lock.o)
 .bss.__lock___tz_mutex
                0x0000000000000000        0x1 /opt/gcc-arm-none-eabi-10.3-2021.10/bin/../lib/gcc/arm-none-eabi/10.3.1/../../../../arm-none-eabi/lib/thumb/v8-m.main/nofp/libg_nano.a(lib_a-lock.o)
 .text          0x0000000000000000        0x0 /opt/gcc-arm-none-eabi-10.3-2021.10/bin/../lib/gcc/arm-none-eabi/10.3.1/../../../../arm-none-eabi/lib/thumb/v8-m.main/nofp/libg_nano.a(lib_a-makebuf.o)
 .data          0x0000000000000000        0x0 /opt/gcc-arm-none-eabi-10.3-2021.10/bin/../lib/gcc/arm-none-eabi/10.3.1/../../../../arm-none-eabi/lib/thumb/v8-m.main/nofp/libg_nano.a(lib_a-makebuf.o)
 .bss           0x0000000000000000        0x0 /opt/gcc-arm-none-eabi-10.3-2021.10/bin/../lib/gcc/arm-none-eabi/10.3.1/../../../../arm-none-eabi/lib/thumb/v8-m.main/nofp/libg_nano.a(lib_a-makebuf.o)
 .text          0x0000000000000000        0x0 /opt/gcc-arm-none-eabi-10.3-2021.10/bin/../lib/gcc/arm-none-eabi/10.3.1/../../../../arm-none-eabi/lib/thumb/v8-m.main/nofp/libg_nano.a(lib_a-memchr-stub.o)
 .data          0x0000000000000000        0x0 /opt/gcc-arm-none-eabi-10.3-2021.10/bin/../lib/gcc/arm-none-eabi/10.3.1/../../../../arm-none-eabi/lib/thumb/v8-m.main/nofp/libg_nano.a(lib_a-memchr-stub.o)
 .bss           0x0000000000000000        0x0 /opt/gcc-arm-none-eabi-10.3-2021.10/bin/../lib/gcc/arm-none-eabi/10.3.1/../../../../arm-none-eabi/lib/thumb/v8-m.main/nofp/libg_nano.a(lib_a-memchr-stub.o)
 .text          0x0000000000000000        0x0 /opt/gcc-arm-none-eabi-10.3-2021.10/bin/../lib/gcc/arm-none-eabi/10.3.1/../../../../arm-none-eabi/lib/thumb/v8-m.main/nofp/libg_nano.a(lib_a-memmove.o)
 .data          0x0000000000000000        0x0 /opt/gcc-arm-none-eabi-10.3-2021.10/bin/../lib/gcc/arm-none-eabi/10.3.1/../../../../arm-none-eabi/lib/thumb/v8-m.main/nofp/libg_nano.a(lib_a-memmove.o)
 .bss           0x0000000000000000        0x0 /opt/gcc-arm-none-eabi-10.3-2021.10/bin/../lib/gcc/arm-none-eabi/10.3.1/../../../../arm-none-eabi/lib/thumb/v8-m.main/nofp/libg_nano.a(lib_a-memmove.o)
 .text.memmove  0x0000000000000000       0x34 /opt/gcc-arm-none-eabi-10.3-2021.10/bin/../lib/gcc/arm-none-eabi/10.3.1/../../../../arm-none-eabi/lib/thumb/v8-m.main/nofp/libg_nano.a(lib_a-memmove.o)
 .debug_frame   0x0000000000000000       0x28 /opt/gcc-arm-none-eabi-10.3-2021.10/bin/../lib/gcc/arm-none-eabi/10.3.1/../../../../arm-none-eabi/lib/thumb/v8-m.main/nofp/libg_nano.a(lib_a-memmove.o)
 .ARM.attributes
                0x0000000000000000       0x32 /opt/gcc-arm-none-eabi-10.3-2021.10/bin/../lib/gcc/arm-none-eabi/10.3.1/../../../../arm-none-eabi/lib/thumb/v8-m.main/nofp/libg_nano.a(lib_a-memmove.o)
 .text          0x0000000000000000        0x0 /opt/gcc-arm-none-eabi-10.3-2021.10/bin/../lib/gcc/arm-none-eabi/10.3.1/../../../../arm-none-eabi/lib/thumb/v8-m.main/nofp/libg_nano.a(lib_a-nano-freer.o)
 .data          0x0000000000000000        0x0 /opt/gcc-arm-none-eabi-10.3-2021.10/bin/../lib/gcc/arm-none-eabi/10.3.1/../../../../arm-none-eabi/lib/thumb/v8-m.main/nofp/libg_nano.a(lib_a-nano-freer.o)
 .bss           0x0000000000000000        0x0 /opt/gcc-arm-none-eabi-10.3-2021.10/bin/../lib/gcc/arm-none-eabi/10.3.1/../../../../arm-none-eabi/lib/thumb/v8-m.main/nofp/libg_nano.a(lib_a-nano-freer.o)
 .text          0x0000000000000000        0x0 /opt/gcc-arm-none-eabi-10.3-2021.10/bin/../lib/gcc/arm-none-eabi/10.3.1/../../../../arm-none-eabi/lib/thumb/v8-m.main/nofp/libg_nano.a(lib_a-nano-mallocr.o)
 .data          0x0000000000000000        0x0 /opt/gcc-arm-none-eabi-10.3-2021.10/bin/../lib/gcc/arm-none-eabi/10.3.1/../../../../arm-none-eabi/lib/thumb/v8-m.main/nofp/libg_nano.a(lib_a-nano-mallocr.o)
 .bss           0x0000000000000000        0x0 /opt/gcc-arm-none-eabi-10.3-2021.10/bin/../lib/gcc/arm-none-eabi/10.3.1/../../../../arm-none-eabi/lib/thumb/v8-m.main/nofp/libg_nano.a(lib_a-nano-mallocr.o)
 .text          0x0000000000000000        0x0 /opt/gcc-arm-none-eabi-10.3-2021.10/bin/../lib/gcc/arm-none-eabi/10.3.1/../../../../arm-none-eabi/lib/thumb/v8-m.main/nofp/libg_nano.a(lib_a-nano-reallocr.o)
 .data          0x0000000000000000        0x0 /opt/gcc-arm-none-eabi-10.3-2021.10/bin/../lib/gcc/arm-none-eabi/10.3.1/../../../../arm-none-eabi/lib/thumb/v8-m.main/nofp/libg_nano.a(lib_a-nano-reallocr.o)
 .bss           0x0000000000000000        0x0 /opt/gcc-arm-none-eabi-10.3-2021.10/bin/../lib/gcc/arm-none-eabi/10.3.1/../../../../arm-none-eabi/lib/thumb/v8-m.main/nofp/libg_nano.a(lib_a-nano-reallocr.o)
 .text._realloc_r
                0x0000000000000000       0x5e /opt/gcc-arm-none-eabi-10.3-2021.10/bin/../lib/gcc/arm-none-eabi/10.3.1/../../../../arm-none-eabi/lib/thumb/v8-m.main/nofp/libg_nano.a(lib_a-nano-reallocr.o)
 .debug_frame   0x0000000000000000       0x3c /opt/gcc-arm-none-eabi-10.3-2021.10/bin/../lib/gcc/arm-none-eabi/10.3.1/../../../../arm-none-eabi/lib/thumb/v8-m.main/nofp/libg_nano.a(lib_a-nano-reallocr.o)
 .ARM.attributes
                0x0000000000000000       0x32 /opt/gcc-arm-none-eabi-10.3-2021.10/bin/../lib/gcc/arm-none-eabi/10.3.1/../../../../arm-none-eabi/lib/thumb/v8-m.main/nofp/libg_nano.a(lib_a-nano-reallocr.o)
 .text          0x0000000000000000        0x0 /opt/gcc-arm-none-eabi-10.3-2021.10/bin/../lib/gcc/arm-none-eabi/10.3.1/../../../../arm-none-eabi/lib/thumb/v8-m.main/nofp/libg_nano.a(lib_a-sbrkr.o)
 .data          0x0000000000000000        0x0 /opt/gcc-arm-none-eabi-10.3-2021.10/bin/../lib/gcc/arm-none-eabi/10.3.1/../../../../arm-none-eabi/lib/thumb/v8-m.main/nofp/libg_nano.a(lib_a-sbrkr.o)
 .bss           0x0000000000000000        0x0 /opt/gcc-arm-none-eabi-10.3-2021.10/bin/../lib/gcc/arm-none-eabi/10.3.1/../../../../arm-none-eabi/lib/thumb/v8-m.main/nofp/libg_nano.a(lib_a-sbrkr.o)
 .text          0x0000000000000000        0x0 /opt/gcc-arm-none-eabi-10.3-2021.10/bin/../lib/gcc/arm-none-eabi/10.3.1/../../../../arm-none-eabi/lib/thumb/v8-m.main/nofp/libg_nano.a(lib_a-signal.o)
 .data          0x0000000000000000        0x0 /opt/gcc-arm-none-eabi-10.3-2021.10/bin/../lib/gcc/arm-none-eabi/10.3.1/../../../../arm-none-eabi/lib/thumb/v8-m.main/nofp/libg_nano.a(lib_a-signal.o)
 .bss           0x0000000000000000        0x0 /opt/gcc-arm-none-eabi-10.3-2021.10/bin/../lib/gcc/arm-none-eabi/10.3.1/../../../../arm-none-eabi/lib/thumb/v8-m.main/nofp/libg_nano.a(lib_a-signal.o)
 .text._init_signal_r
                0x0000000000000000       0x28 /opt/gcc-arm-none-eabi-10.3-2021.10/bin/../lib/gcc/arm-none-eabi/10.3.1/../../../../arm-none-eabi/lib/thumb/v8-m.main/nofp/libg_nano.a(lib_a-signal.o)
 .text._signal_r
                0x0000000000000000       0x30 /opt/gcc-arm-none-eabi-10.3-2021.10/bin/../lib/gcc/arm-none-eabi/10.3.1/../../../../arm-none-eabi/lib/thumb/v8-m.main/nofp/libg_nano.a(lib_a-signal.o)
 .text.__sigtramp_r
                0x0000000000000000       0x48 /opt/gcc-arm-none-eabi-10.3-2021.10/bin/../lib/gcc/arm-none-eabi/10.3.1/../../../../arm-none-eabi/lib/thumb/v8-m.main/nofp/libg_nano.a(lib_a-signal.o)
 .text.signal   0x0000000000000000       0x10 /opt/gcc-arm-none-eabi-10.3-2021.10/bin/../lib/gcc/arm-none-eabi/10.3.1/../../../../arm-none-eabi/lib/thumb/v8-m.main/nofp/libg_nano.a(lib_a-signal.o)
 .text._init_signal
                0x0000000000000000        0xc /opt/gcc-arm-none-eabi-10.3-2021.10/bin/../lib/gcc/arm-none-eabi/10.3.1/../../../../arm-none-eabi/lib/thumb/v8-m.main/nofp/libg_nano.a(lib_a-signal.o)
 .text.__sigtramp
                0x0000000000000000       0x10 /opt/gcc-arm-none-eabi-10.3-2021.10/bin/../lib/gcc/arm-none-eabi/10.3.1/../../../../arm-none-eabi/lib/thumb/v8-m.main/nofp/libg_nano.a(lib_a-signal.o)
 .text          0x0000000000000000        0x0 /opt/gcc-arm-none-eabi-10.3-2021.10/bin/../lib/gcc/arm-none-eabi/10.3.1/../../../../arm-none-eabi/lib/thumb/v8-m.main/nofp/libg_nano.a(lib_a-signalr.o)
 .data          0x0000000000000000        0x0 /opt/gcc-arm-none-eabi-10.3-2021.10/bin/../lib/gcc/arm-none-eabi/10.3.1/../../../../arm-none-eabi/lib/thumb/v8-m.main/nofp/libg_nano.a(lib_a-signalr.o)
 .bss           0x0000000000000000        0x0 /opt/gcc-arm-none-eabi-10.3-2021.10/bin/../lib/gcc/arm-none-eabi/10.3.1/../../../../arm-none-eabi/lib/thumb/v8-m.main/nofp/libg_nano.a(lib_a-signalr.o)
 .text          0x0000000000000000        0x0 /opt/gcc-arm-none-eabi-10.3-2021.10/bin/../lib/gcc/arm-none-eabi/10.3.1/../../../../arm-none-eabi/lib/thumb/v8-m.main/nofp/libg_nano.a(lib_a-stdio.o)
 .data          0x0000000000000000        0x0 /opt/gcc-arm-none-eabi-10.3-2021.10/bin/../lib/gcc/arm-none-eabi/10.3.1/../../../../arm-none-eabi/lib/thumb/v8-m.main/nofp/libg_nano.a(lib_a-stdio.o)
 .bss           0x0000000000000000        0x0 /opt/gcc-arm-none-eabi-10.3-2021.10/bin/../lib/gcc/arm-none-eabi/10.3.1/../../../../arm-none-eabi/lib/thumb/v8-m.main/nofp/libg_nano.a(lib_a-stdio.o)
 .text.__seofread
                0x0000000000000000        0x4 /opt/gcc-arm-none-eabi-10.3-2021.10/bin/../lib/gcc/arm-none-eabi/10.3.1/../../../../arm-none-eabi/lib/thumb/v8-m.main/nofp/libg_nano.a(lib_a-stdio.o)
 .text          0x0000000000000000        0x0 /opt/gcc-arm-none-eabi-10.3-2021.10/bin/../lib/gcc/arm-none-eabi/10.3.1/../../../../arm-none-eabi/lib/thumb/v8-m.main/nofp/libg_nano.a(lib_a-writer.o)
 .data          0x0000000000000000        0x0 /opt/gcc-arm-none-eabi-10.3-2021.10/bin/../lib/gcc/arm-none-eabi/10.3.1/../../../../arm-none-eabi/lib/thumb/v8-m.main/nofp/libg_nano.a(lib_a-writer.o)
 .bss           0x0000000000000000        0x0 /opt/gcc-arm-none-eabi-10.3-2021.10/bin/../lib/gcc/arm-none-eabi/10.3.1/../../../../arm-none-eabi/lib/thumb/v8-m.main/nofp/libg_nano.a(lib_a-writer.o)
 .text          0x0000000000000000        0x0 /opt/gcc-arm-none-eabi-10.3-2021.10/bin/../lib/gcc/arm-none-eabi/10.3.1/../../../../arm-none-eabi/lib/thumb/v8-m.main/nofp/libg_nano.a(lib_a-closer.o)
 .data          0x0000000000000000        0x0 /opt/gcc-arm-none-eabi-10.3-2021.10/bin/../lib/gcc/arm-none-eabi/10.3.1/../../../../arm-none-eabi/lib/thumb/v8-m.main/nofp/libg_nano.a(lib_a-closer.o)
 .bss           0x0000000000000000        0x0 /opt/gcc-arm-none-eabi-10.3-2021.10/bin/../lib/gcc/arm-none-eabi/10.3.1/../../../../arm-none-eabi/lib/thumb/v8-m.main/nofp/libg_nano.a(lib_a-closer.o)
 .text          0x0000000000000000        0x0 /opt/gcc-arm-none-eabi-10.3-2021.10/bin/../lib/gcc/arm-none-eabi/10.3.1/../../../../arm-none-eabi/lib/thumb/v8-m.main/nofp/libg_nano.a(lib_a-fstatr.o)
 .data          0x0000000000000000        0x0 /opt/gcc-arm-none-eabi-10.3-2021.10/bin/../lib/gcc/arm-none-eabi/10.3.1/../../../../arm-none-eabi/lib/thumb/v8-m.main/nofp/libg_nano.a(lib_a-fstatr.o)
 .bss           0x0000000000000000        0x0 /opt/gcc-arm-none-eabi-10.3-2021.10/bin/../lib/gcc/arm-none-eabi/10.3.1/../../../../arm-none-eabi/lib/thumb/v8-m.main/nofp/libg_nano.a(lib_a-fstatr.o)
 .text          0x0000000000000000        0x0 /opt/gcc-arm-none-eabi-10.3-2021.10/bin/../lib/gcc/arm-none-eabi/10.3.1/../../../../arm-none-eabi/lib/thumb/v8-m.main/nofp/libg_nano.a(lib_a-isattyr.o)
 .data          0x0000000000000000        0x0 /opt/gcc-arm-none-eabi-10.3-2021.10/bin/../lib/gcc/arm-none-eabi/10.3.1/../../../../arm-none-eabi/lib/thumb/v8-m.main/nofp/libg_nano.a(lib_a-isattyr.o)
 .bss           0x0000000000000000        0x0 /opt/gcc-arm-none-eabi-10.3-2021.10/bin/../lib/gcc/arm-none-eabi/10.3.1/../../../../arm-none-eabi/lib/thumb/v8-m.main/nofp/libg_nano.a(lib_a-isattyr.o)
 .text          0x0000000000000000        0x0 /opt/gcc-arm-none-eabi-10.3-2021.10/bin/../lib/gcc/arm-none-eabi/10.3.1/../../../../arm-none-eabi/lib/thumb/v8-m.main/nofp/libg_nano.a(lib_a-lseekr.o)
 .data          0x0000000000000000        0x0 /opt/gcc-arm-none-eabi-10.3-2021.10/bin/../lib/gcc/arm-none-eabi/10.3.1/../../../../arm-none-eabi/lib/thumb/v8-m.main/nofp/libg_nano.a(lib_a-lseekr.o)
 .bss           0x0000000000000000        0x0 /opt/gcc-arm-none-eabi-10.3-2021.10/bin/../lib/gcc/arm-none-eabi/10.3.1/../../../../arm-none-eabi/lib/thumb/v8-m.main/nofp/libg_nano.a(lib_a-lseekr.o)
 .text          0x0000000000000000        0x0 /opt/gcc-arm-none-eabi-10.3-2021.10/bin/../lib/gcc/arm-none-eabi/10.3.1/../../../../arm-none-eabi/lib/thumb/v8-m.main/nofp/libg_nano.a(lib_a-mlock.o)
 .data          0x0000000000000000        0x0 /opt/gcc-arm-none-eabi-10.3-2021.10/bin/../lib/gcc/arm-none-eabi/10.3.1/../../../../arm-none-eabi/lib/thumb/v8-m.main/nofp/libg_nano.a(lib_a-mlock.o)
 .bss           0x0000000000000000        0x0 /opt/gcc-arm-none-eabi-10.3-2021.10/bin/../lib/gcc/arm-none-eabi/10.3.1/../../../../arm-none-eabi/lib/thumb/v8-m.main/nofp/libg_nano.a(lib_a-mlock.o)
 .text          0x0000000000000000        0x0 /opt/gcc-arm-none-eabi-10.3-2021.10/bin/../lib/gcc/arm-none-eabi/10.3.1/../../../../arm-none-eabi/lib/thumb/v8-m.main/nofp/libg_nano.a(lib_a-nano-msizer.o)
 .data          0x0000000000000000        0x0 /opt/gcc-arm-none-eabi-10.3-2021.10/bin/../lib/gcc/arm-none-eabi/10.3.1/../../../../arm-none-eabi/lib/thumb/v8-m.main/nofp/libg_nano.a(lib_a-nano-msizer.o)
 .bss           0x0000000000000000        0x0 /opt/gcc-arm-none-eabi-10.3-2021.10/bin/../lib/gcc/arm-none-eabi/10.3.1/../../../../arm-none-eabi/lib/thumb/v8-m.main/nofp/libg_nano.a(lib_a-nano-msizer.o)
 .text._malloc_usable_size_r
                0x0000000000000000       0x10 /opt/gcc-arm-none-eabi-10.3-2021.10/bin/../lib/gcc/arm-none-eabi/10.3.1/../../../../arm-none-eabi/lib/thumb/v8-m.main/nofp/libg_nano.a(lib_a-nano-msizer.o)
 .debug_frame   0x0000000000000000       0x20 /opt/gcc-arm-none-eabi-10.3-2021.10/bin/../lib/gcc/arm-none-eabi/10.3.1/../../../../arm-none-eabi/lib/thumb/v8-m.main/nofp/libg_nano.a(lib_a-nano-msizer.o)
 .ARM.attributes
                0x0000000000000000       0x32 /opt/gcc-arm-none-eabi-10.3-2021.10/bin/../lib/gcc/arm-none-eabi/10.3.1/../../../../arm-none-eabi/lib/thumb/v8-m.main/nofp/libg_nano.a(lib_a-nano-msizer.o)
 .text          0x0000000000000000        0x0 /opt/gcc-arm-none-eabi-10.3-2021.10/bin/../lib/gcc/arm-none-eabi/10.3.1/../../../../arm-none-eabi/lib/thumb/v8-m.main/nofp/libg_nano.a(lib_a-readr.o)
 .data          0x0000000000000000        0x0 /opt/gcc-arm-none-eabi-10.3-2021.10/bin/../lib/gcc/arm-none-eabi/10.3.1/../../../../arm-none-eabi/lib/thumb/v8-m.main/nofp/libg_nano.a(lib_a-readr.o)
 .bss           0x0000000000000000        0x0 /opt/gcc-arm-none-eabi-10.3-2021.10/bin/../lib/gcc/arm-none-eabi/10.3.1/../../../../arm-none-eabi/lib/thumb/v8-m.main/nofp/libg_nano.a(lib_a-readr.o)
 .text          0x0000000000000000        0x0 /opt/gcc-arm-none-eabi-10.3-2021.10/bin/../lib/gcc/arm-none-eabi/10.3.1/../../../../arm-none-eabi/lib/thumb/v8-m.main/nofp/libg_nano.a(lib_a-reent.o)
 .data          0x0000000000000000        0x0 /opt/gcc-arm-none-eabi-10.3-2021.10/bin/../lib/gcc/arm-none-eabi/10.3.1/../../../../arm-none-eabi/lib/thumb/v8-m.main/nofp/libg_nano.a(lib_a-reent.o)
 .bss           0x0000000000000000        0x0 /opt/gcc-arm-none-eabi-10.3-2021.10/bin/../lib/gcc/arm-none-eabi/10.3.1/../../../../arm-none-eabi/lib/thumb/v8-m.main/nofp/libg_nano.a(lib_a-reent.o)
 .text.cleanup_glue
                0x0000000000000000       0x1a /opt/gcc-arm-none-eabi-10.3-2021.10/bin/../lib/gcc/arm-none-eabi/10.3.1/../../../../arm-none-eabi/lib/thumb/v8-m.main/nofp/libg_nano.a(lib_a-reent.o)
 .text._reclaim_reent
                0x0000000000000000       0xb8 /opt/gcc-arm-none-eabi-10.3-2021.10/bin/../lib/gcc/arm-none-eabi/10.3.1/../../../../arm-none-eabi/lib/thumb/v8-m.main/nofp/libg_nano.a(lib_a-reent.o)
 .text          0x0000000000000000        0x0 /opt/gcc-arm-none-eabi-10.3-2021.10/bin/../lib/gcc/arm-none-eabi/10.3.1/thumb/v8-m.main/nofp/crtend.o
 .data          0x0000000000000000        0x0 /opt/gcc-arm-none-eabi-10.3-2021.10/bin/../lib/gcc/arm-none-eabi/10.3.1/thumb/v8-m.main/nofp/crtend.o
 .bss           0x0000000000000000        0x0 /opt/gcc-arm-none-eabi-10.3-2021.10/bin/../lib/gcc/arm-none-eabi/10.3.1/thumb/v8-m.main/nofp/crtend.o
 .rodata        0x0000000000000000       0x24 /opt/gcc-arm-none-eabi-10.3-2021.10/bin/../lib/gcc/arm-none-eabi/10.3.1/thumb/v8-m.main/nofp/crtend.o
 .text          0x0000000000000000        0x0 /opt/gcc-arm-none-eabi-10.3-2021.10/bin/../lib/gcc/arm-none-eabi/10.3.1/thumb/v8-m.main/nofp/crtn.o
 .data          0x0000000000000000        0x0 /opt/gcc-arm-none-eabi-10.3-2021.10/bin/../lib/gcc/arm-none-eabi/10.3.1/thumb/v8-m.main/nofp/crtn.o
 .bss           0x0000000000000000        0x0 /opt/gcc-arm-none-eabi-10.3-2021.10/bin/../lib/gcc/arm-none-eabi/10.3.1/thumb/v8-m.main/nofp/crtn.o
 .text          0x0000000000000000        0x0 /opt/gcc-arm-none-eabi-10.3-2021.10/bin/../lib/gcc/arm-none-eabi/10.3.1/../../../../arm-none-eabi/lib/thumb/v8-m.main/nofp/libnosys.a(close.o)
 .data          0x0000000000000000        0x0 /opt/gcc-arm-none-eabi-10.3-2021.10/bin/../lib/gcc/arm-none-eabi/10.3.1/../../../../arm-none-eabi/lib/thumb/v8-m.main/nofp/libnosys.a(close.o)
 .bss           0x0000000000000000        0x0 /opt/gcc-arm-none-eabi-10.3-2021.10/bin/../lib/gcc/arm-none-eabi/10.3.1/../../../../arm-none-eabi/lib/thumb/v8-m.main/nofp/libnosys.a(close.o)
 .text          0x0000000000000000        0x0 /opt/gcc-arm-none-eabi-10.3-2021.10/bin/../lib/gcc/arm-none-eabi/10.3.1/../../../../arm-none-eabi/lib/thumb/v8-m.main/nofp/libnosys.a(fstat.o)
 .data          0x0000000000000000        0x0 /opt/gcc-arm-none-eabi-10.3-2021.10/bin/../lib/gcc/arm-none-eabi/10.3.1/../../../../arm-none-eabi/lib/thumb/v8-m.main/nofp/libnosys.a(fstat.o)
 .bss           0x0000000000000000        0x0 /opt/gcc-arm-none-eabi-10.3-2021.10/bin/../lib/gcc/arm-none-eabi/10.3.1/../../../../arm-none-eabi/lib/thumb/v8-m.main/nofp/libnosys.a(fstat.o)
 .text          0x0000000000000000        0x0 /opt/gcc-arm-none-eabi-10.3-2021.10/bin/../lib/gcc/arm-none-eabi/10.3.1/../../../../arm-none-eabi/lib/thumb/v8-m.main/nofp/libnosys.a(getpid.o)
 .data          0x0000000000000000        0x0 /opt/gcc-arm-none-eabi-10.3-2021.10/bin/../lib/gcc/arm-none-eabi/10.3.1/../../../../arm-none-eabi/lib/thumb/v8-m.main/nofp/libnosys.a(getpid.o)
 .bss           0x0000000000000000        0x0 /opt/gcc-arm-none-eabi-10.3-2021.10/bin/../lib/gcc/arm-none-eabi/10.3.1/../../../../arm-none-eabi/lib/thumb/v8-m.main/nofp/libnosys.a(getpid.o)
 .text          0x0000000000000000        0x0 /opt/gcc-arm-none-eabi-10.3-2021.10/bin/../lib/gcc/arm-none-eabi/10.3.1/../../../../arm-none-eabi/lib/thumb/v8-m.main/nofp/libnosys.a(isatty.o)
 .data          0x0000000000000000        0x0 /opt/gcc-arm-none-eabi-10.3-2021.10/bin/../lib/gcc/arm-none-eabi/10.3.1/../../../../arm-none-eabi/lib/thumb/v8-m.main/nofp/libnosys.a(isatty.o)
 .bss           0x0000000000000000        0x0 /opt/gcc-arm-none-eabi-10.3-2021.10/bin/../lib/gcc/arm-none-eabi/10.3.1/../../../../arm-none-eabi/lib/thumb/v8-m.main/nofp/libnosys.a(isatty.o)
 .text          0x0000000000000000        0x0 /opt/gcc-arm-none-eabi-10.3-2021.10/bin/../lib/gcc/arm-none-eabi/10.3.1/../../../../arm-none-eabi/lib/thumb/v8-m.main/nofp/libnosys.a(kill.o)
 .data          0x0000000000000000        0x0 /opt/gcc-arm-none-eabi-10.3-2021.10/bin/../lib/gcc/arm-none-eabi/10.3.1/../../../../arm-none-eabi/lib/thumb/v8-m.main/nofp/libnosys.a(kill.o)
 .bss           0x0000000000000000        0x0 /opt/gcc-arm-none-eabi-10.3-2021.10/bin/../lib/gcc/arm-none-eabi/10.3.1/../../../../arm-none-eabi/lib/thumb/v8-m.main/nofp/libnosys.a(kill.o)
 .text          0x0000000000000000        0x0 /opt/gcc-arm-none-eabi-10.3-2021.10/bin/../lib/gcc/arm-none-eabi/10.3.1/../../../../arm-none-eabi/lib/thumb/v8-m.main/nofp/libnosys.a(lseek.o)
 .data          0x0000000000000000        0x0 /opt/gcc-arm-none-eabi-10.3-2021.10/bin/../lib/gcc/arm-none-eabi/10.3.1/../../../../arm-none-eabi/lib/thumb/v8-m.main/nofp/libnosys.a(lseek.o)
 .bss           0x0000000000000000        0x0 /opt/gcc-arm-none-eabi-10.3-2021.10/bin/../lib/gcc/arm-none-eabi/10.3.1/../../../../arm-none-eabi/lib/thumb/v8-m.main/nofp/libnosys.a(lseek.o)
 .text          0x0000000000000000        0x0 /opt/gcc-arm-none-eabi-10.3-2021.10/bin/../lib/gcc/arm-none-eabi/10.3.1/../../../../arm-none-eabi/lib/thumb/v8-m.main/nofp/libnosys.a(read.o)
 .data          0x0000000000000000        0x0 /opt/gcc-arm-none-eabi-10.3-2021.10/bin/../lib/gcc/arm-none-eabi/10.3.1/../../../../arm-none-eabi/lib/thumb/v8-m.main/nofp/libnosys.a(read.o)
 .bss           0x0000000000000000        0x0 /opt/gcc-arm-none-eabi-10.3-2021.10/bin/../lib/gcc/arm-none-eabi/10.3.1/../../../../arm-none-eabi/lib/thumb/v8-m.main/nofp/libnosys.a(read.o)
 .text          0x0000000000000000        0x0 /opt/gcc-arm-none-eabi-10.3-2021.10/bin/../lib/gcc/arm-none-eabi/10.3.1/../../../../arm-none-eabi/lib/thumb/v8-m.main/nofp/libnosys.a(sbrk.o)
 .data          0x0000000000000000        0x0 /opt/gcc-arm-none-eabi-10.3-2021.10/bin/../lib/gcc/arm-none-eabi/10.3.1/../../../../arm-none-eabi/lib/thumb/v8-m.main/nofp/libnosys.a(sbrk.o)
 .bss           0x0000000000000000        0x0 /opt/gcc-arm-none-eabi-10.3-2021.10/bin/../lib/gcc/arm-none-eabi/10.3.1/../../../../arm-none-eabi/lib/thumb/v8-m.main/nofp/libnosys.a(sbrk.o)
 .text          0x0000000000000000        0x0 /opt/gcc-arm-none-eabi-10.3-2021.10/bin/../lib/gcc/arm-none-eabi/10.3.1/../../../../arm-none-eabi/lib/thumb/v8-m.main/nofp/libnosys.a(_exit.o)
 .data          0x0000000000000000        0x0 /opt/gcc-arm-none-eabi-10.3-2021.10/bin/../lib/gcc/arm-none-eabi/10.3.1/../../../../arm-none-eabi/lib/thumb/v8-m.main/nofp/libnosys.a(_exit.o)
 .bss           0x0000000000000000        0x0 /opt/gcc-arm-none-eabi-10.3-2021.10/bin/../lib/gcc/arm-none-eabi/10.3.1/../../../../arm-none-eabi/lib/thumb/v8-m.main/nofp/libnosys.a(_exit.o)

Memory Configuration

Name             Origin             Length             Attributes
FLASH            0x0000000008041400 0x0000000000006c00 xr
RAM              0x0000000020000000 0x0000000000020000 xrw
*default*        0x0000000000000000 0xffffffffffffffff

Linker script and memory map

LOAD /opt/gcc-arm-none-eabi-10.3-2021.10/bin/../lib/gcc/arm-none-eabi/10.3.1/thumb/v8-m.main/nofp/crti.o
LOAD /opt/gcc-arm-none-eabi-10.3-2021.10/bin/../lib/gcc/arm-none-eabi/10.3.1/thumb/v8-m.main/nofp/crtbegin.o
LOAD /opt/gcc-arm-none-eabi-10.3-2021.10/bin/../lib/gcc/arm-none-eabi/10.3.1/../../../../arm-none-eabi/lib/thumb/v8-m.main/nofp/crt0.o
LOAD CMakeFiles/tfm_ns.dir/main_ns.o
LOAD CMakeFiles/tfm_ns.dir/__/__/__/__/__/platform/ext/target/stm/common/stm32l5xx/Device/Source/startup_stm32l5xx_ns.o
LOAD CMakeFiles/tfm_ns.dir/__/ns_interface/ns_client_ext/tz_shim_layer.o
LOAD CMakeFiles/tfm_ns.dir/__/CMSIS/RTOS2/RTX/Config/RTX_Config.o
LOAD CMakeFiles/tfm_ns.dir/__/CMSIS/RTOS2/RTX/Source/rtx_lib.o
LOAD CMakeFiles/tfm_ns.dir/os_wrapper_cmsis_rtos_v2.o
LOAD CMakeFiles/tfm_ns.dir/__/log/tfm_log_raw.o
LOAD ../../platform/ns/libplatform_ns.a
LOAD libtfm_test_app.a
LOAD ../../lib/ext/tfm_test_repo-src/CMSIS/RTOS2/RTX/Library/GCC/libRTX_V8MMN.a
LOAD libtfm_api_ns.a
LOAD ../../platform/ns/libplatform_ns.a
LOAD ../../secure_fw/libtfm_s_veneers.a
START GROUP
LOAD /opt/gcc-arm-none-eabi-10.3-2021.10/bin/../lib/gcc/arm-none-eabi/10.3.1/thumb/v8-m.main/nofp/libgcc.a
LOAD /opt/gcc-arm-none-eabi-10.3-2021.10/bin/../lib/gcc/arm-none-eabi/10.3.1/../../../../arm-none-eabi/lib/thumb/v8-m.main/nofp/libg_nano.a
LOAD /opt/gcc-arm-none-eabi-10.3-2021.10/bin/../lib/gcc/arm-none-eabi/10.3.1/../../../../arm-none-eabi/lib/thumb/v8-m.main/nofp/libc_nano.a
END GROUP
START GROUP
LOAD /opt/gcc-arm-none-eabi-10.3-2021.10/bin/../lib/gcc/arm-none-eabi/10.3.1/thumb/v8-m.main/nofp/libgcc.a
LOAD /opt/gcc-arm-none-eabi-10.3-2021.10/bin/../lib/gcc/arm-none-eabi/10.3.1/../../../../arm-none-eabi/lib/thumb/v8-m.main/nofp/libc_nano.a
END GROUP
LOAD /opt/gcc-arm-none-eabi-10.3-2021.10/bin/../lib/gcc/arm-none-eabi/10.3.1/thumb/v8-m.main/nofp/crtend.o
LOAD /opt/gcc-arm-none-eabi-10.3-2021.10/bin/../lib/gcc/arm-none-eabi/10.3.1/thumb/v8-m.main/nofp/crtn.o
                0x0000000000001000                __heap_size__ = 0x1000
                0x0000000000001000                __stack_size__ = 0x1000
START GROUP
LOAD /opt/gcc-arm-none-eabi-10.3-2021.10/bin/../lib/gcc/arm-none-eabi/10.3.1/thumb/v8-m.main/nofp/libgcc.a
LOAD /opt/gcc-arm-none-eabi-10.3-2021.10/bin/../lib/gcc/arm-none-eabi/10.3.1/../../../../arm-none-eabi/lib/thumb/v8-m.main/nofp/libc.a
LOAD /opt/gcc-arm-none-eabi-10.3-2021.10/bin/../lib/gcc/arm-none-eabi/10.3.1/../../../../arm-none-eabi/lib/thumb/v8-m.main/nofp/libm.a
LOAD /opt/gcc-arm-none-eabi-10.3-2021.10/bin/../lib/gcc/arm-none-eabi/10.3.1/../../../../arm-none-eabi/lib/thumb/v8-m.main/nofp/libnosys.a
END GROUP

.text           0x0000000008041400     0x46a0
 *(.vectors)
 .vectors       0x0000000008041400      0x1f4 CMakeFiles/tfm_ns.dir/__/__/__/__/__/platform/ext/target/stm/common/stm32l5xx/Device/Source/startup_stm32l5xx_ns.o
                0x0000000008041400                __Vectors
                0x00000000080415f4                __Vectors_End = .
                0x00000000080415f4                __Vectors_Size = (__Vectors_End - __Vectors)
                0x0000000020003640                __end__ = .
 *(.text*)
 .text          0x00000000080415f4       0x40 /opt/gcc-arm-none-eabi-10.3-2021.10/bin/../lib/gcc/arm-none-eabi/10.3.1/thumb/v8-m.main/nofp/crtbegin.o
 .text          0x0000000008041634       0x7c /opt/gcc-arm-none-eabi-10.3-2021.10/bin/../lib/gcc/arm-none-eabi/10.3.1/../../../../arm-none-eabi/lib/thumb/v8-m.main/nofp/crt0.o
                0x0000000008041634                _stack_init
                0x000000000804163c                _mainCRTStartup
                0x000000000804163c                _start
 .text.tfm_ns_platform_init
                0x00000000080416b0        0xa CMakeFiles/tfm_ns.dir/main_ns.o
                0x00000000080416b0                tfm_ns_platform_init
 .text.tfm_ns_cp_init
                0x00000000080416ba        0x4 CMakeFiles/tfm_ns.dir/main_ns.o
                0x00000000080416ba                tfm_ns_cp_init
 *fill*         0x00000000080416be        0x2 
 .text.startup.main
                0x00000000080416c0       0x40 CMakeFiles/tfm_ns.dir/main_ns.o
                0x00000000080416c0                main
 .text.NMI_Handler
                0x0000000008041700        0x2 CMakeFiles/tfm_ns.dir/__/__/__/__/__/platform/ext/target/stm/common/stm32l5xx/Device/Source/startup_stm32l5xx_ns.o
                0x0000000008041700                NMI_Handler
 .text.HardFault_Handler
                0x0000000008041702        0x2 CMakeFiles/tfm_ns.dir/__/__/__/__/__/platform/ext/target/stm/common/stm32l5xx/Device/Source/startup_stm32l5xx_ns.o
                0x0000000008041702                HardFault_Handler
 .text.MemManage_Handler
                0x0000000008041704        0x2 CMakeFiles/tfm_ns.dir/__/__/__/__/__/platform/ext/target/stm/common/stm32l5xx/Device/Source/startup_stm32l5xx_ns.o
                0x0000000008041704                MemManage_Handler
 .text.BusFault_Handler
                0x0000000008041706        0x2 CMakeFiles/tfm_ns.dir/__/__/__/__/__/platform/ext/target/stm/common/stm32l5xx/Device/Source/startup_stm32l5xx_ns.o
                0x0000000008041706                BusFault_Handler
 .text.UsageFault_Handler
                0x0000000008041708        0x2 CMakeFiles/tfm_ns.dir/__/__/__/__/__/platform/ext/target/stm/common/stm32l5xx/Device/Source/startup_stm32l5xx_ns.o
                0x0000000008041708                UsageFault_Handler
 .text.SecureFault_Handler
                0x000000000804170a        0x2 CMakeFiles/tfm_ns.dir/__/__/__/__/__/platform/ext/target/stm/common/stm32l5xx/Device/Source/startup_stm32l5xx_ns.o
                0x000000000804170a                SecureFault_Handler
 .text.DebugMon_Handler
                0x000000000804170c        0x2 CMakeFiles/tfm_ns.dir/__/__/__/__/__/platform/ext/target/stm/common/stm32l5xx/Device/Source/startup_stm32l5xx_ns.o
                0x000000000804170c                DebugMon_Handler
 .text.WWDG_IRQHandler
                0x000000000804170e        0x2 CMakeFiles/tfm_ns.dir/__/__/__/__/__/platform/ext/target/stm/common/stm32l5xx/Device/Source/startup_stm32l5xx_ns.o
                0x000000000804170e                WWDG_IRQHandler
 .text.PVD_PVM_IRQHandler
                0x0000000008041710        0x2 CMakeFiles/tfm_ns.dir/__/__/__/__/__/platform/ext/target/stm/common/stm32l5xx/Device/Source/startup_stm32l5xx_ns.o
                0x0000000008041710                PVD_PVM_IRQHandler
 .text.RTC_IRQHandler
                0x0000000008041712        0x2 CMakeFiles/tfm_ns.dir/__/__/__/__/__/platform/ext/target/stm/common/stm32l5xx/Device/Source/startup_stm32l5xx_ns.o
                0x0000000008041712                RTC_IRQHandler
 .text.RTC_IRQHandler_S
                0x0000000008041714        0x2 CMakeFiles/tfm_ns.dir/__/__/__/__/__/platform/ext/target/stm/common/stm32l5xx/Device/Source/startup_stm32l5xx_ns.o
                0x0000000008041714                RTC_IRQHandler_S
 .text.TAMP_IRQHandler
                0x0000000008041716        0x2 CMakeFiles/tfm_ns.dir/__/__/__/__/__/platform/ext/target/stm/common/stm32l5xx/Device/Source/startup_stm32l5xx_ns.o
                0x0000000008041716                TAMP_IRQHandler
 .text.TAMP_IRQHandler_S
                0x0000000008041718        0x2 CMakeFiles/tfm_ns.dir/__/__/__/__/__/platform/ext/target/stm/common/stm32l5xx/Device/Source/startup_stm32l5xx_ns.o
                0x0000000008041718                TAMP_IRQHandler_S
 .text.FLASH_IRQHandler
                0x000000000804171a        0x2 CMakeFiles/tfm_ns.dir/__/__/__/__/__/platform/ext/target/stm/common/stm32l5xx/Device/Source/startup_stm32l5xx_ns.o
                0x000000000804171a                FLASH_IRQHandler
 .text.FLASH_IRQHandler_S
                0x000000000804171c        0x2 CMakeFiles/tfm_ns.dir/__/__/__/__/__/platform/ext/target/stm/common/stm32l5xx/Device/Source/startup_stm32l5xx_ns.o
                0x000000000804171c                FLASH_IRQHandler_S
 .text.SERR_IRQHandler
                0x000000000804171e        0x2 CMakeFiles/tfm_ns.dir/__/__/__/__/__/platform/ext/target/stm/common/stm32l5xx/Device/Source/startup_stm32l5xx_ns.o
                0x000000000804171e                SERR_IRQHandler
 .text.RCC_IRQHandler
                0x0000000008041720        0x2 CMakeFiles/tfm_ns.dir/__/__/__/__/__/platform/ext/target/stm/common/stm32l5xx/Device/Source/startup_stm32l5xx_ns.o
                0x0000000008041720                RCC_IRQHandler
 .text.RCC_IRQHandler_S
                0x0000000008041722        0x2 CMakeFiles/tfm_ns.dir/__/__/__/__/__/platform/ext/target/stm/common/stm32l5xx/Device/Source/startup_stm32l5xx_ns.o
                0x0000000008041722                RCC_IRQHandler_S
 .text.EXTI0_IRQHandler
                0x0000000008041724        0x2 CMakeFiles/tfm_ns.dir/__/__/__/__/__/platform/ext/target/stm/common/stm32l5xx/Device/Source/startup_stm32l5xx_ns.o
                0x0000000008041724                EXTI0_IRQHandler
 .text.EXTI1_IRQHandler
                0x0000000008041726        0x2 CMakeFiles/tfm_ns.dir/__/__/__/__/__/platform/ext/target/stm/common/stm32l5xx/Device/Source/startup_stm32l5xx_ns.o
                0x0000000008041726                EXTI1_IRQHandler
 .text.EXTI2_IRQHandler
                0x0000000008041728        0x2 CMakeFiles/tfm_ns.dir/__/__/__/__/__/platform/ext/target/stm/common/stm32l5xx/Device/Source/startup_stm32l5xx_ns.o
                0x0000000008041728                EXTI2_IRQHandler
 .text.EXTI3_IRQHandler
                0x000000000804172a        0x2 CMakeFiles/tfm_ns.dir/__/__/__/__/__/platform/ext/target/stm/common/stm32l5xx/Device/Source/startup_stm32l5xx_ns.o
                0x000000000804172a                EXTI3_IRQHandler
 .text.EXTI4_IRQHandler
                0x000000000804172c        0x2 CMakeFiles/tfm_ns.dir/__/__/__/__/__/platform/ext/target/stm/common/stm32l5xx/Device/Source/startup_stm32l5xx_ns.o
                0x000000000804172c                EXTI4_IRQHandler
 .text.EXTI5_IRQHandler
                0x000000000804172e        0x2 CMakeFiles/tfm_ns.dir/__/__/__/__/__/platform/ext/target/stm/common/stm32l5xx/Device/Source/startup_stm32l5xx_ns.o
                0x000000000804172e                EXTI5_IRQHandler
 .text.EXTI6_IRQHandler
                0x0000000008041730        0x2 CMakeFiles/tfm_ns.dir/__/__/__/__/__/platform/ext/target/stm/common/stm32l5xx/Device/Source/startup_stm32l5xx_ns.o
                0x0000000008041730                EXTI6_IRQHandler
 .text.EXTI7_IRQHandler
                0x0000000008041732        0x2 CMakeFiles/tfm_ns.dir/__/__/__/__/__/platform/ext/target/stm/common/stm32l5xx/Device/Source/startup_stm32l5xx_ns.o
                0x0000000008041732                EXTI7_IRQHandler
 .text.EXTI8_IRQHandler
                0x0000000008041734        0x2 CMakeFiles/tfm_ns.dir/__/__/__/__/__/platform/ext/target/stm/common/stm32l5xx/Device/Source/startup_stm32l5xx_ns.o
                0x0000000008041734                EXTI8_IRQHandler
 .text.EXTI9_IRQHandler
                0x0000000008041736        0x2 CMakeFiles/tfm_ns.dir/__/__/__/__/__/platform/ext/target/stm/common/stm32l5xx/Device/Source/startup_stm32l5xx_ns.o
                0x0000000008041736                EXTI9_IRQHandler
 .text.EXTI10_IRQHandler
                0x0000000008041738        0x2 CMakeFiles/tfm_ns.dir/__/__/__/__/__/platform/ext/target/stm/common/stm32l5xx/Device/Source/startup_stm32l5xx_ns.o
                0x0000000008041738                EXTI10_IRQHandler
 .text.EXTI11_IRQHandler
                0x000000000804173a        0x2 CMakeFiles/tfm_ns.dir/__/__/__/__/__/platform/ext/target/stm/common/stm32l5xx/Device/Source/startup_stm32l5xx_ns.o
                0x000000000804173a                EXTI11_IRQHandler
 .text.EXTI12_IRQHandler
                0x000000000804173c        0x2 CMakeFiles/tfm_ns.dir/__/__/__/__/__/platform/ext/target/stm/common/stm32l5xx/Device/Source/startup_stm32l5xx_ns.o
                0x000000000804173c                EXTI12_IRQHandler
 .text.EXTI13_IRQHandler
                0x000000000804173e        0x2 CMakeFiles/tfm_ns.dir/__/__/__/__/__/platform/ext/target/stm/common/stm32l5xx/Device/Source/startup_stm32l5xx_ns.o
                0x000000000804173e                EXTI13_IRQHandler
 .text.EXTI14_IRQHandler
                0x0000000008041740        0x2 CMakeFiles/tfm_ns.dir/__/__/__/__/__/platform/ext/target/stm/common/stm32l5xx/Device/Source/startup_stm32l5xx_ns.o
                0x0000000008041740                EXTI14_IRQHandler
 .text.EXTI15_IRQHandler
                0x0000000008041742        0x2 CMakeFiles/tfm_ns.dir/__/__/__/__/__/platform/ext/target/stm/common/stm32l5xx/Device/Source/startup_stm32l5xx_ns.o
                0x0000000008041742                EXTI15_IRQHandler
 .text.DMAMUX1_IRQHandler
                0x0000000008041744        0x2 CMakeFiles/tfm_ns.dir/__/__/__/__/__/platform/ext/target/stm/common/stm32l5xx/Device/Source/startup_stm32l5xx_ns.o
                0x0000000008041744                DMAMUX1_IRQHandler
 .text.DMAMUX1_IRQHandler_S
                0x0000000008041746        0x2 CMakeFiles/tfm_ns.dir/__/__/__/__/__/platform/ext/target/stm/common/stm32l5xx/Device/Source/startup_stm32l5xx_ns.o
                0x0000000008041746                DMAMUX1_IRQHandler_S
 .text.DMA1_Channel1_IRQHandler
                0x0000000008041748        0x2 CMakeFiles/tfm_ns.dir/__/__/__/__/__/platform/ext/target/stm/common/stm32l5xx/Device/Source/startup_stm32l5xx_ns.o
                0x0000000008041748                DMA1_Channel1_IRQHandler
 .text.DMA1_Channel2_IRQHandler
                0x000000000804174a        0x2 CMakeFiles/tfm_ns.dir/__/__/__/__/__/platform/ext/target/stm/common/stm32l5xx/Device/Source/startup_stm32l5xx_ns.o
                0x000000000804174a                DMA1_Channel2_IRQHandler
 .text.DMA1_Channel3_IRQHandler
                0x000000000804174c        0x2 CMakeFiles/tfm_ns.dir/__/__/__/__/__/platform/ext/target/stm/common/stm32l5xx/Device/Source/startup_stm32l5xx_ns.o
                0x000000000804174c                DMA1_Channel3_IRQHandler
 .text.DMA1_Channel4_IRQHandler
                0x000000000804174e        0x2 CMakeFiles/tfm_ns.dir/__/__/__/__/__/platform/ext/target/stm/common/stm32l5xx/Device/Source/startup_stm32l5xx_ns.o
                0x000000000804174e                DMA1_Channel4_IRQHandler
 .text.DMA1_Channel5_IRQHandler
                0x0000000008041750        0x2 CMakeFiles/tfm_ns.dir/__/__/__/__/__/platform/ext/target/stm/common/stm32l5xx/Device/Source/startup_stm32l5xx_ns.o
                0x0000000008041750                DMA1_Channel5_IRQHandler
 .text.DMA1_Channel6_IRQHandler
                0x0000000008041752        0x2 CMakeFiles/tfm_ns.dir/__/__/__/__/__/platform/ext/target/stm/common/stm32l5xx/Device/Source/startup_stm32l5xx_ns.o
                0x0000000008041752                DMA1_Channel6_IRQHandler
 .text.DMA1_Channel7_IRQHandler
                0x0000000008041754        0x2 CMakeFiles/tfm_ns.dir/__/__/__/__/__/platform/ext/target/stm/common/stm32l5xx/Device/Source/startup_stm32l5xx_ns.o
                0x0000000008041754                DMA1_Channel7_IRQHandler
 .text.DMA1_Channel8_IRQHandler
                0x0000000008041756        0x2 CMakeFiles/tfm_ns.dir/__/__/__/__/__/platform/ext/target/stm/common/stm32l5xx/Device/Source/startup_stm32l5xx_ns.o
                0x0000000008041756                DMA1_Channel8_IRQHandler
 .text.ADC1_2_IRQHandler
                0x0000000008041758        0x2 CMakeFiles/tfm_ns.dir/__/__/__/__/__/platform/ext/target/stm/common/stm32l5xx/Device/Source/startup_stm32l5xx_ns.o
                0x0000000008041758                ADC1_2_IRQHandler
 .text.DAC_IRQHandler
                0x000000000804175a        0x2 CMakeFiles/tfm_ns.dir/__/__/__/__/__/platform/ext/target/stm/common/stm32l5xx/Device/Source/startup_stm32l5xx_ns.o
                0x000000000804175a                DAC_IRQHandler
 .text.FDCAN1_IT0_IRQHandler
                0x000000000804175c        0x2 CMakeFiles/tfm_ns.dir/__/__/__/__/__/platform/ext/target/stm/common/stm32l5xx/Device/Source/startup_stm32l5xx_ns.o
                0x000000000804175c                FDCAN1_IT0_IRQHandler
 .text.FDCAN1_IT1_IRQHandler
                0x000000000804175e        0x2 CMakeFiles/tfm_ns.dir/__/__/__/__/__/platform/ext/target/stm/common/stm32l5xx/Device/Source/startup_stm32l5xx_ns.o
                0x000000000804175e                FDCAN1_IT1_IRQHandler
 .text.TIM1_BRK_IRQHandler
                0x0000000008041760        0x2 CMakeFiles/tfm_ns.dir/__/__/__/__/__/platform/ext/target/stm/common/stm32l5xx/Device/Source/startup_stm32l5xx_ns.o
                0x0000000008041760                TIM1_BRK_IRQHandler
 .text.TIM1_UP_IRQHandler
                0x0000000008041762        0x2 CMakeFiles/tfm_ns.dir/__/__/__/__/__/platform/ext/target/stm/common/stm32l5xx/Device/Source/startup_stm32l5xx_ns.o
                0x0000000008041762                TIM1_UP_IRQHandler
 .text.TIM1_TRG_COM_IRQHandler
                0x0000000008041764        0x2 CMakeFiles/tfm_ns.dir/__/__/__/__/__/platform/ext/target/stm/common/stm32l5xx/Device/Source/startup_stm32l5xx_ns.o
                0x0000000008041764                TIM1_TRG_COM_IRQHandler
 .text.TIM1_CC_IRQHandler
                0x0000000008041766        0x2 CMakeFiles/tfm_ns.dir/__/__/__/__/__/platform/ext/target/stm/common/stm32l5xx/Device/Source/startup_stm32l5xx_ns.o
                0x0000000008041766                TIM1_CC_IRQHandler
 .text.TIM2_IRQHandler
                0x0000000008041768        0x2 CMakeFiles/tfm_ns.dir/__/__/__/__/__/platform/ext/target/stm/common/stm32l5xx/Device/Source/startup_stm32l5xx_ns.o
                0x0000000008041768                TIM2_IRQHandler
 .text.TIM3_IRQHandler
                0x000000000804176a        0x2 CMakeFiles/tfm_ns.dir/__/__/__/__/__/platform/ext/target/stm/common/stm32l5xx/Device/Source/startup_stm32l5xx_ns.o
                0x000000000804176a                TIM3_IRQHandler
 .text.TIM4_IRQHandler
                0x000000000804176c        0x2 CMakeFiles/tfm_ns.dir/__/__/__/__/__/platform/ext/target/stm/common/stm32l5xx/Device/Source/startup_stm32l5xx_ns.o
                0x000000000804176c                TIM4_IRQHandler
 .text.TIM5_IRQHandler
                0x000000000804176e        0x2 CMakeFiles/tfm_ns.dir/__/__/__/__/__/platform/ext/target/stm/common/stm32l5xx/Device/Source/startup_stm32l5xx_ns.o
                0x000000000804176e                TIM5_IRQHandler
 .text.TIM6_IRQHandler
                0x0000000008041770        0x2 CMakeFiles/tfm_ns.dir/__/__/__/__/__/platform/ext/target/stm/common/stm32l5xx/Device/Source/startup_stm32l5xx_ns.o
                0x0000000008041770                TIM6_IRQHandler
 .text.TIM7_IRQHandler
                0x0000000008041772        0x2 CMakeFiles/tfm_ns.dir/__/__/__/__/__/platform/ext/target/stm/common/stm32l5xx/Device/Source/startup_stm32l5xx_ns.o
                0x0000000008041772                TIM7_IRQHandler
 .text.TIM8_BRK_IRQHandler
                0x0000000008041774        0x2 CMakeFiles/tfm_ns.dir/__/__/__/__/__/platform/ext/target/stm/common/stm32l5xx/Device/Source/startup_stm32l5xx_ns.o
                0x0000000008041774                TIM8_BRK_IRQHandler
 .text.TIM8_UP_IRQHandler
                0x0000000008041776        0x2 CMakeFiles/tfm_ns.dir/__/__/__/__/__/platform/ext/target/stm/common/stm32l5xx/Device/Source/startup_stm32l5xx_ns.o
                0x0000000008041776                TIM8_UP_IRQHandler
 .text.TIM8_TRG_COM_IRQHandler
                0x0000000008041778        0x2 CMakeFiles/tfm_ns.dir/__/__/__/__/__/platform/ext/target/stm/common/stm32l5xx/Device/Source/startup_stm32l5xx_ns.o
                0x0000000008041778                TIM8_TRG_COM_IRQHandler
 .text.TIM8_CC_IRQHandler
                0x000000000804177a        0x2 CMakeFiles/tfm_ns.dir/__/__/__/__/__/platform/ext/target/stm/common/stm32l5xx/Device/Source/startup_stm32l5xx_ns.o
                0x000000000804177a                TIM8_CC_IRQHandler
 .text.I2C1_EV_IRQHandler
                0x000000000804177c        0x2 CMakeFiles/tfm_ns.dir/__/__/__/__/__/platform/ext/target/stm/common/stm32l5xx/Device/Source/startup_stm32l5xx_ns.o
                0x000000000804177c                I2C1_EV_IRQHandler
 .text.I2C1_ER_IRQHandler
                0x000000000804177e        0x2 CMakeFiles/tfm_ns.dir/__/__/__/__/__/platform/ext/target/stm/common/stm32l5xx/Device/Source/startup_stm32l5xx_ns.o
                0x000000000804177e                I2C1_ER_IRQHandler
 .text.I2C2_EV_IRQHandler
                0x0000000008041780        0x2 CMakeFiles/tfm_ns.dir/__/__/__/__/__/platform/ext/target/stm/common/stm32l5xx/Device/Source/startup_stm32l5xx_ns.o
                0x0000000008041780                I2C2_EV_IRQHandler
 .text.I2C2_ER_IRQHandler
                0x0000000008041782        0x2 CMakeFiles/tfm_ns.dir/__/__/__/__/__/platform/ext/target/stm/common/stm32l5xx/Device/Source/startup_stm32l5xx_ns.o
                0x0000000008041782                I2C2_ER_IRQHandler
 .text.SPI1_IRQHandler
                0x0000000008041784        0x2 CMakeFiles/tfm_ns.dir/__/__/__/__/__/platform/ext/target/stm/common/stm32l5xx/Device/Source/startup_stm32l5xx_ns.o
                0x0000000008041784                SPI1_IRQHandler
 .text.SPI2_IRQHandler
                0x0000000008041786        0x2 CMakeFiles/tfm_ns.dir/__/__/__/__/__/platform/ext/target/stm/common/stm32l5xx/Device/Source/startup_stm32l5xx_ns.o
                0x0000000008041786                SPI2_IRQHandler
 .text.USART1_IRQHandler
                0x0000000008041788        0x2 CMakeFiles/tfm_ns.dir/__/__/__/__/__/platform/ext/target/stm/common/stm32l5xx/Device/Source/startup_stm32l5xx_ns.o
                0x0000000008041788                USART1_IRQHandler
 .text.USART2_IRQHandler
                0x000000000804178a        0x2 CMakeFiles/tfm_ns.dir/__/__/__/__/__/platform/ext/target/stm/common/stm32l5xx/Device/Source/startup_stm32l5xx_ns.o
                0x000000000804178a                USART2_IRQHandler
 .text.USART3_IRQHandler
                0x000000000804178c        0x2 CMakeFiles/tfm_ns.dir/__/__/__/__/__/platform/ext/target/stm/common/stm32l5xx/Device/Source/startup_stm32l5xx_ns.o
                0x000000000804178c                USART3_IRQHandler
 .text.UART4_IRQHandler
                0x000000000804178e        0x2 CMakeFiles/tfm_ns.dir/__/__/__/__/__/platform/ext/target/stm/common/stm32l5xx/Device/Source/startup_stm32l5xx_ns.o
                0x000000000804178e                UART4_IRQHandler
 .text.UART5_IRQHandler
                0x0000000008041790        0x2 CMakeFiles/tfm_ns.dir/__/__/__/__/__/platform/ext/target/stm/common/stm32l5xx/Device/Source/startup_stm32l5xx_ns.o
                0x0000000008041790                UART5_IRQHandler
 .text.LPUART1_IRQHandler
                0x0000000008041792        0x2 CMakeFiles/tfm_ns.dir/__/__/__/__/__/platform/ext/target/stm/common/stm32l5xx/Device/Source/startup_stm32l5xx_ns.o
                0x0000000008041792                LPUART1_IRQHandler
 .text.LPTIM1_IRQHandler
                0x0000000008041794        0x2 CMakeFiles/tfm_ns.dir/__/__/__/__/__/platform/ext/target/stm/common/stm32l5xx/Device/Source/startup_stm32l5xx_ns.o
                0x0000000008041794                LPTIM1_IRQHandler
 .text.LPTIM2_IRQHandler
                0x0000000008041796        0x2 CMakeFiles/tfm_ns.dir/__/__/__/__/__/platform/ext/target/stm/common/stm32l5xx/Device/Source/startup_stm32l5xx_ns.o
                0x0000000008041796                LPTIM2_IRQHandler
 .text.TIM15_IRQHandler
                0x0000000008041798        0x2 CMakeFiles/tfm_ns.dir/__/__/__/__/__/platform/ext/target/stm/common/stm32l5xx/Device/Source/startup_stm32l5xx_ns.o
                0x0000000008041798                TIM15_IRQHandler
 .text.TIM16_IRQHandler
                0x000000000804179a        0x2 CMakeFiles/tfm_ns.dir/__/__/__/__/__/platform/ext/target/stm/common/stm32l5xx/Device/Source/startup_stm32l5xx_ns.o
                0x000000000804179a                TIM16_IRQHandler
 .text.TIM17_IRQHandler
                0x000000000804179c        0x2 CMakeFiles/tfm_ns.dir/__/__/__/__/__/platform/ext/target/stm/common/stm32l5xx/Device/Source/startup_stm32l5xx_ns.o
                0x000000000804179c                TIM17_IRQHandler
 .text.COMP_IRQHandler
                0x000000000804179e        0x2 CMakeFiles/tfm_ns.dir/__/__/__/__/__/platform/ext/target/stm/common/stm32l5xx/Device/Source/startup_stm32l5xx_ns.o
                0x000000000804179e                COMP_IRQHandler
 .text.USB_FS_IRQHandler
                0x00000000080417a0        0x2 CMakeFiles/tfm_ns.dir/__/__/__/__/__/platform/ext/target/stm/common/stm32l5xx/Device/Source/startup_stm32l5xx_ns.o
                0x00000000080417a0                USB_FS_IRQHandler
 .text.CRS_IRQHandler
                0x00000000080417a2        0x2 CMakeFiles/tfm_ns.dir/__/__/__/__/__/platform/ext/target/stm/common/stm32l5xx/Device/Source/startup_stm32l5xx_ns.o
                0x00000000080417a2                CRS_IRQHandler
 .text.FMC_IRQHandler
                0x00000000080417a4        0x2 CMakeFiles/tfm_ns.dir/__/__/__/__/__/platform/ext/target/stm/common/stm32l5xx/Device/Source/startup_stm32l5xx_ns.o
                0x00000000080417a4                FMC_IRQHandler
 .text.OCTOSPI1_IRQHandler
                0x00000000080417a6        0x2 CMakeFiles/tfm_ns.dir/__/__/__/__/__/platform/ext/target/stm/common/stm32l5xx/Device/Source/startup_stm32l5xx_ns.o
                0x00000000080417a6                OCTOSPI1_IRQHandler
 .text.SDMMC1_IRQHandler
                0x00000000080417a8        0x2 CMakeFiles/tfm_ns.dir/__/__/__/__/__/platform/ext/target/stm/common/stm32l5xx/Device/Source/startup_stm32l5xx_ns.o
                0x00000000080417a8                SDMMC1_IRQHandler
 .text.DMA2_Channel1_IRQHandler
                0x00000000080417aa        0x2 CMakeFiles/tfm_ns.dir/__/__/__/__/__/platform/ext/target/stm/common/stm32l5xx/Device/Source/startup_stm32l5xx_ns.o
                0x00000000080417aa                DMA2_Channel1_IRQHandler
 .text.DMA2_Channel2_IRQHandler
                0x00000000080417ac        0x2 CMakeFiles/tfm_ns.dir/__/__/__/__/__/platform/ext/target/stm/common/stm32l5xx/Device/Source/startup_stm32l5xx_ns.o
                0x00000000080417ac                DMA2_Channel2_IRQHandler
 .text.DMA2_Channel3_IRQHandler
                0x00000000080417ae        0x2 CMakeFiles/tfm_ns.dir/__/__/__/__/__/platform/ext/target/stm/common/stm32l5xx/Device/Source/startup_stm32l5xx_ns.o
                0x00000000080417ae                DMA2_Channel3_IRQHandler
 .text.DMA2_Channel4_IRQHandler
                0x00000000080417b0        0x2 CMakeFiles/tfm_ns.dir/__/__/__/__/__/platform/ext/target/stm/common/stm32l5xx/Device/Source/startup_stm32l5xx_ns.o
                0x00000000080417b0                DMA2_Channel4_IRQHandler
 .text.DMA2_Channel5_IRQHandler
                0x00000000080417b2        0x2 CMakeFiles/tfm_ns.dir/__/__/__/__/__/platform/ext/target/stm/common/stm32l5xx/Device/Source/startup_stm32l5xx_ns.o
                0x00000000080417b2                DMA2_Channel5_IRQHandler
 .text.DMA2_Channel6_IRQHandler
                0x00000000080417b4        0x2 CMakeFiles/tfm_ns.dir/__/__/__/__/__/platform/ext/target/stm/common/stm32l5xx/Device/Source/startup_stm32l5xx_ns.o
                0x00000000080417b4                DMA2_Channel6_IRQHandler
 .text.DMA2_Channel7_IRQHandler
                0x00000000080417b6        0x2 CMakeFiles/tfm_ns.dir/__/__/__/__/__/platform/ext/target/stm/common/stm32l5xx/Device/Source/startup_stm32l5xx_ns.o
                0x00000000080417b6                DMA2_Channel7_IRQHandler
 .text.DMA2_Channel8_IRQHandler
                0x00000000080417b8        0x2 CMakeFiles/tfm_ns.dir/__/__/__/__/__/platform/ext/target/stm/common/stm32l5xx/Device/Source/startup_stm32l5xx_ns.o
                0x00000000080417b8                DMA2_Channel8_IRQHandler
 .text.I2C3_EV_IRQHandler
                0x00000000080417ba        0x2 CMakeFiles/tfm_ns.dir/__/__/__/__/__/platform/ext/target/stm/common/stm32l5xx/Device/Source/startup_stm32l5xx_ns.o
                0x00000000080417ba                I2C3_EV_IRQHandler
 .text.I2C3_ER_IRQHandler
                0x00000000080417bc        0x2 CMakeFiles/tfm_ns.dir/__/__/__/__/__/platform/ext/target/stm/common/stm32l5xx/Device/Source/startup_stm32l5xx_ns.o
                0x00000000080417bc                I2C3_ER_IRQHandler
 .text.SAI1_IRQHandler
                0x00000000080417be        0x2 CMakeFiles/tfm_ns.dir/__/__/__/__/__/platform/ext/target/stm/common/stm32l5xx/Device/Source/startup_stm32l5xx_ns.o
                0x00000000080417be                SAI1_IRQHandler
 .text.SAI2_IRQHandler
                0x00000000080417c0        0x2 CMakeFiles/tfm_ns.dir/__/__/__/__/__/platform/ext/target/stm/common/stm32l5xx/Device/Source/startup_stm32l5xx_ns.o
                0x00000000080417c0                SAI2_IRQHandler
 .text.TSC_IRQHandler
                0x00000000080417c2        0x2 CMakeFiles/tfm_ns.dir/__/__/__/__/__/platform/ext/target/stm/common/stm32l5xx/Device/Source/startup_stm32l5xx_ns.o
                0x00000000080417c2                TSC_IRQHandler
 .text.RNG_IRQHandler
                0x00000000080417c4        0x2 CMakeFiles/tfm_ns.dir/__/__/__/__/__/platform/ext/target/stm/common/stm32l5xx/Device/Source/startup_stm32l5xx_ns.o
                0x00000000080417c4                RNG_IRQHandler
 .text.FPU_IRQHandler
                0x00000000080417c6        0x2 CMakeFiles/tfm_ns.dir/__/__/__/__/__/platform/ext/target/stm/common/stm32l5xx/Device/Source/startup_stm32l5xx_ns.o
                0x00000000080417c6                FPU_IRQHandler
 .text.HASH_IRQHandler
                0x00000000080417c8        0x2 CMakeFiles/tfm_ns.dir/__/__/__/__/__/platform/ext/target/stm/common/stm32l5xx/Device/Source/startup_stm32l5xx_ns.o
                0x00000000080417c8                HASH_IRQHandler
 .text.LPTIM3_IRQHandler
                0x00000000080417ca        0x2 CMakeFiles/tfm_ns.dir/__/__/__/__/__/platform/ext/target/stm/common/stm32l5xx/Device/Source/startup_stm32l5xx_ns.o
                0x00000000080417ca                LPTIM3_IRQHandler
 .text.SPI3_IRQHandler
                0x00000000080417cc        0x2 CMakeFiles/tfm_ns.dir/__/__/__/__/__/platform/ext/target/stm/common/stm32l5xx/Device/Source/startup_stm32l5xx_ns.o
                0x00000000080417cc                SPI3_IRQHandler
 .text.I2C4_ER_IRQHandler
                0x00000000080417ce        0x2 CMakeFiles/tfm_ns.dir/__/__/__/__/__/platform/ext/target/stm/common/stm32l5xx/Device/Source/startup_stm32l5xx_ns.o
                0x00000000080417ce                I2C4_ER_IRQHandler
 .text.I2C4_EV_IRQHandler
                0x00000000080417d0        0x2 CMakeFiles/tfm_ns.dir/__/__/__/__/__/platform/ext/target/stm/common/stm32l5xx/Device/Source/startup_stm32l5xx_ns.o
                0x00000000080417d0                I2C4_EV_IRQHandler
 .text.DFSDM1_FLT0_IRQHandler
                0x00000000080417d2        0x2 CMakeFiles/tfm_ns.dir/__/__/__/__/__/platform/ext/target/stm/common/stm32l5xx/Device/Source/startup_stm32l5xx_ns.o
                0x00000000080417d2                DFSDM1_FLT0_IRQHandler
 .text.DFSDM1_FLT1_IRQHandler
                0x00000000080417d4        0x2 CMakeFiles/tfm_ns.dir/__/__/__/__/__/platform/ext/target/stm/common/stm32l5xx/Device/Source/startup_stm32l5xx_ns.o
                0x00000000080417d4                DFSDM1_FLT1_IRQHandler
 .text.DFSDM1_FLT2_IRQHandler
                0x00000000080417d6        0x2 CMakeFiles/tfm_ns.dir/__/__/__/__/__/platform/ext/target/stm/common/stm32l5xx/Device/Source/startup_stm32l5xx_ns.o
                0x00000000080417d6                DFSDM1_FLT2_IRQHandler
 .text.DFSDM1_FLT3_IRQHandler
                0x00000000080417d8        0x2 CMakeFiles/tfm_ns.dir/__/__/__/__/__/platform/ext/target/stm/common/stm32l5xx/Device/Source/startup_stm32l5xx_ns.o
                0x00000000080417d8                DFSDM1_FLT3_IRQHandler
 .text.UCPD1_IRQHandler
                0x00000000080417da        0x2 CMakeFiles/tfm_ns.dir/__/__/__/__/__/platform/ext/target/stm/common/stm32l5xx/Device/Source/startup_stm32l5xx_ns.o
                0x00000000080417da                UCPD1_IRQHandler
 .text.ICACHE_IRQHandler
                0x00000000080417dc        0x2 CMakeFiles/tfm_ns.dir/__/__/__/__/__/platform/ext/target/stm/common/stm32l5xx/Device/Source/startup_stm32l5xx_ns.o
                0x00000000080417dc                ICACHE_IRQHandler
 .text.OTFDEC1_IRQHandler
                0x00000000080417de        0x2 CMakeFiles/tfm_ns.dir/__/__/__/__/__/platform/ext/target/stm/common/stm32l5xx/Device/Source/startup_stm32l5xx_ns.o
                0x00000000080417de                OTFDEC1_IRQHandler
 .text.Reset_Handler
                0x00000000080417e0       0x78 CMakeFiles/tfm_ns.dir/__/__/__/__/__/platform/ext/target/stm/common/stm32l5xx/Device/Source/startup_stm32l5xx_ns.o
                0x00000000080417e0                Reset_Handler
 .text.TZ_InitContextSystem_S
                0x0000000008041858        0x4 CMakeFiles/tfm_ns.dir/__/ns_interface/ns_client_ext/tz_shim_layer.o
                0x0000000008041858                TZ_InitContextSystem_S
 .text.TZ_AllocModuleContext_S
                0x000000000804185c        0x4 CMakeFiles/tfm_ns.dir/__/ns_interface/ns_client_ext/tz_shim_layer.o
                0x000000000804185c                TZ_AllocModuleContext_S
 .text.TZ_FreeModuleContext_S
                0x0000000008041860        0x4 CMakeFiles/tfm_ns.dir/__/ns_interface/ns_client_ext/tz_shim_layer.o
                0x0000000008041860                TZ_FreeModuleContext_S
 .text.TZ_LoadContext_S
                0x0000000008041864        0x4 CMakeFiles/tfm_ns.dir/__/ns_interface/ns_client_ext/tz_shim_layer.o
                0x0000000008041864                TZ_LoadContext_S
 .text.TZ_StoreContext_S
                0x0000000008041868        0x4 CMakeFiles/tfm_ns.dir/__/ns_interface/ns_client_ext/tz_shim_layer.o
                0x0000000008041868                TZ_StoreContext_S
 .text.osRtxIdleThread
                0x000000000804186c        0x2 CMakeFiles/tfm_ns.dir/__/CMSIS/RTOS2/RTX/Config/RTX_Config.o
                0x000000000804186c                osRtxIdleThread
 .text.osRtxErrorNotify
                0x000000000804186e        0x2 CMakeFiles/tfm_ns.dir/__/CMSIS/RTOS2/RTX/Config/RTX_Config.o
                0x000000000804186e                osRtxErrorNotify
 .text.software_init_hook
                0x0000000008041870        0x4 CMakeFiles/tfm_ns.dir/__/CMSIS/RTOS2/RTX/Source/rtx_lib.o
                0x0000000008041870                software_init_hook
 .text.os_wrapper_mutex_create
                0x0000000008041874       0x1a CMakeFiles/tfm_ns.dir/os_wrapper_cmsis_rtos_v2.o
                0x0000000008041874                os_wrapper_mutex_create
 .text._tfm_flush_formatted_buffer
                0x000000000804188e       0x1c CMakeFiles/tfm_ns.dir/__/log/tfm_log_raw.o
 .text._tfm_dec_num_output
                0x00000000080418aa       0x5e CMakeFiles/tfm_ns.dir/__/log/tfm_log_raw.o
 .text._tfm_hex_num_output
                0x0000000008041908       0x3a CMakeFiles/tfm_ns.dir/__/log/tfm_log_raw.o
 .text._tfm_string_output
                0x0000000008041942       0x1a CMakeFiles/tfm_ns.dir/__/log/tfm_log_raw.o
 .text.tfm_log_printf
                0x000000000804195c      0x110 CMakeFiles/tfm_ns.dir/__/log/tfm_log_raw.o
                0x000000000804195c                tfm_log_printf
 .text.stdio_output_string
                0x0000000008041a6c       0x28 ../../platform/ns/libplatform_ns.a(uart_stdout.o)
                0x0000000008041a6c                stdio_output_string
 .text._write   0x0000000008041a94        0x8 ../../platform/ns/libplatform_ns.a(uart_stdout.o)
                0x0000000008041a94                _write
 .text.stdio_init
                0x0000000008041a9c       0x58 ../../platform/ns/libplatform_ns.a(uart_stdout.o)
                0x0000000008041a9c                stdio_init
 .text.SystemInit
                0x0000000008041af4        0x2 ../../platform/ns/libplatform_ns.a(system_stm32l5xx.o)
                0x0000000008041af4                SystemInit
 *fill*         0x0000000008041af6        0x2 
 .text.USART_GetVersion
                0x0000000008041af8       0x20 ../../platform/ns/libplatform_ns.a(low_level_com.o)
 .text.USART_GetCapabilities
                0x0000000008041b18        0x4 ../../platform/ns/libplatform_ns.a(low_level_com.o)
 .text.USART0_Uninitialize
                0x0000000008041b1c        0x4 ../../platform/ns/libplatform_ns.a(low_level_com.o)
 .text.USART0_PowerControl
                0x0000000008041b20        0x4 ../../platform/ns/libplatform_ns.a(low_level_com.o)
 .text.USART0_Transfer
                0x0000000008041b24        0x6 ../../platform/ns/libplatform_ns.a(low_level_com.o)
 .text.USART0_GetTxCount
                0x0000000008041b2a        0x4 ../../platform/ns/libplatform_ns.a(low_level_com.o)
 .text.USART0_Control
                0x0000000008041b2e        0x4 ../../platform/ns/libplatform_ns.a(low_level_com.o)
 .text.USART0_GetStatus
                0x0000000008041b32        0xc ../../platform/ns/libplatform_ns.a(low_level_com.o)
 .text.USART0_SetModemControl
                0x0000000008041b3e        0x6 ../../platform/ns/libplatform_ns.a(low_level_com.o)
 .text.USART0_GetModemStatus
                0x0000000008041b44        0xc ../../platform/ns/libplatform_ns.a(low_level_com.o)
 .text.USART0_Receive
                0x0000000008041b50       0x20 ../../platform/ns/libplatform_ns.a(low_level_com.o)
 .text.USART0_Send
                0x0000000008041b70       0x24 ../../platform/ns/libplatform_ns.a(low_level_com.o)
 .text.USART0_Initialize
                0x0000000008041b94       0xc4 ../../platform/ns/libplatform_ns.a(low_level_com.o)
 .text.USART0_GetRxCount
                0x0000000008041c58        0x4 ../../platform/ns/libplatform_ns.a(low_level_com.o)
 .text.HAL_PWREx_EnableVddIO2
                0x0000000008041c5c       0x10 ../../platform/ns/libplatform_ns.a(stm32l5xx_hal_pwr_ex.o)
                0x0000000008041c5c                HAL_PWREx_EnableVddIO2
 .text.HAL_GPIO_Init
                0x0000000008041c6c      0x190 ../../platform/ns/libplatform_ns.a(stm32l5xx_hal_gpio.o)
                0x0000000008041c6c                HAL_GPIO_Init
 .text.HAL_UART_MspInit
                0x0000000008041dfc        0x2 ../../platform/ns/libplatform_ns.a(stm32l5xx_hal_uart.o)
                0x0000000008041dfc                HAL_UART_MspInit
 .text.HAL_UART_RxCpltCallback
                0x0000000008041dfe        0x2 ../../platform/ns/libplatform_ns.a(stm32l5xx_hal_uart.o)
                0x0000000008041dfe                HAL_UART_RxCpltCallback
 .text.HAL_UART_ErrorCallback
                0x0000000008041e00        0x2 ../../platform/ns/libplatform_ns.a(stm32l5xx_hal_uart.o)
                0x0000000008041e00                HAL_UART_ErrorCallback
 .text.HAL_UARTEx_RxEventCallback
                0x0000000008041e02        0x2 ../../platform/ns/libplatform_ns.a(stm32l5xx_hal_uart.o)
                0x0000000008041e02                HAL_UARTEx_RxEventCallback
 .text.UART_RxISR_8BIT
                0x0000000008041e04       0x7a ../../platform/ns/libplatform_ns.a(stm32l5xx_hal_uart.o)
 .text.UART_RxISR_16BIT
                0x0000000008041e7e       0x76 ../../platform/ns/libplatform_ns.a(stm32l5xx_hal_uart.o)
 .text.UART_RxISR_8BIT_FIFOEN
                0x0000000008041ef4      0x138 ../../platform/ns/libplatform_ns.a(stm32l5xx_hal_uart.o)
 .text.UART_RxISR_16BIT_FIFOEN
                0x000000000804202c      0x134 ../../platform/ns/libplatform_ns.a(stm32l5xx_hal_uart.o)
 .text.UART_SetConfig
                0x0000000008042160      0x2d0 ../../platform/ns/libplatform_ns.a(stm32l5xx_hal_uart.o)
                0x0000000008042160                UART_SetConfig
 .text.UART_AdvFeatureConfig
                0x0000000008042430       0xaa ../../platform/ns/libplatform_ns.a(stm32l5xx_hal_uart.o)
                0x0000000008042430                UART_AdvFeatureConfig
 .text.UART_WaitOnFlagUntilTimeout
                0x00000000080424da       0x94 ../../platform/ns/libplatform_ns.a(stm32l5xx_hal_uart.o)
                0x00000000080424da                UART_WaitOnFlagUntilTimeout
 .text.HAL_UART_Transmit
                0x000000000804256e       0xb8 ../../platform/ns/libplatform_ns.a(stm32l5xx_hal_uart.o)
                0x000000000804256e                HAL_UART_Transmit
 .text.UART_CheckIdleState
                0x0000000008042626       0x68 ../../platform/ns/libplatform_ns.a(stm32l5xx_hal_uart.o)
                0x0000000008042626                UART_CheckIdleState
 .text.HAL_UART_Init
                0x000000000804268e       0x60 ../../platform/ns/libplatform_ns.a(stm32l5xx_hal_uart.o)
                0x000000000804268e                HAL_UART_Init
 *fill*         0x00000000080426ee        0x2 
 .text.UART_Start_Receive_IT
                0x00000000080426f0       0xd4 ../../platform/ns/libplatform_ns.a(stm32l5xx_hal_uart.o)
                0x00000000080426f0                UART_Start_Receive_IT
 .text.HAL_UART_Receive_IT
                0x00000000080427c4       0x4c ../../platform/ns/libplatform_ns.a(stm32l5xx_hal_uart.o)
                0x00000000080427c4                HAL_UART_Receive_IT
 .text.HAL_GetTick
                0x0000000008042810        0xc ../../platform/ns/libplatform_ns.a(stm32l5xx_hal.o)
                0x0000000008042810                HAL_GetTick
 .text.HAL_RCC_GetSysClockFreq
                0x000000000804281c       0xa0 ../../platform/ns/libplatform_ns.a(stm32l5xx_hal_rcc.o)
                0x000000000804281c                HAL_RCC_GetSysClockFreq
 .text.HAL_RCC_GetHCLKFreq
                0x00000000080428bc       0x20 ../../platform/ns/libplatform_ns.a(stm32l5xx_hal_rcc.o)
                0x00000000080428bc                HAL_RCC_GetHCLKFreq
 .text.HAL_RCC_GetPCLK1Freq
                0x00000000080428dc       0x20 ../../platform/ns/libplatform_ns.a(stm32l5xx_hal_rcc.o)
                0x00000000080428dc                HAL_RCC_GetPCLK1Freq
 .text.HAL_RCC_GetPCLK2Freq
                0x00000000080428fc       0x20 ../../platform/ns/libplatform_ns.a(stm32l5xx_hal_rcc.o)
                0x00000000080428fc                HAL_RCC_GetPCLK2Freq
 .text.test_app
                0x000000000804291c       0x10 libtfm_test_app.a(test_app.o)
                0x000000000804291c                test_app
 .text          0x000000000804292c      0x124 ../../lib/ext/tfm_test_repo-src/CMSIS/RTOS2/RTX/Library/GCC/libRTX_V8MMN.a(irq_armv8mml.o)
                0x000000000804292c                SVC_Handler
                0x00000000080429c8                PendSV_Handler
                0x00000000080429d6                SysTick_Handler
                0x00000000080429e4                Sys_Context
 .text.osRtxTick_Handler
                0x0000000008042a50       0x74 ../../lib/ext/tfm_test_repo-src/CMSIS/RTOS2/RTX/Library/GCC/libRTX_V8MMN.a(rtx_system.o)
                0x0000000008042a50                osRtxTick_Handler
 .text.osRtxPendSV_Handler
                0x0000000008042ac4       0xa8 ../../lib/ext/tfm_test_repo-src/CMSIS/RTOS2/RTX/Library/GCC/libRTX_V8MMN.a(rtx_system.o)
                0x0000000008042ac4                osRtxPendSV_Handler
 .text.osRtxPostProcess
                0x0000000008042b6c       0x74 ../../lib/ext/tfm_test_repo-src/CMSIS/RTOS2/RTX/Library/GCC/libRTX_V8MMN.a(rtx_system.o)
                0x0000000008042b6c                osRtxPostProcess
 .text.svcRtxMessageQueueNew
                0x0000000008042be0      0x16c ../../lib/ext/tfm_test_repo-src/CMSIS/RTOS2/RTX/Library/GCC/libRTX_V8MMN.a(rtx_msgqueue.o)
 .text.svcRtxMessageQueueGet
                0x0000000008042d4c      0x188 ../../lib/ext/tfm_test_repo-src/CMSIS/RTOS2/RTX/Library/GCC/libRTX_V8MMN.a(rtx_msgqueue.o)
 .text.svcRtxMessageQueuePut
                0x0000000008042ed4      0x108 ../../lib/ext/tfm_test_repo-src/CMSIS/RTOS2/RTX/Library/GCC/libRTX_V8MMN.a(rtx_msgqueue.o)
 .text.osRtxMessageQueuePostProcess
                0x0000000008042fdc      0x154 ../../lib/ext/tfm_test_repo-src/CMSIS/RTOS2/RTX/Library/GCC/libRTX_V8MMN.a(rtx_msgqueue.o)
 .text.osMessageQueueNew
                0x0000000008043130       0x24 ../../lib/ext/tfm_test_repo-src/CMSIS/RTOS2/RTX/Library/GCC/libRTX_V8MMN.a(rtx_msgqueue.o)
                0x0000000008043130                osMessageQueueNew
 .text.osMessageQueuePut
                0x0000000008043154       0x7c ../../lib/ext/tfm_test_repo-src/CMSIS/RTOS2/RTX/Library/GCC/libRTX_V8MMN.a(rtx_msgqueue.o)
                0x0000000008043154                osMessageQueuePut
 .text.osMessageQueueGet
                0x00000000080431d0       0xbc ../../lib/ext/tfm_test_repo-src/CMSIS/RTOS2/RTX/Library/GCC/libRTX_V8MMN.a(rtx_msgqueue.o)
                0x00000000080431d0                osMessageQueueGet
 .text.osRtxMemoryPoolInit
                0x000000000804328c       0x48 ../../lib/ext/tfm_test_repo-src/CMSIS/RTOS2/RTX/Library/GCC/libRTX_V8MMN.a(rtx_mempool.o)
                0x000000000804328c                osRtxMemoryPoolInit
 .text.osRtxMemoryPoolAlloc
                0x00000000080432d4       0x38 ../../lib/ext/tfm_test_repo-src/CMSIS/RTOS2/RTX/Library/GCC/libRTX_V8MMN.a(rtx_mempool.o)
                0x00000000080432d4                osRtxMemoryPoolAlloc
 .text.osRtxMemoryPoolFree
                0x000000000804330c       0x4c ../../lib/ext/tfm_test_repo-src/CMSIS/RTOS2/RTX/Library/GCC/libRTX_V8MMN.a(rtx_mempool.o)
                0x000000000804330c                osRtxMemoryPoolFree
 .text.osRtxMemoryInit
                0x0000000008043358       0x3c ../../lib/ext/tfm_test_repo-src/CMSIS/RTOS2/RTX/Library/GCC/libRTX_V8MMN.a(rtx_memory.o)
                0x0000000008043358                osRtxMemoryInit
 .text.osRtxMemoryAlloc
                0x0000000008043394       0x7c ../../lib/ext/tfm_test_repo-src/CMSIS/RTOS2/RTX/Library/GCC/libRTX_V8MMN.a(rtx_memory.o)
                0x0000000008043394                osRtxMemoryAlloc
 .text.osRtxMemoryFree
                0x0000000008043410       0x78 ../../lib/ext/tfm_test_repo-src/CMSIS/RTOS2/RTX/Library/GCC/libRTX_V8MMN.a(rtx_memory.o)
                0x0000000008043410                osRtxMemoryFree
 .text.svcRtxMutexNew
                0x0000000008043488       0x6c ../../lib/ext/tfm_test_repo-src/CMSIS/RTOS2/RTX/Library/GCC/libRTX_V8MMN.a(rtx_mutex.o)
 .text.osRtxMutexOwnerRelease
                0x00000000080434f4       0x44 ../../lib/ext/tfm_test_repo-src/CMSIS/RTOS2/RTX/Library/GCC/libRTX_V8MMN.a(rtx_mutex.o)
                0x00000000080434f4                osRtxMutexOwnerRelease
 .text.osMutexNew
                0x0000000008043538       0x24 ../../lib/ext/tfm_test_repo-src/CMSIS/RTOS2/RTX/Library/GCC/libRTX_V8MMN.a(rtx_mutex.o)
                0x0000000008043538                osMutexNew
 .text.osThreadExit
                0x000000000804355c        0xc ../../lib/ext/tfm_test_repo-src/CMSIS/RTOS2/RTX/Library/GCC/libRTX_V8MMN.a(rtx_thread.o)
                0x000000000804355c                osThreadExit
 .text.osRtxThreadFree
                0x0000000008043568       0x60 ../../lib/ext/tfm_test_repo-src/CMSIS/RTOS2/RTX/Library/GCC/libRTX_V8MMN.a(rtx_thread.o)
 .text.osRtxThreadPostProcess
                0x00000000080435c8      0x100 ../../lib/ext/tfm_test_repo-src/CMSIS/RTOS2/RTX/Library/GCC/libRTX_V8MMN.a(rtx_thread.o)
 .text.osRtxThreadListPut
                0x00000000080436c8       0x44 ../../lib/ext/tfm_test_repo-src/CMSIS/RTOS2/RTX/Library/GCC/libRTX_V8MMN.a(rtx_thread.o)
                0x00000000080436c8                osRtxThreadListPut
 .text.osRtxThreadListGet
                0x000000000804370c       0x14 ../../lib/ext/tfm_test_repo-src/CMSIS/RTOS2/RTX/Library/GCC/libRTX_V8MMN.a(rtx_thread.o)
                0x000000000804370c                osRtxThreadListGet
 .text.osRtxThreadListRemove
                0x0000000008043720       0x14 ../../lib/ext/tfm_test_repo-src/CMSIS/RTOS2/RTX/Library/GCC/libRTX_V8MMN.a(rtx_thread.o)
                0x0000000008043720                osRtxThreadListRemove
 .text.osRtxThreadReadyPut
                0x0000000008043734       0x54 ../../lib/ext/tfm_test_repo-src/CMSIS/RTOS2/RTX/Library/GCC/libRTX_V8MMN.a(rtx_thread.o)
                0x0000000008043734                osRtxThreadReadyPut
 .text.osRtxThreadDelayTick
                0x0000000008043788       0x78 ../../lib/ext/tfm_test_repo-src/CMSIS/RTOS2/RTX/Library/GCC/libRTX_V8MMN.a(rtx_thread.o)
                0x0000000008043788                osRtxThreadDelayTick
 .text.osRtxThreadRegPtr
                0x0000000008043800        0x8 ../../lib/ext/tfm_test_repo-src/CMSIS/RTOS2/RTX/Library/GCC/libRTX_V8MMN.a(rtx_thread.o)
                0x0000000008043800                osRtxThreadRegPtr
 .text.osRtxThreadStackCheck
                0x0000000008043808       0x28 ../../lib/ext/tfm_test_repo-src/CMSIS/RTOS2/RTX/Library/GCC/libRTX_V8MMN.a(rtx_thread.o)
                0x0000000008043808                osRtxThreadStackCheck
 .text.osRtxThreadSwitch
                0x0000000008043830       0x14 ../../lib/ext/tfm_test_repo-src/CMSIS/RTOS2/RTX/Library/GCC/libRTX_V8MMN.a(rtx_thread.o)
                0x0000000008043830                osRtxThreadSwitch
 .text.osRtxThreadDispatch
                0x0000000008043844      0x120 ../../lib/ext/tfm_test_repo-src/CMSIS/RTOS2/RTX/Library/GCC/libRTX_V8MMN.a(rtx_thread.o)
                0x0000000008043844                osRtxThreadDispatch
 .text.osRtxThreadWaitExit
                0x0000000008043964       0x98 ../../lib/ext/tfm_test_repo-src/CMSIS/RTOS2/RTX/Library/GCC/libRTX_V8MMN.a(rtx_thread.o)
                0x0000000008043964                osRtxThreadWaitExit
 .text.svcRtxThreadNew
                0x00000000080439fc      0x2b0 ../../lib/ext/tfm_test_repo-src/CMSIS/RTOS2/RTX/Library/GCC/libRTX_V8MMN.a(rtx_thread.o)
 .text.svcRtxThreadExit
                0x0000000008043cac       0xf0 ../../lib/ext/tfm_test_repo-src/CMSIS/RTOS2/RTX/Library/GCC/libRTX_V8MMN.a(rtx_thread.o)
 .text.osRtxThreadWaitEnter
                0x0000000008043d9c       0xb4 ../../lib/ext/tfm_test_repo-src/CMSIS/RTOS2/RTX/Library/GCC/libRTX_V8MMN.a(rtx_thread.o)
                0x0000000008043d9c                osRtxThreadWaitEnter
 .text.osRtxThreadStartup
                0x0000000008043e50       0x40 ../../lib/ext/tfm_test_repo-src/CMSIS/RTOS2/RTX/Library/GCC/libRTX_V8MMN.a(rtx_thread.o)
                0x0000000008043e50                osRtxThreadStartup
 .text.osThreadNew
                0x0000000008043e90       0x24 ../../lib/ext/tfm_test_repo-src/CMSIS/RTOS2/RTX/Library/GCC/libRTX_V8MMN.a(rtx_thread.o)
                0x0000000008043e90                osThreadNew
 .text.svcRtxKernelInitialize
                0x0000000008043eb4      0x16c ../../lib/ext/tfm_test_repo-src/CMSIS/RTOS2/RTX/Library/GCC/libRTX_V8MMN.a(rtx_kernel.o)
 .text.svcRtxKernelStart
                0x0000000008044020       0xa0 ../../lib/ext/tfm_test_repo-src/CMSIS/RTOS2/RTX/Library/GCC/libRTX_V8MMN.a(rtx_kernel.o)
 .text.osRtxKernelPreInit
                0x00000000080440c0        0x4 ../../lib/ext/tfm_test_repo-src/CMSIS/RTOS2/RTX/Library/GCC/libRTX_V8MMN.a(rtx_kernel.o)
                0x00000000080440c0                osRtxKernelPreInit
 .text.osKernelInitialize
                0x00000000080440c4       0x2c ../../lib/ext/tfm_test_repo-src/CMSIS/RTOS2/RTX/Library/GCC/libRTX_V8MMN.a(rtx_kernel.o)
                0x00000000080440c4                osKernelInitialize
 .text.osKernelStart
                0x00000000080440f0       0x24 ../../lib/ext/tfm_test_repo-src/CMSIS/RTOS2/RTX/Library/GCC/libRTX_V8MMN.a(rtx_kernel.o)
                0x00000000080440f0                osKernelStart
 .text.OS_Tick_Setup
                0x0000000008044114       0x48 ../../lib/ext/tfm_test_repo-src/CMSIS/RTOS2/RTX/Library/GCC/libRTX_V8MMN.a(os_systick.o)
                0x0000000008044114                OS_Tick_Setup
 .text.OS_Tick_Enable
                0x000000000804415c       0x2c ../../lib/ext/tfm_test_repo-src/CMSIS/RTOS2/RTX/Library/GCC/libRTX_V8MMN.a(os_systick.o)
                0x000000000804415c                OS_Tick_Enable
 .text.OS_Tick_AcknowledgeIRQ
                0x0000000008044188        0xc ../../lib/ext/tfm_test_repo-src/CMSIS/RTOS2/RTX/Library/GCC/libRTX_V8MMN.a(os_systick.o)
                0x0000000008044188                OS_Tick_AcknowledgeIRQ
 .text.OS_Tick_GetIRQn
                0x0000000008044194        0x8 ../../lib/ext/tfm_test_repo-src/CMSIS/RTOS2/RTX/Library/GCC/libRTX_V8MMN.a(os_systick.o)
                0x0000000008044194                OS_Tick_GetIRQn
 .text.osRtxTimerTick
                0x000000000804419c       0xc8 ../../lib/ext/tfm_test_repo-src/CMSIS/RTOS2/RTX/Library/GCC/libRTX_V8MMN.a(rtx_timer.o)
 .text.osRtxTimerThread
                0x0000000008044264       0x3c ../../lib/ext/tfm_test_repo-src/CMSIS/RTOS2/RTX/Library/GCC/libRTX_V8MMN.a(rtx_timer.o)
                0x0000000008044264                osRtxTimerThread
 .text.tfm_ns_interface_init
                0x00000000080442a0       0x1c libtfm_api_ns.a(tfm_ns_interface.o)
                0x00000000080442a0                tfm_ns_interface_init
 .text          0x00000000080442bc       0x30 /opt/gcc-arm-none-eabi-10.3-2021.10/bin/../lib/gcc/arm-none-eabi/10.3.1/thumb/v8-m.main/nofp/libgcc.a(_aeabi_uldivmod.o)
                0x00000000080442bc                __aeabi_uldivmod
 .text          0x00000000080442ec      0x2e8 /opt/gcc-arm-none-eabi-10.3-2021.10/bin/../lib/gcc/arm-none-eabi/10.3.1/thumb/v8-m.main/nofp/libgcc.a(_udivmoddi4.o)
                0x00000000080442ec                __udivmoddi4
 .text          0x00000000080445d4        0x4 /opt/gcc-arm-none-eabi-10.3-2021.10/bin/../lib/gcc/arm-none-eabi/10.3.1/thumb/v8-m.main/nofp/libgcc.a(_dvmd_tls.o)
                0x00000000080445d4                __aeabi_ldiv0
                0x00000000080445d4                __aeabi_idiv0
 .text.__assert_func
                0x00000000080445d8       0x3c /opt/gcc-arm-none-eabi-10.3-2021.10/bin/../lib/gcc/arm-none-eabi/10.3.1/../../../../arm-none-eabi/lib/thumb/v8-m.main/nofp/libg_nano.a(lib_a-assert.o)
                0x00000000080445d8                __assert_func
 .text.exit     0x0000000008044614       0x28 /opt/gcc-arm-none-eabi-10.3-2021.10/bin/../lib/gcc/arm-none-eabi/10.3.1/../../../../arm-none-eabi/lib/thumb/v8-m.main/nofp/libg_nano.a(lib_a-exit.o)
                0x0000000008044614                exit
 .text.fprintf  0x000000000804463c       0x24 /opt/gcc-arm-none-eabi-10.3-2021.10/bin/../lib/gcc/arm-none-eabi/10.3.1/../../../../arm-none-eabi/lib/thumb/v8-m.main/nofp/libg_nano.a(lib_a-fprintf.o)
                0x000000000804463c                fprintf
                0x000000000804463c                fiprintf
 .text.__libc_init_array
                0x0000000008044660       0x48 /opt/gcc-arm-none-eabi-10.3-2021.10/bin/../lib/gcc/arm-none-eabi/10.3.1/../../../../arm-none-eabi/lib/thumb/v8-m.main/nofp/libg_nano.a(lib_a-init.o)
                0x0000000008044660                __libc_init_array
 .text.memcpy   0x00000000080446a8       0x1a /opt/gcc-arm-none-eabi-10.3-2021.10/bin/../lib/gcc/arm-none-eabi/10.3.1/../../../../arm-none-eabi/lib/thumb/v8-m.main/nofp/libg_nano.a(lib_a-memcpy-stub.o)
                0x00000000080446a8                memcpy
 .text.memset   0x00000000080446c2       0x10 /opt/gcc-arm-none-eabi-10.3-2021.10/bin/../lib/gcc/arm-none-eabi/10.3.1/../../../../arm-none-eabi/lib/thumb/v8-m.main/nofp/libg_nano.a(lib_a-memset.o)
                0x00000000080446c2                memset
 .text.__sfputc_r
                0x00000000080446d2       0x2a /opt/gcc-arm-none-eabi-10.3-2021.10/bin/../lib/gcc/arm-none-eabi/10.3.1/../../../../arm-none-eabi/lib/thumb/v8-m.main/nofp/libg_nano.a(lib_a-nano-vfprintf.o)
 .text.__sfputs_r
                0x00000000080446fc       0x24 /opt/gcc-arm-none-eabi-10.3-2021.10/bin/../lib/gcc/arm-none-eabi/10.3.1/../../../../arm-none-eabi/lib/thumb/v8-m.main/nofp/libg_nano.a(lib_a-nano-vfprintf.o)
                0x00000000080446fc                __sfputs_r
 .text._vfprintf_r
                0x0000000008044720      0x260 /opt/gcc-arm-none-eabi-10.3-2021.10/bin/../lib/gcc/arm-none-eabi/10.3.1/../../../../arm-none-eabi/lib/thumb/v8-m.main/nofp/libg_nano.a(lib_a-nano-vfprintf.o)
                0x0000000008044720                _vfiprintf_r
                0x0000000008044720                _vfprintf_r
 .text._printf_common
                0x0000000008044980       0xe0 /opt/gcc-arm-none-eabi-10.3-2021.10/bin/../lib/gcc/arm-none-eabi/10.3.1/../../../../arm-none-eabi/lib/thumb/v8-m.main/nofp/libg_nano.a(lib_a-nano-vfprintf_i.o)
                0x0000000008044980                _printf_common
 .text._printf_i
                0x0000000008044a60      0x24c /opt/gcc-arm-none-eabi-10.3-2021.10/bin/../lib/gcc/arm-none-eabi/10.3.1/../../../../arm-none-eabi/lib/thumb/v8-m.main/nofp/libg_nano.a(lib_a-nano-vfprintf_i.o)
                0x0000000008044a60                _printf_i
 .text.__swbuf_r
                0x0000000008044cac       0xa4 /opt/gcc-arm-none-eabi-10.3-2021.10/bin/../lib/gcc/arm-none-eabi/10.3.1/../../../../arm-none-eabi/lib/thumb/v8-m.main/nofp/libg_nano.a(lib_a-wbuf.o)
                0x0000000008044cac                __swbuf_r
 .text.__swsetup_r
                0x0000000008044d50       0xdc /opt/gcc-arm-none-eabi-10.3-2021.10/bin/../lib/gcc/arm-none-eabi/10.3.1/../../../../arm-none-eabi/lib/thumb/v8-m.main/nofp/libg_nano.a(lib_a-wsetup.o)
                0x0000000008044d50                __swsetup_r
 .text.abort    0x0000000008044e2c        0xe /opt/gcc-arm-none-eabi-10.3-2021.10/bin/../lib/gcc/arm-none-eabi/10.3.1/../../../../arm-none-eabi/lib/thumb/v8-m.main/nofp/libg_nano.a(lib_a-abort.o)
                0x0000000008044e2c                abort
 *fill*         0x0000000008044e3a        0x2 
 .text.__sflush_r
                0x0000000008044e3c      0x100 /opt/gcc-arm-none-eabi-10.3-2021.10/bin/../lib/gcc/arm-none-eabi/10.3.1/../../../../arm-none-eabi/lib/thumb/v8-m.main/nofp/libg_nano.a(lib_a-fflush.o)
                0x0000000008044e3c                __sflush_r
 .text._fflush_r
                0x0000000008044f3c       0x78 /opt/gcc-arm-none-eabi-10.3-2021.10/bin/../lib/gcc/arm-none-eabi/10.3.1/../../../../arm-none-eabi/lib/thumb/v8-m.main/nofp/libg_nano.a(lib_a-fflush.o)
                0x0000000008044f3c                _fflush_r
 .text.std      0x0000000008044fb4       0x48 /opt/gcc-arm-none-eabi-10.3-2021.10/bin/../lib/gcc/arm-none-eabi/10.3.1/../../../../arm-none-eabi/lib/thumb/v8-m.main/nofp/libg_nano.a(lib_a-findfp.o)
 .text._cleanup_r
                0x0000000008044ffc        0xc /opt/gcc-arm-none-eabi-10.3-2021.10/bin/../lib/gcc/arm-none-eabi/10.3.1/../../../../arm-none-eabi/lib/thumb/v8-m.main/nofp/libg_nano.a(lib_a-findfp.o)
                0x0000000008044ffc                _cleanup_r
 .text.__sfmoreglue
                0x0000000008045008       0x2c /opt/gcc-arm-none-eabi-10.3-2021.10/bin/../lib/gcc/arm-none-eabi/10.3.1/../../../../arm-none-eabi/lib/thumb/v8-m.main/nofp/libg_nano.a(lib_a-findfp.o)
                0x0000000008045008                __sfmoreglue
 .text.__sfp_lock_acquire
                0x0000000008045034        0xc /opt/gcc-arm-none-eabi-10.3-2021.10/bin/../lib/gcc/arm-none-eabi/10.3.1/../../../../arm-none-eabi/lib/thumb/v8-m.main/nofp/libg_nano.a(lib_a-findfp.o)
                0x0000000008045034                __sfp_lock_acquire
 .text.__sfp_lock_release
                0x0000000008045040        0xc /opt/gcc-arm-none-eabi-10.3-2021.10/bin/../lib/gcc/arm-none-eabi/10.3.1/../../../../arm-none-eabi/lib/thumb/v8-m.main/nofp/libg_nano.a(lib_a-findfp.o)
                0x0000000008045040                __sfp_lock_release
 .text.__sinit_lock_acquire
                0x000000000804504c        0xc /opt/gcc-arm-none-eabi-10.3-2021.10/bin/../lib/gcc/arm-none-eabi/10.3.1/../../../../arm-none-eabi/lib/thumb/v8-m.main/nofp/libg_nano.a(lib_a-findfp.o)
                0x000000000804504c                __sinit_lock_acquire
 .text.__sinit_lock_release
                0x0000000008045058        0xc /opt/gcc-arm-none-eabi-10.3-2021.10/bin/../lib/gcc/arm-none-eabi/10.3.1/../../../../arm-none-eabi/lib/thumb/v8-m.main/nofp/libg_nano.a(lib_a-findfp.o)
                0x0000000008045058                __sinit_lock_release
 .text.__sinit  0x0000000008045064       0x70 /opt/gcc-arm-none-eabi-10.3-2021.10/bin/../lib/gcc/arm-none-eabi/10.3.1/../../../../arm-none-eabi/lib/thumb/v8-m.main/nofp/libg_nano.a(lib_a-findfp.o)
                0x0000000008045064                __sinit
 .text.__sfp    0x00000000080450d4       0x8c /opt/gcc-arm-none-eabi-10.3-2021.10/bin/../lib/gcc/arm-none-eabi/10.3.1/../../../../arm-none-eabi/lib/thumb/v8-m.main/nofp/libg_nano.a(lib_a-findfp.o)
                0x00000000080450d4                __sfp
 .text._fwalk_reent
                0x0000000008045160       0x3e /opt/gcc-arm-none-eabi-10.3-2021.10/bin/../lib/gcc/arm-none-eabi/10.3.1/../../../../arm-none-eabi/lib/thumb/v8-m.main/nofp/libg_nano.a(lib_a-fwalk.o)
                0x0000000008045160                _fwalk_reent
 .text.__retarget_lock_init_recursive
                0x000000000804519e        0x2 /opt/gcc-arm-none-eabi-10.3-2021.10/bin/../lib/gcc/arm-none-eabi/10.3.1/../../../../arm-none-eabi/lib/thumb/v8-m.main/nofp/libg_nano.a(lib_a-lock.o)
                0x000000000804519e                __retarget_lock_init_recursive
 .text.__retarget_lock_acquire_recursive
                0x00000000080451a0        0x2 /opt/gcc-arm-none-eabi-10.3-2021.10/bin/../lib/gcc/arm-none-eabi/10.3.1/../../../../arm-none-eabi/lib/thumb/v8-m.main/nofp/libg_nano.a(lib_a-lock.o)
                0x00000000080451a0                __retarget_lock_acquire_recursive
 .text.__retarget_lock_release_recursive
                0x00000000080451a2        0x2 /opt/gcc-arm-none-eabi-10.3-2021.10/bin/../lib/gcc/arm-none-eabi/10.3.1/../../../../arm-none-eabi/lib/thumb/v8-m.main/nofp/libg_nano.a(lib_a-lock.o)
                0x00000000080451a2                __retarget_lock_release_recursive
 .text.__swhatbuf_r
                0x00000000080451a4       0x4a /opt/gcc-arm-none-eabi-10.3-2021.10/bin/../lib/gcc/arm-none-eabi/10.3.1/../../../../arm-none-eabi/lib/thumb/v8-m.main/nofp/libg_nano.a(lib_a-makebuf.o)
                0x00000000080451a4                __swhatbuf_r
 *fill*         0x00000000080451ee        0x2 
 .text.__smakebuf_r
                0x00000000080451f0       0x80 /opt/gcc-arm-none-eabi-10.3-2021.10/bin/../lib/gcc/arm-none-eabi/10.3.1/../../../../arm-none-eabi/lib/thumb/v8-m.main/nofp/libg_nano.a(lib_a-makebuf.o)
                0x00000000080451f0                __smakebuf_r
 .text.memchr   0x0000000008045270       0x1c /opt/gcc-arm-none-eabi-10.3-2021.10/bin/../lib/gcc/arm-none-eabi/10.3.1/../../../../arm-none-eabi/lib/thumb/v8-m.main/nofp/libg_nano.a(lib_a-memchr-stub.o)
                0x0000000008045270                memchr
 .text._free_r  0x000000000804528c       0x94 /opt/gcc-arm-none-eabi-10.3-2021.10/bin/../lib/gcc/arm-none-eabi/10.3.1/../../../../arm-none-eabi/lib/thumb/v8-m.main/nofp/libg_nano.a(lib_a-nano-freer.o)
                0x000000000804528c                _free_r
 .text.sbrk_aligned
                0x0000000008045320       0x40 /opt/gcc-arm-none-eabi-10.3-2021.10/bin/../lib/gcc/arm-none-eabi/10.3.1/../../../../arm-none-eabi/lib/thumb/v8-m.main/nofp/libg_nano.a(lib_a-nano-mallocr.o)
 .text._malloc_r
                0x0000000008045360       0xe8 /opt/gcc-arm-none-eabi-10.3-2021.10/bin/../lib/gcc/arm-none-eabi/10.3.1/../../../../arm-none-eabi/lib/thumb/v8-m.main/nofp/libg_nano.a(lib_a-nano-mallocr.o)
                0x0000000008045360                _malloc_r
 .text._sbrk_r  0x0000000008045448       0x20 /opt/gcc-arm-none-eabi-10.3-2021.10/bin/../lib/gcc/arm-none-eabi/10.3.1/../../../../arm-none-eabi/lib/thumb/v8-m.main/nofp/libg_nano.a(lib_a-sbrkr.o)
                0x0000000008045448                _sbrk_r
 .text._raise_r
                0x0000000008045468       0x50 /opt/gcc-arm-none-eabi-10.3-2021.10/bin/../lib/gcc/arm-none-eabi/10.3.1/../../../../arm-none-eabi/lib/thumb/v8-m.main/nofp/libg_nano.a(lib_a-signal.o)
                0x0000000008045468                _raise_r
 .text.raise    0x00000000080454b8       0x10 /opt/gcc-arm-none-eabi-10.3-2021.10/bin/../lib/gcc/arm-none-eabi/10.3.1/../../../../arm-none-eabi/lib/thumb/v8-m.main/nofp/libg_nano.a(lib_a-signal.o)
                0x00000000080454b8                raise
 .text._kill_r  0x00000000080454c8       0x24 /opt/gcc-arm-none-eabi-10.3-2021.10/bin/../lib/gcc/arm-none-eabi/10.3.1/../../../../arm-none-eabi/lib/thumb/v8-m.main/nofp/libg_nano.a(lib_a-signalr.o)
                0x00000000080454c8                _kill_r
 .text._getpid_r
                0x00000000080454ec        0x4 /opt/gcc-arm-none-eabi-10.3-2021.10/bin/../lib/gcc/arm-none-eabi/10.3.1/../../../../arm-none-eabi/lib/thumb/v8-m.main/nofp/libg_nano.a(lib_a-signalr.o)
                0x00000000080454ec                _getpid_r
 .text.__sread  0x00000000080454f0       0x22 /opt/gcc-arm-none-eabi-10.3-2021.10/bin/../lib/gcc/arm-none-eabi/10.3.1/../../../../arm-none-eabi/lib/thumb/v8-m.main/nofp/libg_nano.a(lib_a-stdio.o)
                0x00000000080454f0                __sread
 .text.__swrite
                0x0000000008045512       0x38 /opt/gcc-arm-none-eabi-10.3-2021.10/bin/../lib/gcc/arm-none-eabi/10.3.1/../../../../arm-none-eabi/lib/thumb/v8-m.main/nofp/libg_nano.a(lib_a-stdio.o)
                0x0000000008045512                __swrite
 .text.__sseek  0x000000000804554a       0x24 /opt/gcc-arm-none-eabi-10.3-2021.10/bin/../lib/gcc/arm-none-eabi/10.3.1/../../../../arm-none-eabi/lib/thumb/v8-m.main/nofp/libg_nano.a(lib_a-stdio.o)
                0x000000000804554a                __sseek
 .text.__sclose
                0x000000000804556e        0x8 /opt/gcc-arm-none-eabi-10.3-2021.10/bin/../lib/gcc/arm-none-eabi/10.3.1/../../../../arm-none-eabi/lib/thumb/v8-m.main/nofp/libg_nano.a(lib_a-stdio.o)
                0x000000000804556e                __sclose
 *fill*         0x0000000008045576        0x2 
 .text._write_r
                0x0000000008045578       0x24 /opt/gcc-arm-none-eabi-10.3-2021.10/bin/../lib/gcc/arm-none-eabi/10.3.1/../../../../arm-none-eabi/lib/thumb/v8-m.main/nofp/libg_nano.a(lib_a-writer.o)
                0x0000000008045578                _write_r
 .text._close_r
                0x000000000804559c       0x20 /opt/gcc-arm-none-eabi-10.3-2021.10/bin/../lib/gcc/arm-none-eabi/10.3.1/../../../../arm-none-eabi/lib/thumb/v8-m.main/nofp/libg_nano.a(lib_a-closer.o)
                0x000000000804559c                _close_r
 .text._fstat_r
                0x00000000080455bc       0x24 /opt/gcc-arm-none-eabi-10.3-2021.10/bin/../lib/gcc/arm-none-eabi/10.3.1/../../../../arm-none-eabi/lib/thumb/v8-m.main/nofp/libg_nano.a(lib_a-fstatr.o)
                0x00000000080455bc                _fstat_r
 .text._isatty_r
                0x00000000080455e0       0x20 /opt/gcc-arm-none-eabi-10.3-2021.10/bin/../lib/gcc/arm-none-eabi/10.3.1/../../../../arm-none-eabi/lib/thumb/v8-m.main/nofp/libg_nano.a(lib_a-isattyr.o)
                0x00000000080455e0                _isatty_r
 .text._lseek_r
                0x0000000008045600       0x24 /opt/gcc-arm-none-eabi-10.3-2021.10/bin/../lib/gcc/arm-none-eabi/10.3.1/../../../../arm-none-eabi/lib/thumb/v8-m.main/nofp/libg_nano.a(lib_a-lseekr.o)
                0x0000000008045600                _lseek_r
 .text.__malloc_lock
                0x0000000008045624        0xc /opt/gcc-arm-none-eabi-10.3-2021.10/bin/../lib/gcc/arm-none-eabi/10.3.1/../../../../arm-none-eabi/lib/thumb/v8-m.main/nofp/libg_nano.a(lib_a-mlock.o)
                0x0000000008045624                __malloc_lock
 .text.__malloc_unlock
                0x0000000008045630        0xc /opt/gcc-arm-none-eabi-10.3-2021.10/bin/../lib/gcc/arm-none-eabi/10.3.1/../../../../arm-none-eabi/lib/thumb/v8-m.main/nofp/libg_nano.a(lib_a-mlock.o)
                0x0000000008045630                __malloc_unlock
 .text._read_r  0x000000000804563c       0x24 /opt/gcc-arm-none-eabi-10.3-2021.10/bin/../lib/gcc/arm-none-eabi/10.3.1/../../../../arm-none-eabi/lib/thumb/v8-m.main/nofp/libg_nano.a(lib_a-readr.o)
                0x000000000804563c                _read_r
 .text._close   0x0000000008045660       0x10 /opt/gcc-arm-none-eabi-10.3-2021.10/bin/../lib/gcc/arm-none-eabi/10.3.1/../../../../arm-none-eabi/lib/thumb/v8-m.main/nofp/libnosys.a(close.o)
                0x0000000008045660                _close
 .text._fstat   0x0000000008045670       0x10 /opt/gcc-arm-none-eabi-10.3-2021.10/bin/../lib/gcc/arm-none-eabi/10.3.1/../../../../arm-none-eabi/lib/thumb/v8-m.main/nofp/libnosys.a(fstat.o)
                0x0000000008045670                _fstat
 .text._getpid  0x0000000008045680       0x10 /opt/gcc-arm-none-eabi-10.3-2021.10/bin/../lib/gcc/arm-none-eabi/10.3.1/../../../../arm-none-eabi/lib/thumb/v8-m.main/nofp/libnosys.a(getpid.o)
                0x0000000008045680                _getpid
 .text._isatty  0x0000000008045690       0x10 /opt/gcc-arm-none-eabi-10.3-2021.10/bin/../lib/gcc/arm-none-eabi/10.3.1/../../../../arm-none-eabi/lib/thumb/v8-m.main/nofp/libnosys.a(isatty.o)
                0x0000000008045690                _isatty
 .text._kill    0x00000000080456a0       0x10 /opt/gcc-arm-none-eabi-10.3-2021.10/bin/../lib/gcc/arm-none-eabi/10.3.1/../../../../arm-none-eabi/lib/thumb/v8-m.main/nofp/libnosys.a(kill.o)
                0x00000000080456a0                _kill
 .text._lseek   0x00000000080456b0       0x10 /opt/gcc-arm-none-eabi-10.3-2021.10/bin/../lib/gcc/arm-none-eabi/10.3.1/../../../../arm-none-eabi/lib/thumb/v8-m.main/nofp/libnosys.a(lseek.o)
                0x00000000080456b0                _lseek
 .text._read    0x00000000080456c0       0x10 /opt/gcc-arm-none-eabi-10.3-2021.10/bin/../lib/gcc/arm-none-eabi/10.3.1/../../../../arm-none-eabi/lib/thumb/v8-m.main/nofp/libnosys.a(read.o)
                0x00000000080456c0                _read
 .text._sbrk    0x00000000080456d0       0x20 /opt/gcc-arm-none-eabi-10.3-2021.10/bin/../lib/gcc/arm-none-eabi/10.3.1/../../../../arm-none-eabi/lib/thumb/v8-m.main/nofp/libnosys.a(sbrk.o)
                0x00000000080456d0                _sbrk
 .text._exit    0x00000000080456f0        0x4 /opt/gcc-arm-none-eabi-10.3-2021.10/bin/../lib/gcc/arm-none-eabi/10.3.1/../../../../arm-none-eabi/lib/thumb/v8-m.main/nofp/libnosys.a(_exit.o)
                0x00000000080456f0                _exit
 *(.init)
 .init          0x00000000080456f4        0x4 /opt/gcc-arm-none-eabi-10.3-2021.10/bin/../lib/gcc/arm-none-eabi/10.3.1/thumb/v8-m.main/nofp/crti.o
                0x00000000080456f4                _init
 .init          0x00000000080456f8        0x8 /opt/gcc-arm-none-eabi-10.3-2021.10/bin/../lib/gcc/arm-none-eabi/10.3.1/thumb/v8-m.main/nofp/crtn.o
 *(.fini)
 .fini          0x0000000008045700        0x4 /opt/gcc-arm-none-eabi-10.3-2021.10/bin/../lib/gcc/arm-none-eabi/10.3.1/thumb/v8-m.main/nofp/crti.o
                0x0000000008045700                _fini
 .fini          0x0000000008045704        0x8 /opt/gcc-arm-none-eabi-10.3-2021.10/bin/../lib/gcc/arm-none-eabi/10.3.1/thumb/v8-m.main/nofp/crtn.o
 *crtbegin.o(.ctors)
 *crtbegin?.o(.ctors)
 *(EXCLUDE_FILE(*crtend.o *crtend?.o) .ctors)
 *(SORT_BY_NAME(.ctors.*))
 *(.ctors)
 *crtbegin.o(.dtors)
 *crtbegin?.o(.dtors)
 *(EXCLUDE_FILE(*crtend.o *crtend?.o) .dtors)
 *(SORT_BY_NAME(.dtors.*))
 *(.dtors)
 *(.rodata*)
 .rodata.main.str1.1
                0x000000000804570c       0x20 CMakeFiles/tfm_ns.dir/main_ns.o
 .rodata.str1.1
                0x000000000804572c        0xc CMakeFiles/tfm_ns.dir/main_ns.o
 .rodata.thread_attr
                0x0000000008045738       0x24 CMakeFiles/tfm_ns.dir/main_ns.o
 .rodata        0x000000000804575c       0xa0 CMakeFiles/tfm_ns.dir/__/CMSIS/RTOS2/RTX/Source/rtx_lib.o
                0x000000000804575c                os_cb_sections
                0x0000000008045794                osRtxConfig
 .rodata.osRtxUserSVC
                0x00000000080457fc        0x4 CMakeFiles/tfm_ns.dir/__/CMSIS/RTOS2/RTX/Source/rtx_lib.o
                0x00000000080457fc                osRtxUserSVC
 .rodata.os_idle_thread_attr
                0x0000000008045800       0x24 CMakeFiles/tfm_ns.dir/__/CMSIS/RTOS2/RTX/Source/rtx_lib.o
 .rodata.os_timer_mq_attr
                0x0000000008045824       0x18 CMakeFiles/tfm_ns.dir/__/CMSIS/RTOS2/RTX/Source/rtx_lib.o
 .rodata.os_timer_thread_attr
                0x000000000804583c       0x24 CMakeFiles/tfm_ns.dir/__/CMSIS/RTOS2/RTX/Source/rtx_lib.o
 .rodata.tfm_log_printf.str1.1
                0x0000000008045860       0x15 CMakeFiles/tfm_ns.dir/__/log/tfm_log_raw.o
 .rodata.hex_digits_lo
                0x0000000008045875       0x10 CMakeFiles/tfm_ns.dir/__/log/tfm_log_raw.o
                0x0000000008045875                hex_digits_lo
 .rodata.hex_digits_up
                0x0000000008045885       0x10 CMakeFiles/tfm_ns.dir/__/log/tfm_log_raw.o
                0x0000000008045885                hex_digits_up
 .rodata.stdio_init.str1.1
                0x0000000008045895       0x5c ../../platform/ns/libplatform_ns.a(uart_stdout.o)
 .rodata.__func__.1
                0x00000000080458f1        0xb ../../platform/ns/libplatform_ns.a(uart_stdout.o)
 .rodata.AHBPrescTable
                0x00000000080458fc       0x10 ../../platform/ns/libplatform_ns.a(system_stm32l5xx.o)
                0x00000000080458fc                AHBPrescTable
 .rodata.APBPrescTable
                0x000000000804590c        0x8 ../../platform/ns/libplatform_ns.a(system_stm32l5xx.o)
                0x000000000804590c                APBPrescTable
 .rodata.MSIRangeTable
                0x0000000008045914       0x40 ../../platform/ns/libplatform_ns.a(system_stm32l5xx.o)
                0x0000000008045914                MSIRangeTable
 .rodata.DriverVersion
                0x0000000008045954        0x4 ../../platform/ns/libplatform_ns.a(low_level_com.o)
 .rodata.Driver_USART0
                0x0000000008045958       0x38 ../../platform/ns/libplatform_ns.a(low_level_com.o)
                0x0000000008045958                Driver_USART0
 .rodata.CSWTCH.58
                0x0000000008045990        0x3 ../../platform/ns/libplatform_ns.a(stm32l5xx_hal_uart.o)
 .rodata.CSWTCH.59
                0x0000000008045993        0xd ../../platform/ns/libplatform_ns.a(stm32l5xx_hal_uart.o)
 .rodata.UARTPrescTable
                0x00000000080459a0       0x18 ../../platform/ns/libplatform_ns.a(stm32l5xx_hal_uart.o)
                0x00000000080459a0                UARTPrescTable
 .rodata.test_app.str1.1
                0x00000000080459b8        0x2 libtfm_test_app.a(test_app.o)
 *fill*         0x00000000080459ba        0x2 
 .rodata.str1.4
                0x00000000080459bc        0xb ../../lib/ext/tfm_test_repo-src/CMSIS/RTOS2/RTX/Library/GCC/libRTX_V8MMN.a(rtx_kernel.o)
 .rodata.__assert_func.str1.1
                0x00000000080459c7       0x3c /opt/gcc-arm-none-eabi-10.3-2021.10/bin/../lib/gcc/arm-none-eabi/10.3.1/../../../../arm-none-eabi/lib/thumb/v8-m.main/nofp/libg_nano.a(lib_a-assert.o)
                                         0x3d (size before relaxing)
 *fill*         0x0000000008045a03        0x1 
 .rodata._global_impure_ptr
                0x0000000008045a04        0x4 /opt/gcc-arm-none-eabi-10.3-2021.10/bin/../lib/gcc/arm-none-eabi/10.3.1/../../../../arm-none-eabi/lib/thumb/v8-m.main/nofp/libg_nano.a(lib_a-impure.o)
                0x0000000008045a04                _global_impure_ptr
 .rodata._vfprintf_r.str1.1
                0x0000000008045a08       0x11 /opt/gcc-arm-none-eabi-10.3-2021.10/bin/../lib/gcc/arm-none-eabi/10.3.1/../../../../arm-none-eabi/lib/thumb/v8-m.main/nofp/libg_nano.a(lib_a-nano-vfprintf.o)
 .rodata._printf_i.str1.1
                0x0000000008045a19       0x22 /opt/gcc-arm-none-eabi-10.3-2021.10/bin/../lib/gcc/arm-none-eabi/10.3.1/../../../../arm-none-eabi/lib/thumb/v8-m.main/nofp/libg_nano.a(lib_a-nano-vfprintf_i.o)
 *fill*         0x0000000008045a3b        0x1 
 .rodata.__sf_fake_stderr
                0x0000000008045a3c       0x20 /opt/gcc-arm-none-eabi-10.3-2021.10/bin/../lib/gcc/arm-none-eabi/10.3.1/../../../../arm-none-eabi/lib/thumb/v8-m.main/nofp/libg_nano.a(lib_a-findfp.o)
                0x0000000008045a3c                __sf_fake_stderr
 .rodata.__sf_fake_stdin
                0x0000000008045a5c       0x20 /opt/gcc-arm-none-eabi-10.3-2021.10/bin/../lib/gcc/arm-none-eabi/10.3.1/../../../../arm-none-eabi/lib/thumb/v8-m.main/nofp/libg_nano.a(lib_a-findfp.o)
                0x0000000008045a5c                __sf_fake_stdin
 .rodata.__sf_fake_stdout
                0x0000000008045a7c       0x20 /opt/gcc-arm-none-eabi-10.3-2021.10/bin/../lib/gcc/arm-none-eabi/10.3.1/../../../../arm-none-eabi/lib/thumb/v8-m.main/nofp/libg_nano.a(lib_a-findfp.o)
                0x0000000008045a7c                __sf_fake_stdout
 *(.eh_frame*)
 .eh_frame      0x0000000008045a9c        0x0 /opt/gcc-arm-none-eabi-10.3-2021.10/bin/../lib/gcc/arm-none-eabi/10.3.1/thumb/v8-m.main/nofp/crtbegin.o
 .eh_frame      0x0000000008045a9c        0x4 /opt/gcc-arm-none-eabi-10.3-2021.10/bin/../lib/gcc/arm-none-eabi/10.3.1/thumb/v8-m.main/nofp/crtend.o

.glue_7         0x0000000008045aa0        0x0
 .glue_7        0x0000000008045aa0        0x0 linker stubs

.glue_7t        0x0000000008045aa0        0x0
 .glue_7t       0x0000000008045aa0        0x0 linker stubs

.vfp11_veneer   0x0000000008045aa0        0x0
 .vfp11_veneer  0x0000000008045aa0        0x0 linker stubs

.v4_bx          0x0000000008045aa0        0x0
 .v4_bx         0x0000000008045aa0        0x0 linker stubs

.iplt           0x0000000008045aa0        0x0
 .iplt          0x0000000008045aa0        0x0 /opt/gcc-arm-none-eabi-10.3-2021.10/bin/../lib/gcc/arm-none-eabi/10.3.1/thumb/v8-m.main/nofp/crtbegin.o

.ARM.extab
 *(.ARM.extab* .gnu.linkonce.armextab.*)
                0x0000000008045aa0                __exidx_start = .

.ARM.exidx      0x0000000008045aa0        0x8
 *(.ARM.exidx* .gnu.linkonce.armexidx.*)
 .ARM.exidx     0x0000000008045aa0        0x8 /opt/gcc-arm-none-eabi-10.3-2021.10/bin/../lib/gcc/arm-none-eabi/10.3.1/../../../../arm-none-eabi/lib/thumb/v8-m.main/nofp/crt0.o
                                         0x10 (size before relaxing)
 .ARM.exidx     0x0000000008045aa8        0x0 ../../lib/ext/tfm_test_repo-src/CMSIS/RTOS2/RTX/Library/GCC/libRTX_V8MMN.a(irq_armv8mml.o)
                                         0x20 (size before relaxing)
 .ARM.exidx     0x0000000008045aa8        0x0 /opt/gcc-arm-none-eabi-10.3-2021.10/bin/../lib/gcc/arm-none-eabi/10.3.1/thumb/v8-m.main/nofp/libgcc.a(_udivmoddi4.o)
                                          0x8 (size before relaxing)
                0x0000000008045aa8                __exidx_end = .

.rel.dyn        0x0000000008045aa8        0x0
 .rel.iplt      0x0000000008045aa8        0x0 /opt/gcc-arm-none-eabi-10.3-2021.10/bin/../lib/gcc/arm-none-eabi/10.3.1/thumb/v8-m.main/nofp/crtbegin.o

.copy.table     0x0000000008045aa8       0x18
                0x0000000008045aa8                . = ALIGN (0x4)
                0x0000000008045aa8                __copy_table_start__ = .
                0x0000000008045aa8        0x4 LONG 0x8045ad0 __etext
                0x0000000008045aac        0x4 LONG 0x20000100 __data_start__
                0x0000000008045ab0        0x4 LONG 0x45 ((__data_end__ - __data_start__) / 0x4)
                0x0000000008045ab4        0x4 LONG 0x0 DEFINED (__etext2)?__etext2:0x0
                0x0000000008045ab8        0x4 LONG 0x0 DEFINED (__data2_start__)?__data2_start__:0x0
                0x0000000008045abc        0x4 LONG 0x0 DEFINED (__data2_start__)?((__data2_end__ - __data2_start__) / 0x4):0x0
                0x0000000008045ac0                __copy_table_end__ = .

.zero.table     0x0000000008045ac0       0x10
                0x0000000008045ac0                . = ALIGN (0x4)
                0x0000000008045ac0                __zero_table_start__ = .
                0x0000000008045ac0        0x4 LONG 0x20000218 __bss_start__
                0x0000000008045ac4        0x4 LONG 0x908 ((__bss_end__ - __bss_start__) / 0x4)
                0x0000000008045ac8        0x4 LONG 0x0 DEFINED (__bss2_start__)?__bss2_start__:0x0
                0x0000000008045acc        0x4 LONG 0x0 DEFINED (__bss2_start__)?((__bss2_end__ - __bss2_start__) / 0x4):0x0
                0x0000000008045ad0                __zero_table_end__ = .
                0x0000000008045ad0                __etext = ALIGN (0x4)

.testprotection
 *(.bss.NoInit)

.data           0x0000000020000100      0x114 load address 0x0000000008045ad0
                0x0000000020000100                __data_start__ = .
 *(vtable)
 *(.data*)
 .data.SystemCoreClock
                0x0000000020000100        0x4 ../../platform/ns/libplatform_ns.a(system_stm32l5xx.o)
                0x0000000020000100                SystemCoreClock
 .data.os       0x0000000020000104       0xa4 ../../lib/ext/tfm_test_repo-src/CMSIS/RTOS2/RTX/Library/GCC/libRTX_V8MMN.a(rtx_kernel.o)
                0x0000000020000104                osRtxInfo
 .data._impure_ptr
                0x00000000200001a8        0x4 /opt/gcc-arm-none-eabi-10.3-2021.10/bin/../lib/gcc/arm-none-eabi/10.3.1/../../../../arm-none-eabi/lib/thumb/v8-m.main/nofp/libg_nano.a(lib_a-impure.o)
                0x00000000200001a8                _impure_ptr
 .data.impure_data
                0x00000000200001ac       0x60 /opt/gcc-arm-none-eabi-10.3-2021.10/bin/../lib/gcc/arm-none-eabi/10.3.1/../../../../arm-none-eabi/lib/thumb/v8-m.main/nofp/libg_nano.a(lib_a-impure.o)
                0x000000002000020c                . = ALIGN (0x4)
                0x000000002000020c                PROVIDE (__preinit_array_start = .)
 *(.preinit_array)
                0x000000002000020c                PROVIDE (__preinit_array_end = .)
                0x000000002000020c                . = ALIGN (0x4)
                0x000000002000020c                PROVIDE (__init_array_start = .)
 *(SORT_BY_NAME(.init_array.*))
 *(.init_array)
 .init_array    0x000000002000020c        0x4 /opt/gcc-arm-none-eabi-10.3-2021.10/bin/../lib/gcc/arm-none-eabi/10.3.1/thumb/v8-m.main/nofp/crtbegin.o
                0x0000000020000210                PROVIDE (__init_array_end = .)
                0x0000000020000210                . = ALIGN (0x4)
                [!provide]                        PROVIDE (__fini_array_start = .)
 *(SORT_BY_NAME(.fini_array.*))
 *(.fini_array)
 .fini_array    0x0000000020000210        0x4 /opt/gcc-arm-none-eabi-10.3-2021.10/bin/../lib/gcc/arm-none-eabi/10.3.1/thumb/v8-m.main/nofp/crtbegin.o
                [!provide]                        PROVIDE (__fini_array_end = .)
 *(.jcr*)
                0x0000000020000214                . = ALIGN (0x4)
                0x0000000020000214                __data_end__ = .

.igot.plt       0x0000000020000214        0x0 load address 0x0000000008045be4
 .igot.plt      0x0000000020000214        0x0 /opt/gcc-arm-none-eabi-10.3-2021.10/bin/../lib/gcc/arm-none-eabi/10.3.1/thumb/v8-m.main/nofp/crtbegin.o

.bss            0x0000000020000218     0x2420 load address 0x0000000008045be8
                0x0000000020000218                . = ALIGN (0x4)
                0x0000000020000218                __bss_start__ = .
 *(.bss*)
 .bss           0x0000000020000218       0x1c /opt/gcc-arm-none-eabi-10.3-2021.10/bin/../lib/gcc/arm-none-eabi/10.3.1/thumb/v8-m.main/nofp/crtbegin.o
 *fill*         0x0000000020000234        0x4 
 .bss.os        0x0000000020000238     0x2040 CMakeFiles/tfm_ns.dir/__/CMSIS/RTOS2/RTX/Source/rtx_lib.o
 .bss.os.msgqueue.cb
                0x0000000020002278       0x34 CMakeFiles/tfm_ns.dir/__/CMSIS/RTOS2/RTX/Source/rtx_lib.o
 .bss.os.msgqueue.mem
                0x00000000200022ac       0x50 CMakeFiles/tfm_ns.dir/__/CMSIS/RTOS2/RTX/Source/rtx_lib.o
 .bss.os.thread.cb
                0x00000000200022fc       0x88 CMakeFiles/tfm_ns.dir/__/CMSIS/RTOS2/RTX/Source/rtx_lib.o
 *fill*         0x0000000020002384        0x4 
 .bss.os.thread.stack
                0x0000000020002388      0x200 CMakeFiles/tfm_ns.dir/__/CMSIS/RTOS2/RTX/Source/rtx_lib.o
 .bss.uart_device
                0x0000000020002588       0x90 ../../platform/ns/libplatform_ns.a(low_level_com.o)
 .bss.uwTick    0x0000000020002618        0x4 ../../platform/ns/libplatform_ns.a(stm32l5xx_hal.o)
                0x0000000020002618                uwTick
 .bss           0x000000002000261c        0x1 ../../lib/ext/tfm_test_repo-src/CMSIS/RTOS2/RTX/Library/GCC/libRTX_V8MMN.a(os_systick.o)
 *fill*         0x000000002000261d        0x3 
 .bss.ns_lock_handle
                0x0000000020002620        0x4 libtfm_api_ns.a(tfm_ns_interface.o)
 .bss.__lock___malloc_recursive_mutex
                0x0000000020002624        0x1 /opt/gcc-arm-none-eabi-10.3-2021.10/bin/../lib/gcc/arm-none-eabi/10.3.1/../../../../arm-none-eabi/lib/thumb/v8-m.main/nofp/libg_nano.a(lib_a-lock.o)
                0x0000000020002624                __lock___malloc_recursive_mutex
 .bss.__lock___sfp_recursive_mutex
                0x0000000020002625        0x1 /opt/gcc-arm-none-eabi-10.3-2021.10/bin/../lib/gcc/arm-none-eabi/10.3.1/../../../../arm-none-eabi/lib/thumb/v8-m.main/nofp/libg_nano.a(lib_a-lock.o)
                0x0000000020002625                __lock___sfp_recursive_mutex
 .bss.__lock___sinit_recursive_mutex
                0x0000000020002626        0x1 /opt/gcc-arm-none-eabi-10.3-2021.10/bin/../lib/gcc/arm-none-eabi/10.3.1/../../../../arm-none-eabi/lib/thumb/v8-m.main/nofp/libg_nano.a(lib_a-lock.o)
                0x0000000020002626                __lock___sinit_recursive_mutex
 *fill*         0x0000000020002627        0x1 
 .bss.__malloc_free_list
                0x0000000020002628        0x4 /opt/gcc-arm-none-eabi-10.3-2021.10/bin/../lib/gcc/arm-none-eabi/10.3.1/../../../../arm-none-eabi/lib/thumb/v8-m.main/nofp/libg_nano.a(lib_a-nano-mallocr.o)
                0x0000000020002628                __malloc_free_list
 .bss.__malloc_sbrk_start
                0x000000002000262c        0x4 /opt/gcc-arm-none-eabi-10.3-2021.10/bin/../lib/gcc/arm-none-eabi/10.3.1/../../../../arm-none-eabi/lib/thumb/v8-m.main/nofp/libg_nano.a(lib_a-nano-mallocr.o)
                0x000000002000262c                __malloc_sbrk_start
 .bss.errno     0x0000000020002630        0x4 /opt/gcc-arm-none-eabi-10.3-2021.10/bin/../lib/gcc/arm-none-eabi/10.3.1/../../../../arm-none-eabi/lib/thumb/v8-m.main/nofp/libg_nano.a(lib_a-reent.o)
                0x0000000020002630                errno
 .bss.heap_end.0
                0x0000000020002634        0x4 /opt/gcc-arm-none-eabi-10.3-2021.10/bin/../lib/gcc/arm-none-eabi/10.3.1/../../../../arm-none-eabi/lib/thumb/v8-m.main/nofp/libnosys.a(sbrk.o)
 *(COMMON)
                0x0000000020002638                . = ALIGN (0x4)
                0x0000000020002638                __bss_end__ = .
                0x0000000000002420                bss_size = (__bss_end__ - __bss_start__)

.stack          0x0000000020002640     0x1000 load address 0x0000000008048020
                0x0000000020003640                . = (. + __stack_size__)
 *fill*         0x0000000020002640     0x1000 
                0x0000000020002640                __StackLimit = ADDR (.stack)
                0x0000000020003640                __StackTop = (ADDR (.stack) + SIZEOF (.stack))

.heap           0x0000000020003640     0x1000 load address 0x0000000008049020
                0x0000000020003640                __end__ = .
                0x0000000020003640                PROVIDE (end = .)
                0x0000000020003640                __HeapBase = .
                0x0000000020004640                . = (. + __heap_size__)
 *fill*         0x0000000020003640     0x1000 
                0x0000000020004640                __HeapLimit = .
                0x0000000020004640                __heap_limit = .
                0x0000000020003640                PROVIDE (__stack = __StackTop)
OUTPUT(../../bin/tfm_ns.axf elf32-littlearm)
LOAD linker stubs

.ARM.attributes
                0x0000000000000000       0x30
 .ARM.attributes
                0x0000000000000000       0x22 /opt/gcc-arm-none-eabi-10.3-2021.10/bin/../lib/gcc/arm-none-eabi/10.3.1/thumb/v8-m.main/nofp/crti.o
 .ARM.attributes
                0x0000000000000022       0x32 /opt/gcc-arm-none-eabi-10.3-2021.10/bin/../lib/gcc/arm-none-eabi/10.3.1/thumb/v8-m.main/nofp/crtbegin.o
 .ARM.attributes
                0x0000000000000054       0x20 /opt/gcc-arm-none-eabi-10.3-2021.10/bin/../lib/gcc/arm-none-eabi/10.3.1/../../../../arm-none-eabi/lib/thumb/v8-m.main/nofp/crt0.o
 .ARM.attributes
                0x0000000000000074       0x34 CMakeFiles/tfm_ns.dir/main_ns.o
 .ARM.attributes
                0x00000000000000a8       0x34 CMakeFiles/tfm_ns.dir/__/__/__/__/__/platform/ext/target/stm/common/stm32l5xx/Device/Source/startup_stm32l5xx_ns.o
 .ARM.attributes
                0x00000000000000dc       0x34 CMakeFiles/tfm_ns.dir/__/ns_interface/ns_client_ext/tz_shim_layer.o
 .ARM.attributes
                0x0000000000000110       0x34 CMakeFiles/tfm_ns.dir/__/CMSIS/RTOS2/RTX/Config/RTX_Config.o
 .ARM.attributes
                0x0000000000000144       0x34 CMakeFiles/tfm_ns.dir/__/CMSIS/RTOS2/RTX/Source/rtx_lib.o
 .ARM.attributes
                0x0000000000000178       0x34 CMakeFiles/tfm_ns.dir/os_wrapper_cmsis_rtos_v2.o
 .ARM.attributes
                0x00000000000001ac       0x34 CMakeFiles/tfm_ns.dir/__/log/tfm_log_raw.o
 .ARM.attributes
                0x00000000000001e0       0x34 ../../platform/ns/libplatform_ns.a(uart_stdout.o)
 .ARM.attributes
                0x0000000000000214       0x34 ../../platform/ns/libplatform_ns.a(system_stm32l5xx.o)
 .ARM.attributes
                0x0000000000000248       0x34 ../../platform/ns/libplatform_ns.a(low_level_com.o)
 .ARM.attributes
                0x000000000000027c       0x34 ../../platform/ns/libplatform_ns.a(stm32l5xx_hal_pwr_ex.o)
 .ARM.attributes
                0x00000000000002b0       0x34 ../../platform/ns/libplatform_ns.a(stm32l5xx_hal_gpio.o)
 .ARM.attributes
                0x00000000000002e4       0x34 ../../platform/ns/libplatform_ns.a(stm32l5xx_hal_uart.o)
 .ARM.attributes
                0x0000000000000318       0x34 ../../platform/ns/libplatform_ns.a(stm32l5xx_hal.o)
 .ARM.attributes
                0x000000000000034c       0x34 ../../platform/ns/libplatform_ns.a(stm32l5xx_hal_rcc.o)
 .ARM.attributes
                0x0000000000000380       0x34 libtfm_test_app.a(test_app.o)
 .ARM.attributes
                0x00000000000003b4       0x20 ../../lib/ext/tfm_test_repo-src/CMSIS/RTOS2/RTX/Library/GCC/libRTX_V8MMN.a(irq_armv8mml.o)
 .ARM.attributes
                0x00000000000003d4       0x32 ../../lib/ext/tfm_test_repo-src/CMSIS/RTOS2/RTX/Library/GCC/libRTX_V8MMN.a(rtx_system.o)
 .ARM.attributes
                0x0000000000000406       0x32 ../../lib/ext/tfm_test_repo-src/CMSIS/RTOS2/RTX/Library/GCC/libRTX_V8MMN.a(rtx_msgqueue.o)
 .ARM.attributes
                0x0000000000000438       0x32 ../../lib/ext/tfm_test_repo-src/CMSIS/RTOS2/RTX/Library/GCC/libRTX_V8MMN.a(rtx_mempool.o)
 .ARM.attributes
                0x000000000000046a       0x32 ../../lib/ext/tfm_test_repo-src/CMSIS/RTOS2/RTX/Library/GCC/libRTX_V8MMN.a(rtx_memory.o)
 .ARM.attributes
                0x000000000000049c       0x32 ../../lib/ext/tfm_test_repo-src/CMSIS/RTOS2/RTX/Library/GCC/libRTX_V8MMN.a(rtx_mutex.o)
 .ARM.attributes
                0x00000000000004ce       0x32 ../../lib/ext/tfm_test_repo-src/CMSIS/RTOS2/RTX/Library/GCC/libRTX_V8MMN.a(rtx_thread.o)
 .ARM.attributes
                0x0000000000000500       0x32 ../../lib/ext/tfm_test_repo-src/CMSIS/RTOS2/RTX/Library/GCC/libRTX_V8MMN.a(rtx_kernel.o)
 .ARM.attributes
                0x0000000000000532       0x32 ../../lib/ext/tfm_test_repo-src/CMSIS/RTOS2/RTX/Library/GCC/libRTX_V8MMN.a(os_systick.o)
 .ARM.attributes
                0x0000000000000564       0x32 ../../lib/ext/tfm_test_repo-src/CMSIS/RTOS2/RTX/Library/GCC/libRTX_V8MMN.a(rtx_timer.o)
 .ARM.attributes
                0x0000000000000596       0x34 libtfm_api_ns.a(tfm_ns_interface.o)
 .ARM.attributes
                0x00000000000005ca       0x22 /opt/gcc-arm-none-eabi-10.3-2021.10/bin/../lib/gcc/arm-none-eabi/10.3.1/thumb/v8-m.main/nofp/libgcc.a(_aeabi_uldivmod.o)
 .ARM.attributes
                0x00000000000005ec       0x32 /opt/gcc-arm-none-eabi-10.3-2021.10/bin/../lib/gcc/arm-none-eabi/10.3.1/thumb/v8-m.main/nofp/libgcc.a(_udivmoddi4.o)
 .ARM.attributes
                0x000000000000061e       0x22 /opt/gcc-arm-none-eabi-10.3-2021.10/bin/../lib/gcc/arm-none-eabi/10.3.1/thumb/v8-m.main/nofp/libgcc.a(_dvmd_tls.o)
 .ARM.attributes
                0x0000000000000640       0x32 /opt/gcc-arm-none-eabi-10.3-2021.10/bin/../lib/gcc/arm-none-eabi/10.3.1/../../../../arm-none-eabi/lib/thumb/v8-m.main/nofp/libg_nano.a(lib_a-assert.o)
 .ARM.attributes
                0x0000000000000672       0x32 /opt/gcc-arm-none-eabi-10.3-2021.10/bin/../lib/gcc/arm-none-eabi/10.3.1/../../../../arm-none-eabi/lib/thumb/v8-m.main/nofp/libg_nano.a(lib_a-exit.o)
 .ARM.attributes
                0x00000000000006a4       0x32 /opt/gcc-arm-none-eabi-10.3-2021.10/bin/../lib/gcc/arm-none-eabi/10.3.1/../../../../arm-none-eabi/lib/thumb/v8-m.main/nofp/libg_nano.a(lib_a-fprintf.o)
 .ARM.attributes
                0x00000000000006d6       0x32 /opt/gcc-arm-none-eabi-10.3-2021.10/bin/../lib/gcc/arm-none-eabi/10.3.1/../../../../arm-none-eabi/lib/thumb/v8-m.main/nofp/libg_nano.a(lib_a-impure.o)
 .ARM.attributes
                0x0000000000000708       0x32 /opt/gcc-arm-none-eabi-10.3-2021.10/bin/../lib/gcc/arm-none-eabi/10.3.1/../../../../arm-none-eabi/lib/thumb/v8-m.main/nofp/libg_nano.a(lib_a-init.o)
 .ARM.attributes
                0x000000000000073a       0x32 /opt/gcc-arm-none-eabi-10.3-2021.10/bin/../lib/gcc/arm-none-eabi/10.3.1/../../../../arm-none-eabi/lib/thumb/v8-m.main/nofp/libg_nano.a(lib_a-memcpy-stub.o)
 .ARM.attributes
                0x000000000000076c       0x32 /opt/gcc-arm-none-eabi-10.3-2021.10/bin/../lib/gcc/arm-none-eabi/10.3.1/../../../../arm-none-eabi/lib/thumb/v8-m.main/nofp/libg_nano.a(lib_a-memset.o)
 .ARM.attributes
                0x000000000000079e       0x32 /opt/gcc-arm-none-eabi-10.3-2021.10/bin/../lib/gcc/arm-none-eabi/10.3.1/../../../../arm-none-eabi/lib/thumb/v8-m.main/nofp/libg_nano.a(lib_a-nano-vfprintf.o)
 .ARM.attributes
                0x00000000000007d0       0x32 /opt/gcc-arm-none-eabi-10.3-2021.10/bin/../lib/gcc/arm-none-eabi/10.3.1/../../../../arm-none-eabi/lib/thumb/v8-m.main/nofp/libg_nano.a(lib_a-nano-vfprintf_i.o)
 .ARM.attributes
                0x0000000000000802       0x32 /opt/gcc-arm-none-eabi-10.3-2021.10/bin/../lib/gcc/arm-none-eabi/10.3.1/../../../../arm-none-eabi/lib/thumb/v8-m.main/nofp/libg_nano.a(lib_a-wbuf.o)
 .ARM.attributes
                0x0000000000000834       0x32 /opt/gcc-arm-none-eabi-10.3-2021.10/bin/../lib/gcc/arm-none-eabi/10.3.1/../../../../arm-none-eabi/lib/thumb/v8-m.main/nofp/libg_nano.a(lib_a-wsetup.o)
 .ARM.attributes
                0x0000000000000866       0x32 /opt/gcc-arm-none-eabi-10.3-2021.10/bin/../lib/gcc/arm-none-eabi/10.3.1/../../../../arm-none-eabi/lib/thumb/v8-m.main/nofp/libg_nano.a(lib_a-abort.o)
 .ARM.attributes
                0x0000000000000898       0x32 /opt/gcc-arm-none-eabi-10.3-2021.10/bin/../lib/gcc/arm-none-eabi/10.3.1/../../../../arm-none-eabi/lib/thumb/v8-m.main/nofp/libg_nano.a(lib_a-fflush.o)
 .ARM.attributes
                0x00000000000008ca       0x32 /opt/gcc-arm-none-eabi-10.3-2021.10/bin/../lib/gcc/arm-none-eabi/10.3.1/../../../../arm-none-eabi/lib/thumb/v8-m.main/nofp/libg_nano.a(lib_a-findfp.o)
 .ARM.attributes
                0x00000000000008fc       0x32 /opt/gcc-arm-none-eabi-10.3-2021.10/bin/../lib/gcc/arm-none-eabi/10.3.1/../../../../arm-none-eabi/lib/thumb/v8-m.main/nofp/libg_nano.a(lib_a-fwalk.o)
 .ARM.attributes
                0x000000000000092e       0x32 /opt/gcc-arm-none-eabi-10.3-2021.10/bin/../lib/gcc/arm-none-eabi/10.3.1/../../../../arm-none-eabi/lib/thumb/v8-m.main/nofp/libg_nano.a(lib_a-lock.o)
 .ARM.attributes
                0x0000000000000960       0x32 /opt/gcc-arm-none-eabi-10.3-2021.10/bin/../lib/gcc/arm-none-eabi/10.3.1/../../../../arm-none-eabi/lib/thumb/v8-m.main/nofp/libg_nano.a(lib_a-makebuf.o)
 .ARM.attributes
                0x0000000000000992       0x32 /opt/gcc-arm-none-eabi-10.3-2021.10/bin/../lib/gcc/arm-none-eabi/10.3.1/../../../../arm-none-eabi/lib/thumb/v8-m.main/nofp/libg_nano.a(lib_a-memchr-stub.o)
 .ARM.attributes
                0x00000000000009c4       0x32 /opt/gcc-arm-none-eabi-10.3-2021.10/bin/../lib/gcc/arm-none-eabi/10.3.1/../../../../arm-none-eabi/lib/thumb/v8-m.main/nofp/libg_nano.a(lib_a-nano-freer.o)
 .ARM.attributes
                0x00000000000009f6       0x32 /opt/gcc-arm-none-eabi-10.3-2021.10/bin/../lib/gcc/arm-none-eabi/10.3.1/../../../../arm-none-eabi/lib/thumb/v8-m.main/nofp/libg_nano.a(lib_a-nano-mallocr.o)
 .ARM.attributes
                0x0000000000000a28       0x32 /opt/gcc-arm-none-eabi-10.3-2021.10/bin/../lib/gcc/arm-none-eabi/10.3.1/../../../../arm-none-eabi/lib/thumb/v8-m.main/nofp/libg_nano.a(lib_a-sbrkr.o)
 .ARM.attributes
                0x0000000000000a5a       0x32 /opt/gcc-arm-none-eabi-10.3-2021.10/bin/../lib/gcc/arm-none-eabi/10.3.1/../../../../arm-none-eabi/lib/thumb/v8-m.main/nofp/libg_nano.a(lib_a-signal.o)
 .ARM.attributes
                0x0000000000000a8c       0x32 /opt/gcc-arm-none-eabi-10.3-2021.10/bin/../lib/gcc/arm-none-eabi/10.3.1/../../../../arm-none-eabi/lib/thumb/v8-m.main/nofp/libg_nano.a(lib_a-signalr.o)
 .ARM.attributes
                0x0000000000000abe       0x32 /opt/gcc-arm-none-eabi-10.3-2021.10/bin/../lib/gcc/arm-none-eabi/10.3.1/../../../../arm-none-eabi/lib/thumb/v8-m.main/nofp/libg_nano.a(lib_a-stdio.o)
 .ARM.attributes
                0x0000000000000af0       0x32 /opt/gcc-arm-none-eabi-10.3-2021.10/bin/../lib/gcc/arm-none-eabi/10.3.1/../../../../arm-none-eabi/lib/thumb/v8-m.main/nofp/libg_nano.a(lib_a-writer.o)
 .ARM.attributes
                0x0000000000000b22       0x32 /opt/gcc-arm-none-eabi-10.3-2021.10/bin/../lib/gcc/arm-none-eabi/10.3.1/../../../../arm-none-eabi/lib/thumb/v8-m.main/nofp/libg_nano.a(lib_a-closer.o)
 .ARM.attributes
                0x0000000000000b54       0x32 /opt/gcc-arm-none-eabi-10.3-2021.10/bin/../lib/gcc/arm-none-eabi/10.3.1/../../../../arm-none-eabi/lib/thumb/v8-m.main/nofp/libg_nano.a(lib_a-fstatr.o)
 .ARM.attributes
                0x0000000000000b86       0x32 /opt/gcc-arm-none-eabi-10.3-2021.10/bin/../lib/gcc/arm-none-eabi/10.3.1/../../../../arm-none-eabi/lib/thumb/v8-m.main/nofp/libg_nano.a(lib_a-isattyr.o)
 .ARM.attributes
                0x0000000000000bb8       0x32 /opt/gcc-arm-none-eabi-10.3-2021.10/bin/../lib/gcc/arm-none-eabi/10.3.1/../../../../arm-none-eabi/lib/thumb/v8-m.main/nofp/libg_nano.a(lib_a-lseekr.o)
 .ARM.attributes
                0x0000000000000bea       0x32 /opt/gcc-arm-none-eabi-10.3-2021.10/bin/../lib/gcc/arm-none-eabi/10.3.1/../../../../arm-none-eabi/lib/thumb/v8-m.main/nofp/libg_nano.a(lib_a-mlock.o)
 .ARM.attributes
                0x0000000000000c1c       0x32 /opt/gcc-arm-none-eabi-10.3-2021.10/bin/../lib/gcc/arm-none-eabi/10.3.1/../../../../arm-none-eabi/lib/thumb/v8-m.main/nofp/libg_nano.a(lib_a-readr.o)
 .ARM.attributes
                0x0000000000000c4e       0x32 /opt/gcc-arm-none-eabi-10.3-2021.10/bin/../lib/gcc/arm-none-eabi/10.3.1/../../../../arm-none-eabi/lib/thumb/v8-m.main/nofp/libg_nano.a(lib_a-reent.o)
 .ARM.attributes
                0x0000000000000c80       0x32 /opt/gcc-arm-none-eabi-10.3-2021.10/bin/../lib/gcc/arm-none-eabi/10.3.1/thumb/v8-m.main/nofp/crtend.o
 .ARM.attributes
                0x0000000000000cb2       0x22 /opt/gcc-arm-none-eabi-10.3-2021.10/bin/../lib/gcc/arm-none-eabi/10.3.1/thumb/v8-m.main/nofp/crtn.o
 .ARM.attributes
                0x0000000000000cd4       0x32 /opt/gcc-arm-none-eabi-10.3-2021.10/bin/../lib/gcc/arm-none-eabi/10.3.1/../../../../arm-none-eabi/lib/thumb/v8-m.main/nofp/libnosys.a(close.o)
 .ARM.attributes
                0x0000000000000d06       0x32 /opt/gcc-arm-none-eabi-10.3-2021.10/bin/../lib/gcc/arm-none-eabi/10.3.1/../../../../arm-none-eabi/lib/thumb/v8-m.main/nofp/libnosys.a(fstat.o)
 .ARM.attributes
                0x0000000000000d38       0x32 /opt/gcc-arm-none-eabi-10.3-2021.10/bin/../lib/gcc/arm-none-eabi/10.3.1/../../../../arm-none-eabi/lib/thumb/v8-m.main/nofp/libnosys.a(getpid.o)
 .ARM.attributes
                0x0000000000000d6a       0x32 /opt/gcc-arm-none-eabi-10.3-2021.10/bin/../lib/gcc/arm-none-eabi/10.3.1/../../../../arm-none-eabi/lib/thumb/v8-m.main/nofp/libnosys.a(isatty.o)
 .ARM.attributes
                0x0000000000000d9c       0x32 /opt/gcc-arm-none-eabi-10.3-2021.10/bin/../lib/gcc/arm-none-eabi/10.3.1/../../../../arm-none-eabi/lib/thumb/v8-m.main/nofp/libnosys.a(kill.o)
 .ARM.attributes
                0x0000000000000dce       0x32 /opt/gcc-arm-none-eabi-10.3-2021.10/bin/../lib/gcc/arm-none-eabi/10.3.1/../../../../arm-none-eabi/lib/thumb/v8-m.main/nofp/libnosys.a(lseek.o)
 .ARM.attributes
                0x0000000000000e00       0x32 /opt/gcc-arm-none-eabi-10.3-2021.10/bin/../lib/gcc/arm-none-eabi/10.3.1/../../../../arm-none-eabi/lib/thumb/v8-m.main/nofp/libnosys.a(read.o)
 .ARM.attributes
                0x0000000000000e32       0x32 /opt/gcc-arm-none-eabi-10.3-2021.10/bin/../lib/gcc/arm-none-eabi/10.3.1/../../../../arm-none-eabi/lib/thumb/v8-m.main/nofp/libnosys.a(sbrk.o)
 .ARM.attributes
                0x0000000000000e64       0x32 /opt/gcc-arm-none-eabi-10.3-2021.10/bin/../lib/gcc/arm-none-eabi/10.3.1/../../../../arm-none-eabi/lib/thumb/v8-m.main/nofp/libnosys.a(_exit.o)

.comment        0x0000000000000000       0xbe
 .comment       0x0000000000000000       0x49 CMakeFiles/tfm_ns.dir/main_ns.o
                                         0x4a (size before relaxing)
 .comment       0x0000000000000049       0x4a CMakeFiles/tfm_ns.dir/__/__/__/__/__/platform/ext/target/stm/common/stm32l5xx/Device/Source/startup_stm32l5xx_ns.o
 .comment       0x0000000000000049       0x4a CMakeFiles/tfm_ns.dir/__/ns_interface/ns_client_ext/tz_shim_layer.o
 .comment       0x0000000000000049       0x4a CMakeFiles/tfm_ns.dir/__/CMSIS/RTOS2/RTX/Config/RTX_Config.o
 .comment       0x0000000000000049       0x4a CMakeFiles/tfm_ns.dir/__/CMSIS/RTOS2/RTX/Source/rtx_lib.o
 .comment       0x0000000000000049       0x4a CMakeFiles/tfm_ns.dir/os_wrapper_cmsis_rtos_v2.o
 .comment       0x0000000000000049       0x4a CMakeFiles/tfm_ns.dir/__/log/tfm_log_raw.o
 .comment       0x0000000000000049       0x4a ../../platform/ns/libplatform_ns.a(uart_stdout.o)
 .comment       0x0000000000000049       0x4a ../../platform/ns/libplatform_ns.a(system_stm32l5xx.o)
 .comment       0x0000000000000049       0x4a ../../platform/ns/libplatform_ns.a(low_level_com.o)
 .comment       0x0000000000000049       0x4a ../../platform/ns/libplatform_ns.a(stm32l5xx_hal_pwr_ex.o)
 .comment       0x0000000000000049       0x4a ../../platform/ns/libplatform_ns.a(stm32l5xx_hal_gpio.o)
 .comment       0x0000000000000049       0x4a ../../platform/ns/libplatform_ns.a(stm32l5xx_hal_uart.o)
 .comment       0x0000000000000049       0x4a ../../platform/ns/libplatform_ns.a(stm32l5xx_hal.o)
 .comment       0x0000000000000049       0x4a ../../platform/ns/libplatform_ns.a(stm32l5xx_hal_rcc.o)
 .comment       0x0000000000000049       0x4a libtfm_test_app.a(test_app.o)
 .comment       0x0000000000000049       0x75 ../../lib/ext/tfm_test_repo-src/CMSIS/RTOS2/RTX/Library/GCC/libRTX_V8MMN.a(rtx_system.o)
                                         0x76 (size before relaxing)
 .comment       0x00000000000000be       0x76 ../../lib/ext/tfm_test_repo-src/CMSIS/RTOS2/RTX/Library/GCC/libRTX_V8MMN.a(rtx_msgqueue.o)
 .comment       0x00000000000000be       0x76 ../../lib/ext/tfm_test_repo-src/CMSIS/RTOS2/RTX/Library/GCC/libRTX_V8MMN.a(rtx_mempool.o)
 .comment       0x00000000000000be       0x76 ../../lib/ext/tfm_test_repo-src/CMSIS/RTOS2/RTX/Library/GCC/libRTX_V8MMN.a(rtx_memory.o)
 .comment       0x00000000000000be       0x76 ../../lib/ext/tfm_test_repo-src/CMSIS/RTOS2/RTX/Library/GCC/libRTX_V8MMN.a(rtx_mutex.o)
 .comment       0x00000000000000be       0x76 ../../lib/ext/tfm_test_repo-src/CMSIS/RTOS2/RTX/Library/GCC/libRTX_V8MMN.a(rtx_thread.o)
 .comment       0x00000000000000be       0x76 ../../lib/ext/tfm_test_repo-src/CMSIS/RTOS2/RTX/Library/GCC/libRTX_V8MMN.a(rtx_kernel.o)
 .comment       0x00000000000000be       0x76 ../../lib/ext/tfm_test_repo-src/CMSIS/RTOS2/RTX/Library/GCC/libRTX_V8MMN.a(os_systick.o)
 .comment       0x00000000000000be       0x76 ../../lib/ext/tfm_test_repo-src/CMSIS/RTOS2/RTX/Library/GCC/libRTX_V8MMN.a(rtx_timer.o)
 .comment       0x00000000000000be       0x4a libtfm_api_ns.a(tfm_ns_interface.o)

.debug_info     0x0000000000000000    0x2876f
 .debug_info    0x0000000000000000      0x414 CMakeFiles/tfm_ns.dir/main_ns.o
 .debug_info    0x0000000000000414      0xba6 CMakeFiles/tfm_ns.dir/__/__/__/__/__/platform/ext/target/stm/common/stm32l5xx/Device/Source/startup_stm32l5xx_ns.o
 .debug_info    0x0000000000000fba      0x141 CMakeFiles/tfm_ns.dir/__/ns_interface/ns_client_ext/tz_shim_layer.o
 .debug_info    0x00000000000010fb       0xf7 CMakeFiles/tfm_ns.dir/__/CMSIS/RTOS2/RTX/Config/RTX_Config.o
 .debug_info    0x00000000000011f2      0xba5 CMakeFiles/tfm_ns.dir/__/CMSIS/RTOS2/RTX/Source/rtx_lib.o
 .debug_info    0x0000000000001d97      0xc5d CMakeFiles/tfm_ns.dir/os_wrapper_cmsis_rtos_v2.o
 .debug_info    0x00000000000029f4      0x583 CMakeFiles/tfm_ns.dir/__/log/tfm_log_raw.o
 .debug_info    0x0000000000002f77      0x88b ../../platform/ns/libplatform_ns.a(uart_stdout.o)
 .debug_info    0x0000000000003802      0x4fd ../../platform/ns/libplatform_ns.a(system_stm32l5xx.o)
 .debug_info    0x0000000000003cff     0x1538 ../../platform/ns/libplatform_ns.a(low_level_com.o)
 .debug_info    0x0000000000005237      0xf31 ../../platform/ns/libplatform_ns.a(stm32l5xx_hal_pwr_ex.o)
 .debug_info    0x0000000000006168      0x69e ../../platform/ns/libplatform_ns.a(stm32l5xx_hal_gpio.o)
 .debug_info    0x0000000000006806     0x26b9 ../../platform/ns/libplatform_ns.a(stm32l5xx_hal_uart.o)
 .debug_info    0x0000000000008ebf      0xe4a ../../platform/ns/libplatform_ns.a(stm32l5xx_hal.o)
 .debug_info    0x0000000000009d09     0x1353 ../../platform/ns/libplatform_ns.a(stm32l5xx_hal_rcc.o)
 .debug_info    0x000000000000b05c       0x72 libtfm_test_app.a(test_app.o)
 .debug_info    0x000000000000b0ce       0x26 ../../lib/ext/tfm_test_repo-src/CMSIS/RTOS2/RTX/Library/GCC/libRTX_V8MMN.a(irq_armv8mml.o)
 .debug_info    0x000000000000b0f4     0x2487 ../../lib/ext/tfm_test_repo-src/CMSIS/RTOS2/RTX/Library/GCC/libRTX_V8MMN.a(rtx_system.o)
 .debug_info    0x000000000000d57b     0x442b ../../lib/ext/tfm_test_repo-src/CMSIS/RTOS2/RTX/Library/GCC/libRTX_V8MMN.a(rtx_msgqueue.o)
 .debug_info    0x00000000000119a6     0x3fb7 ../../lib/ext/tfm_test_repo-src/CMSIS/RTOS2/RTX/Library/GCC/libRTX_V8MMN.a(rtx_mempool.o)
 .debug_info    0x000000000001595d     0x1ffe ../../lib/ext/tfm_test_repo-src/CMSIS/RTOS2/RTX/Library/GCC/libRTX_V8MMN.a(rtx_memory.o)
 .debug_info    0x000000000001795b     0x2b74 ../../lib/ext/tfm_test_repo-src/CMSIS/RTOS2/RTX/Library/GCC/libRTX_V8MMN.a(rtx_mutex.o)
 .debug_info    0x000000000001a4cf     0x6ec8 ../../lib/ext/tfm_test_repo-src/CMSIS/RTOS2/RTX/Library/GCC/libRTX_V8MMN.a(rtx_thread.o)
 .debug_info    0x0000000000021397     0x3ed0 ../../lib/ext/tfm_test_repo-src/CMSIS/RTOS2/RTX/Library/GCC/libRTX_V8MMN.a(rtx_kernel.o)
 .debug_info    0x0000000000025267      0x688 ../../lib/ext/tfm_test_repo-src/CMSIS/RTOS2/RTX/Library/GCC/libRTX_V8MMN.a(os_systick.o)
 .debug_info    0x00000000000258ef     0x2c72 ../../lib/ext/tfm_test_repo-src/CMSIS/RTOS2/RTX/Library/GCC/libRTX_V8MMN.a(rtx_timer.o)
 .debug_info    0x0000000000028561      0x20e libtfm_api_ns.a(tfm_ns_interface.o)

.debug_abbrev   0x0000000000000000     0x4ba9
 .debug_abbrev  0x0000000000000000      0x152 CMakeFiles/tfm_ns.dir/main_ns.o
 .debug_abbrev  0x0000000000000152      0x1d2 CMakeFiles/tfm_ns.dir/__/__/__/__/__/platform/ext/target/stm/common/stm32l5xx/Device/Source/startup_stm32l5xx_ns.o
 .debug_abbrev  0x0000000000000324       0xbb CMakeFiles/tfm_ns.dir/__/ns_interface/ns_client_ext/tz_shim_layer.o
 .debug_abbrev  0x00000000000003df       0x8f CMakeFiles/tfm_ns.dir/__/CMSIS/RTOS2/RTX/Config/RTX_Config.o
 .debug_abbrev  0x000000000000046e      0x1b7 CMakeFiles/tfm_ns.dir/__/CMSIS/RTOS2/RTX/Source/rtx_lib.o
 .debug_abbrev  0x0000000000000625      0x285 CMakeFiles/tfm_ns.dir/os_wrapper_cmsis_rtos_v2.o
 .debug_abbrev  0x00000000000008aa      0x273 CMakeFiles/tfm_ns.dir/__/log/tfm_log_raw.o
 .debug_abbrev  0x0000000000000b1d      0x2e9 ../../platform/ns/libplatform_ns.a(uart_stdout.o)
 .debug_abbrev  0x0000000000000e06      0x12a ../../platform/ns/libplatform_ns.a(system_stm32l5xx.o)
 .debug_abbrev  0x0000000000000f30      0x30f ../../platform/ns/libplatform_ns.a(low_level_com.o)
 .debug_abbrev  0x000000000000123f      0x2e2 ../../platform/ns/libplatform_ns.a(stm32l5xx_hal_pwr_ex.o)
 .debug_abbrev  0x0000000000001521      0x235 ../../platform/ns/libplatform_ns.a(stm32l5xx_hal_gpio.o)
 .debug_abbrev  0x0000000000001756      0x3b8 ../../platform/ns/libplatform_ns.a(stm32l5xx_hal_uart.o)
 .debug_abbrev  0x0000000000001b0e      0x305 ../../platform/ns/libplatform_ns.a(stm32l5xx_hal.o)
 .debug_abbrev  0x0000000000001e13      0x2e2 ../../platform/ns/libplatform_ns.a(stm32l5xx_hal_rcc.o)
 .debug_abbrev  0x00000000000020f5       0x78 libtfm_test_app.a(test_app.o)
 .debug_abbrev  0x000000000000216d       0x14 ../../lib/ext/tfm_test_repo-src/CMSIS/RTOS2/RTX/Library/GCC/libRTX_V8MMN.a(irq_armv8mml.o)
 .debug_abbrev  0x0000000000002181      0x3f1 ../../lib/ext/tfm_test_repo-src/CMSIS/RTOS2/RTX/Library/GCC/libRTX_V8MMN.a(rtx_system.o)
 .debug_abbrev  0x0000000000002572      0x578 ../../lib/ext/tfm_test_repo-src/CMSIS/RTOS2/RTX/Library/GCC/libRTX_V8MMN.a(rtx_msgqueue.o)
 .debug_abbrev  0x0000000000002aea      0x572 ../../lib/ext/tfm_test_repo-src/CMSIS/RTOS2/RTX/Library/GCC/libRTX_V8MMN.a(rtx_mempool.o)
 .debug_abbrev  0x000000000000305c      0x33d ../../lib/ext/tfm_test_repo-src/CMSIS/RTOS2/RTX/Library/GCC/libRTX_V8MMN.a(rtx_memory.o)
 .debug_abbrev  0x0000000000003399      0x48a ../../lib/ext/tfm_test_repo-src/CMSIS/RTOS2/RTX/Library/GCC/libRTX_V8MMN.a(rtx_mutex.o)
 .debug_abbrev  0x0000000000003823      0x5de ../../lib/ext/tfm_test_repo-src/CMSIS/RTOS2/RTX/Library/GCC/libRTX_V8MMN.a(rtx_thread.o)
 .debug_abbrev  0x0000000000003e01      0x5cb ../../lib/ext/tfm_test_repo-src/CMSIS/RTOS2/RTX/Library/GCC/libRTX_V8MMN.a(rtx_kernel.o)
 .debug_abbrev  0x00000000000043cc      0x1b0 ../../lib/ext/tfm_test_repo-src/CMSIS/RTOS2/RTX/Library/GCC/libRTX_V8MMN.a(os_systick.o)
 .debug_abbrev  0x000000000000457c      0x525 ../../lib/ext/tfm_test_repo-src/CMSIS/RTOS2/RTX/Library/GCC/libRTX_V8MMN.a(rtx_timer.o)
 .debug_abbrev  0x0000000000004aa1      0x108 libtfm_api_ns.a(tfm_ns_interface.o)

.debug_aranges  0x0000000000000000     0x1260
 .debug_aranges
                0x0000000000000000       0x38 CMakeFiles/tfm_ns.dir/main_ns.o
 .debug_aranges
                0x0000000000000038      0x3b8 CMakeFiles/tfm_ns.dir/__/__/__/__/__/platform/ext/target/stm/common/stm32l5xx/Device/Source/startup_stm32l5xx_ns.o
 .debug_aranges
                0x00000000000003f0       0x28 CMakeFiles/tfm_ns.dir/__/ns_interface/ns_client_ext/tz_shim_layer.o
 .debug_aranges
                0x0000000000000418       0x28 CMakeFiles/tfm_ns.dir/__/CMSIS/RTOS2/RTX/Config/RTX_Config.o
 .debug_aranges
                0x0000000000000440       0x20 CMakeFiles/tfm_ns.dir/__/CMSIS/RTOS2/RTX/Source/rtx_lib.o
 .debug_aranges
                0x0000000000000460       0xb0 CMakeFiles/tfm_ns.dir/os_wrapper_cmsis_rtos_v2.o
 .debug_aranges
                0x0000000000000510       0x40 CMakeFiles/tfm_ns.dir/__/log/tfm_log_raw.o
 .debug_aranges
                0x0000000000000550       0x38 ../../platform/ns/libplatform_ns.a(uart_stdout.o)
 .debug_aranges
                0x0000000000000588       0x28 ../../platform/ns/libplatform_ns.a(system_stm32l5xx.o)
 .debug_aranges
                0x00000000000005b0       0x80 ../../platform/ns/libplatform_ns.a(low_level_com.o)
 .debug_aranges
                0x0000000000000630      0x1a0 ../../platform/ns/libplatform_ns.a(stm32l5xx_hal_pwr_ex.o)
 .debug_aranges
                0x00000000000007d0       0x58 ../../platform/ns/libplatform_ns.a(stm32l5xx_hal_gpio.o)
 .debug_aranges
                0x0000000000000828      0x1f0 ../../platform/ns/libplatform_ns.a(stm32l5xx_hal_uart.o)
 .debug_aranges
                0x0000000000000a18      0x128 ../../platform/ns/libplatform_ns.a(stm32l5xx_hal.o)
 .debug_aranges
                0x0000000000000b40       0x98 ../../platform/ns/libplatform_ns.a(stm32l5xx_hal_rcc.o)
 .debug_aranges
                0x0000000000000bd8       0x20 libtfm_test_app.a(test_app.o)
 .debug_aranges
                0x0000000000000bf8       0x20 ../../lib/ext/tfm_test_repo-src/CMSIS/RTOS2/RTX/Library/GCC/libRTX_V8MMN.a(irq_armv8mml.o)
 .debug_aranges
                0x0000000000000c18       0x30 ../../lib/ext/tfm_test_repo-src/CMSIS/RTOS2/RTX/Library/GCC/libRTX_V8MMN.a(rtx_system.o)
 .debug_aranges
                0x0000000000000c48       0xc0 ../../lib/ext/tfm_test_repo-src/CMSIS/RTOS2/RTX/Library/GCC/libRTX_V8MMN.a(rtx_msgqueue.o)
 .debug_aranges
                0x0000000000000d08       0xc8 ../../lib/ext/tfm_test_repo-src/CMSIS/RTOS2/RTX/Library/GCC/libRTX_V8MMN.a(rtx_mempool.o)
 .debug_aranges
                0x0000000000000dd0       0x30 ../../lib/ext/tfm_test_repo-src/CMSIS/RTOS2/RTX/Library/GCC/libRTX_V8MMN.a(rtx_memory.o)
 .debug_aranges
                0x0000000000000e00       0x80 ../../lib/ext/tfm_test_repo-src/CMSIS/RTOS2/RTX/Library/GCC/libRTX_V8MMN.a(rtx_mutex.o)
 .debug_aranges
                0x0000000000000e80      0x1e0 ../../lib/ext/tfm_test_repo-src/CMSIS/RTOS2/RTX/Library/GCC/libRTX_V8MMN.a(rtx_thread.o)
 .debug_aranges
                0x0000000000001060       0xf0 ../../lib/ext/tfm_test_repo-src/CMSIS/RTOS2/RTX/Library/GCC/libRTX_V8MMN.a(rtx_kernel.o)
 .debug_aranges
                0x0000000000001150       0x60 ../../lib/ext/tfm_test_repo-src/CMSIS/RTOS2/RTX/Library/GCC/libRTX_V8MMN.a(os_systick.o)
 .debug_aranges
                0x00000000000011b0       0x88 ../../lib/ext/tfm_test_repo-src/CMSIS/RTOS2/RTX/Library/GCC/libRTX_V8MMN.a(rtx_timer.o)
 .debug_aranges
                0x0000000000001238       0x28 libtfm_api_ns.a(tfm_ns_interface.o)

.debug_ranges   0x0000000000000000     0x31f8
 .debug_ranges  0x0000000000000000       0x28 CMakeFiles/tfm_ns.dir/main_ns.o
 .debug_ranges  0x0000000000000028      0x410 CMakeFiles/tfm_ns.dir/__/__/__/__/__/platform/ext/target/stm/common/stm32l5xx/Device/Source/startup_stm32l5xx_ns.o
 .debug_ranges  0x0000000000000438       0x18 CMakeFiles/tfm_ns.dir/__/ns_interface/ns_client_ext/tz_shim_layer.o
 .debug_ranges  0x0000000000000450       0x18 CMakeFiles/tfm_ns.dir/__/CMSIS/RTOS2/RTX/Config/RTX_Config.o
 .debug_ranges  0x0000000000000468       0x10 CMakeFiles/tfm_ns.dir/__/CMSIS/RTOS2/RTX/Source/rtx_lib.o
 .debug_ranges  0x0000000000000478       0xa0 CMakeFiles/tfm_ns.dir/os_wrapper_cmsis_rtos_v2.o
 .debug_ranges  0x0000000000000518       0x60 CMakeFiles/tfm_ns.dir/__/log/tfm_log_raw.o
 .debug_ranges  0x0000000000000578       0x40 ../../platform/ns/libplatform_ns.a(uart_stdout.o)
 .debug_ranges  0x00000000000005b8       0x18 ../../platform/ns/libplatform_ns.a(system_stm32l5xx.o)
 .debug_ranges  0x00000000000005d0       0xd0 ../../platform/ns/libplatform_ns.a(low_level_com.o)
 .debug_ranges  0x00000000000006a0      0x190 ../../platform/ns/libplatform_ns.a(stm32l5xx_hal_pwr_ex.o)
 .debug_ranges  0x0000000000000830       0x48 ../../platform/ns/libplatform_ns.a(stm32l5xx_hal_gpio.o)
 .debug_ranges  0x0000000000000878      0x210 ../../platform/ns/libplatform_ns.a(stm32l5xx_hal_uart.o)
 .debug_ranges  0x0000000000000a88      0x118 ../../platform/ns/libplatform_ns.a(stm32l5xx_hal.o)
 .debug_ranges  0x0000000000000ba0      0x100 ../../platform/ns/libplatform_ns.a(stm32l5xx_hal_rcc.o)
 .debug_ranges  0x0000000000000ca0       0x10 libtfm_test_app.a(test_app.o)
 .debug_ranges  0x0000000000000cb0       0xe8 ../../lib/ext/tfm_test_repo-src/CMSIS/RTOS2/RTX/Library/GCC/libRTX_V8MMN.a(rtx_system.o)
 .debug_ranges  0x0000000000000d98      0x5f8 ../../lib/ext/tfm_test_repo-src/CMSIS/RTOS2/RTX/Library/GCC/libRTX_V8MMN.a(rtx_msgqueue.o)
 .debug_ranges  0x0000000000001390      0x5a8 ../../lib/ext/tfm_test_repo-src/CMSIS/RTOS2/RTX/Library/GCC/libRTX_V8MMN.a(rtx_mempool.o)
 .debug_ranges  0x0000000000001938       0xa0 ../../lib/ext/tfm_test_repo-src/CMSIS/RTOS2/RTX/Library/GCC/libRTX_V8MMN.a(rtx_memory.o)
 .debug_ranges  0x00000000000019d8      0x180 ../../lib/ext/tfm_test_repo-src/CMSIS/RTOS2/RTX/Library/GCC/libRTX_V8MMN.a(rtx_mutex.o)
 .debug_ranges  0x0000000000001b58     0x1048 ../../lib/ext/tfm_test_repo-src/CMSIS/RTOS2/RTX/Library/GCC/libRTX_V8MMN.a(rtx_thread.o)
 .debug_ranges  0x0000000000002ba0      0x3f0 ../../lib/ext/tfm_test_repo-src/CMSIS/RTOS2/RTX/Library/GCC/libRTX_V8MMN.a(rtx_kernel.o)
 .debug_ranges  0x0000000000002f90       0x50 ../../lib/ext/tfm_test_repo-src/CMSIS/RTOS2/RTX/Library/GCC/libRTX_V8MMN.a(os_systick.o)
 .debug_ranges  0x0000000000002fe0      0x200 ../../lib/ext/tfm_test_repo-src/CMSIS/RTOS2/RTX/Library/GCC/libRTX_V8MMN.a(rtx_timer.o)
 .debug_ranges  0x00000000000031e0       0x18 libtfm_api_ns.a(tfm_ns_interface.o)

.debug_line     0x0000000000000000    0x1324d
 .debug_line    0x0000000000000000      0x303 CMakeFiles/tfm_ns.dir/main_ns.o
 .debug_line    0x0000000000000303     0x117d CMakeFiles/tfm_ns.dir/__/__/__/__/__/platform/ext/target/stm/common/stm32l5xx/Device/Source/startup_stm32l5xx_ns.o
 .debug_line    0x0000000000001480      0x1d4 CMakeFiles/tfm_ns.dir/__/ns_interface/ns_client_ext/tz_shim_layer.o
 .debug_line    0x0000000000001654      0x17d CMakeFiles/tfm_ns.dir/__/CMSIS/RTOS2/RTX/Config/RTX_Config.o
 .debug_line    0x00000000000017d1      0x211 CMakeFiles/tfm_ns.dir/__/CMSIS/RTOS2/RTX/Source/rtx_lib.o
 .debug_line    0x00000000000019e2      0x5a9 CMakeFiles/tfm_ns.dir/os_wrapper_cmsis_rtos_v2.o
 .debug_line    0x0000000000001f8b      0x4ca CMakeFiles/tfm_ns.dir/__/log/tfm_log_raw.o
 .debug_line    0x0000000000002455      0x2b9 ../../platform/ns/libplatform_ns.a(uart_stdout.o)
 .debug_line    0x000000000000270e      0x2bb ../../platform/ns/libplatform_ns.a(system_stm32l5xx.o)
 .debug_line    0x00000000000029c9      0x533 ../../platform/ns/libplatform_ns.a(low_level_com.o)
 .debug_line    0x0000000000002efc      0xbc7 ../../platform/ns/libplatform_ns.a(stm32l5xx_hal_pwr_ex.o)
 .debug_line    0x0000000000003ac3      0x75b ../../platform/ns/libplatform_ns.a(stm32l5xx_hal_gpio.o)
 .debug_line    0x000000000000421e     0x2a2a ../../platform/ns/libplatform_ns.a(stm32l5xx_hal_uart.o)
 .debug_line    0x0000000000006c48      0x782 ../../platform/ns/libplatform_ns.a(stm32l5xx_hal.o)
 .debug_line    0x00000000000073ca     0x129f ../../platform/ns/libplatform_ns.a(stm32l5xx_hal_rcc.o)
 .debug_line    0x0000000000008669      0x105 libtfm_test_app.a(test_app.o)
 .debug_line    0x000000000000876e       0xc2 ../../lib/ext/tfm_test_repo-src/CMSIS/RTOS2/RTX/Library/GCC/libRTX_V8MMN.a(irq_armv8mml.o)
 .debug_line    0x0000000000008830      0x57a ../../lib/ext/tfm_test_repo-src/CMSIS/RTOS2/RTX/Library/GCC/libRTX_V8MMN.a(rtx_system.o)
 .debug_line    0x0000000000008daa     0x1b10 ../../lib/ext/tfm_test_repo-src/CMSIS/RTOS2/RTX/Library/GCC/libRTX_V8MMN.a(rtx_msgqueue.o)
 .debug_line    0x000000000000a8ba     0x1564 ../../lib/ext/tfm_test_repo-src/CMSIS/RTOS2/RTX/Library/GCC/libRTX_V8MMN.a(rtx_mempool.o)
 .debug_line    0x000000000000be1e      0x5b1 ../../lib/ext/tfm_test_repo-src/CMSIS/RTOS2/RTX/Library/GCC/libRTX_V8MMN.a(rtx_memory.o)
 .debug_line    0x000000000000c3cf      0xc29 ../../lib/ext/tfm_test_repo-src/CMSIS/RTOS2/RTX/Library/GCC/libRTX_V8MMN.a(rtx_mutex.o)
 .debug_line    0x000000000000cff8     0x3c28 ../../lib/ext/tfm_test_repo-src/CMSIS/RTOS2/RTX/Library/GCC/libRTX_V8MMN.a(rtx_thread.o)
 .debug_line    0x0000000000010c20     0x138b ../../lib/ext/tfm_test_repo-src/CMSIS/RTOS2/RTX/Library/GCC/libRTX_V8MMN.a(rtx_kernel.o)
 .debug_line    0x0000000000011fab      0x376 ../../lib/ext/tfm_test_repo-src/CMSIS/RTOS2/RTX/Library/GCC/libRTX_V8MMN.a(os_systick.o)
 .debug_line    0x0000000000012321      0xcab ../../lib/ext/tfm_test_repo-src/CMSIS/RTOS2/RTX/Library/GCC/libRTX_V8MMN.a(rtx_timer.o)
 .debug_line    0x0000000000012fcc      0x281 libtfm_api_ns.a(tfm_ns_interface.o)

.debug_str      0x0000000000000000     0x7001
 .debug_str     0x0000000000000000      0x6bc CMakeFiles/tfm_ns.dir/main_ns.o
                                        0x732 (size before relaxing)
 .debug_str     0x00000000000006bc      0x9bf CMakeFiles/tfm_ns.dir/__/__/__/__/__/platform/ext/target/stm/common/stm32l5xx/Device/Source/startup_stm32l5xx_ns.o
                                        0xbb5 (size before relaxing)
 .debug_str     0x000000000000107b       0xe7 CMakeFiles/tfm_ns.dir/__/ns_interface/ns_client_ext/tz_shim_layer.o
                                        0x299 (size before relaxing)
 .debug_str     0x0000000000001162       0x9d CMakeFiles/tfm_ns.dir/__/CMSIS/RTOS2/RTX/Config/RTX_Config.o
                                        0x244 (size before relaxing)
 .debug_str     0x00000000000011ff      0x594 CMakeFiles/tfm_ns.dir/__/CMSIS/RTOS2/RTX/Source/rtx_lib.o
                                        0xc37 (size before relaxing)
 .debug_str     0x0000000000001793      0x4da CMakeFiles/tfm_ns.dir/os_wrapper_cmsis_rtos_v2.o
                                        0xb51 (size before relaxing)
 .debug_str     0x0000000000001c6d      0x145 CMakeFiles/tfm_ns.dir/__/log/tfm_log_raw.o
                                        0x339 (size before relaxing)
 .debug_str     0x0000000000001db2      0x2e9 ../../platform/ns/libplatform_ns.a(uart_stdout.o)
                                        0x5d4 (size before relaxing)
 .debug_str     0x000000000000209b      0x2a4 ../../platform/ns/libplatform_ns.a(system_stm32l5xx.o)
                                        0x466 (size before relaxing)
 .debug_str     0x000000000000233f      0x7a6 ../../platform/ns/libplatform_ns.a(low_level_com.o)
                                        0xf21 (size before relaxing)
 .debug_str     0x0000000000002ae5      0x900 ../../platform/ns/libplatform_ns.a(stm32l5xx_hal_pwr_ex.o)
                                        0xb78 (size before relaxing)
 .debug_str     0x00000000000033e5      0x16e ../../platform/ns/libplatform_ns.a(stm32l5xx_hal_gpio.o)
                                        0x49e (size before relaxing)
 .debug_str     0x0000000000003553      0x94a ../../platform/ns/libplatform_ns.a(stm32l5xx_hal_uart.o)
                                       0x12c3 (size before relaxing)
 .debug_str     0x0000000000003e9d      0xaaa ../../platform/ns/libplatform_ns.a(stm32l5xx_hal.o)
                                        0xeea (size before relaxing)
 .debug_str     0x0000000000004947      0x493 ../../platform/ns/libplatform_ns.a(stm32l5xx_hal_rcc.o)
                                        0xa65 (size before relaxing)
 .debug_str     0x0000000000004dda       0x5d libtfm_test_app.a(test_app.o)
                                        0x17a (size before relaxing)
 .debug_str     0x0000000000004e37       0x6e ../../lib/ext/tfm_test_repo-src/CMSIS/RTOS2/RTX/Library/GCC/libRTX_V8MMN.a(irq_armv8mml.o)
 .debug_str     0x0000000000004ea5      0x87e ../../lib/ext/tfm_test_repo-src/CMSIS/RTOS2/RTX/Library/GCC/libRTX_V8MMN.a(rtx_system.o)
                                       0x12ca (size before relaxing)
 .debug_str     0x0000000000005723      0x534 ../../lib/ext/tfm_test_repo-src/CMSIS/RTOS2/RTX/Library/GCC/libRTX_V8MMN.a(rtx_msgqueue.o)
                                       0x1620 (size before relaxing)
 .debug_str     0x0000000000005c57      0x36e ../../lib/ext/tfm_test_repo-src/CMSIS/RTOS2/RTX/Library/GCC/libRTX_V8MMN.a(rtx_mempool.o)
                                       0x159d (size before relaxing)
 .debug_str     0x0000000000005fc5       0x83 ../../lib/ext/tfm_test_repo-src/CMSIS/RTOS2/RTX/Library/GCC/libRTX_V8MMN.a(rtx_memory.o)
                                       0x104a (size before relaxing)
 .debug_str     0x0000000000006048      0x171 ../../lib/ext/tfm_test_repo-src/CMSIS/RTOS2/RTX/Library/GCC/libRTX_V8MMN.a(rtx_mutex.o)
                                       0x1370 (size before relaxing)
 .debug_str     0x00000000000061b9      0x674 ../../lib/ext/tfm_test_repo-src/CMSIS/RTOS2/RTX/Library/GCC/libRTX_V8MMN.a(rtx_thread.o)
                                       0x1a88 (size before relaxing)
 .debug_str     0x000000000000682d      0x470 ../../lib/ext/tfm_test_repo-src/CMSIS/RTOS2/RTX/Library/GCC/libRTX_V8MMN.a(rtx_kernel.o)
                                       0x1785 (size before relaxing)
 .debug_str     0x0000000000006c9d       0xdc ../../lib/ext/tfm_test_repo-src/CMSIS/RTOS2/RTX/Library/GCC/libRTX_V8MMN.a(os_systick.o)
                                        0x507 (size before relaxing)
 .debug_str     0x0000000000006d79      0x1e5 ../../lib/ext/tfm_test_repo-src/CMSIS/RTOS2/RTX/Library/GCC/libRTX_V8MMN.a(rtx_timer.o)
                                       0x1316 (size before relaxing)
 .debug_str     0x0000000000006f5e       0xa3 libtfm_api_ns.a(tfm_ns_interface.o)
                                        0x2c0 (size before relaxing)

.debug_frame    0x0000000000000000     0x37d8
 .debug_frame   0x0000000000000000       0x68 CMakeFiles/tfm_ns.dir/main_ns.o
 .debug_frame   0x0000000000000068      0x758 CMakeFiles/tfm_ns.dir/__/__/__/__/__/platform/ext/target/stm/common/stm32l5xx/Device/Source/startup_stm32l5xx_ns.o
 .debug_frame   0x00000000000007c0       0x60 CMakeFiles/tfm_ns.dir/__/ns_interface/ns_client_ext/tz_shim_layer.o
 .debug_frame   0x0000000000000820       0x30 CMakeFiles/tfm_ns.dir/__/CMSIS/RTOS2/RTX/Config/RTX_Config.o
 .debug_frame   0x0000000000000850       0x20 CMakeFiles/tfm_ns.dir/__/CMSIS/RTOS2/RTX/Source/rtx_lib.o
 .debug_frame   0x0000000000000870      0x1dc CMakeFiles/tfm_ns.dir/os_wrapper_cmsis_rtos_v2.o
 .debug_frame   0x0000000000000a4c       0xd0 CMakeFiles/tfm_ns.dir/__/log/tfm_log_raw.o
 .debug_frame   0x0000000000000b1c       0x7c ../../platform/ns/libplatform_ns.a(uart_stdout.o)
 .debug_frame   0x0000000000000b98       0x38 ../../platform/ns/libplatform_ns.a(system_stm32l5xx.o)
 .debug_frame   0x0000000000000bd0      0x128 ../../platform/ns/libplatform_ns.a(low_level_com.o)
 .debug_frame   0x0000000000000cf8      0x36c ../../platform/ns/libplatform_ns.a(stm32l5xx_hal_pwr_ex.o)
 .debug_frame   0x0000000000001064       0xe4 ../../platform/ns/libplatform_ns.a(stm32l5xx_hal_gpio.o)
 .debug_frame   0x0000000000001148      0x688 ../../platform/ns/libplatform_ns.a(stm32l5xx_hal_uart.o)
 .debug_frame   0x00000000000017d0      0x280 ../../platform/ns/libplatform_ns.a(stm32l5xx_hal.o)
 .debug_frame   0x0000000000001a50      0x1a4 ../../platform/ns/libplatform_ns.a(stm32l5xx_hal_rcc.o)
 .debug_frame   0x0000000000001bf4       0x28 libtfm_test_app.a(test_app.o)
 .debug_frame   0x0000000000001c1c       0x84 ../../lib/ext/tfm_test_repo-src/CMSIS/RTOS2/RTX/Library/GCC/libRTX_V8MMN.a(rtx_system.o)
 .debug_frame   0x0000000000001ca0      0x204 ../../lib/ext/tfm_test_repo-src/CMSIS/RTOS2/RTX/Library/GCC/libRTX_V8MMN.a(rtx_msgqueue.o)
 .debug_frame   0x0000000000001ea4      0x21c ../../lib/ext/tfm_test_repo-src/CMSIS/RTOS2/RTX/Library/GCC/libRTX_V8MMN.a(rtx_mempool.o)
 .debug_frame   0x00000000000020c0       0xa4 ../../lib/ext/tfm_test_repo-src/CMSIS/RTOS2/RTX/Library/GCC/libRTX_V8MMN.a(rtx_memory.o)
 .debug_frame   0x0000000000002164      0x134 ../../lib/ext/tfm_test_repo-src/CMSIS/RTOS2/RTX/Library/GCC/libRTX_V8MMN.a(rtx_mutex.o)
 .debug_frame   0x0000000000002298      0x54c ../../lib/ext/tfm_test_repo-src/CMSIS/RTOS2/RTX/Library/GCC/libRTX_V8MMN.a(rtx_thread.o)
 .debug_frame   0x00000000000027e4      0x234 ../../lib/ext/tfm_test_repo-src/CMSIS/RTOS2/RTX/Library/GCC/libRTX_V8MMN.a(rtx_kernel.o)
 .debug_frame   0x0000000000002a18       0xb0 ../../lib/ext/tfm_test_repo-src/CMSIS/RTOS2/RTX/Library/GCC/libRTX_V8MMN.a(os_systick.o)
 .debug_frame   0x0000000000002ac8      0x164 ../../lib/ext/tfm_test_repo-src/CMSIS/RTOS2/RTX/Library/GCC/libRTX_V8MMN.a(rtx_timer.o)
 .debug_frame   0x0000000000002c2c       0x48 libtfm_api_ns.a(tfm_ns_interface.o)
 .debug_frame   0x0000000000002c74       0x2c /opt/gcc-arm-none-eabi-10.3-2021.10/bin/../lib/gcc/arm-none-eabi/10.3.1/thumb/v8-m.main/nofp/libgcc.a(_aeabi_uldivmod.o)
 .debug_frame   0x0000000000002ca0       0x38 /opt/gcc-arm-none-eabi-10.3-2021.10/bin/../lib/gcc/arm-none-eabi/10.3.1/thumb/v8-m.main/nofp/libgcc.a(_udivmoddi4.o)
 .debug_frame   0x0000000000002cd8       0x40 /opt/gcc-arm-none-eabi-10.3-2021.10/bin/../lib/gcc/arm-none-eabi/10.3.1/../../../../arm-none-eabi/lib/thumb/v8-m.main/nofp/libg_nano.a(lib_a-assert.o)
 .debug_frame   0x0000000000002d18       0x28 /opt/gcc-arm-none-eabi-10.3-2021.10/bin/../lib/gcc/arm-none-eabi/10.3.1/../../../../arm-none-eabi/lib/thumb/v8-m.main/nofp/libg_nano.a(lib_a-exit.o)
 .debug_frame   0x0000000000002d40       0x64 /opt/gcc-arm-none-eabi-10.3-2021.10/bin/../lib/gcc/arm-none-eabi/10.3.1/../../../../arm-none-eabi/lib/thumb/v8-m.main/nofp/libg_nano.a(lib_a-fprintf.o)
 .debug_frame   0x0000000000002da4       0x2c /opt/gcc-arm-none-eabi-10.3-2021.10/bin/../lib/gcc/arm-none-eabi/10.3.1/../../../../arm-none-eabi/lib/thumb/v8-m.main/nofp/libg_nano.a(lib_a-init.o)
 .debug_frame   0x0000000000002dd0       0x28 /opt/gcc-arm-none-eabi-10.3-2021.10/bin/../lib/gcc/arm-none-eabi/10.3.1/../../../../arm-none-eabi/lib/thumb/v8-m.main/nofp/libg_nano.a(lib_a-memcpy-stub.o)
 .debug_frame   0x0000000000002df8       0x20 /opt/gcc-arm-none-eabi-10.3-2021.10/bin/../lib/gcc/arm-none-eabi/10.3.1/../../../../arm-none-eabi/lib/thumb/v8-m.main/nofp/libg_nano.a(lib_a-memset.o)
 .debug_frame   0x0000000000002e18       0xac /opt/gcc-arm-none-eabi-10.3-2021.10/bin/../lib/gcc/arm-none-eabi/10.3.1/../../../../arm-none-eabi/lib/thumb/v8-m.main/nofp/libg_nano.a(lib_a-nano-vfprintf.o)
 .debug_frame   0x0000000000002ec4       0x60 /opt/gcc-arm-none-eabi-10.3-2021.10/bin/../lib/gcc/arm-none-eabi/10.3.1/../../../../arm-none-eabi/lib/thumb/v8-m.main/nofp/libg_nano.a(lib_a-nano-vfprintf_i.o)
 .debug_frame   0x0000000000002f24       0x40 /opt/gcc-arm-none-eabi-10.3-2021.10/bin/../lib/gcc/arm-none-eabi/10.3.1/../../../../arm-none-eabi/lib/thumb/v8-m.main/nofp/libg_nano.a(lib_a-wbuf.o)
 .debug_frame   0x0000000000002f64       0x2c /opt/gcc-arm-none-eabi-10.3-2021.10/bin/../lib/gcc/arm-none-eabi/10.3.1/../../../../arm-none-eabi/lib/thumb/v8-m.main/nofp/libg_nano.a(lib_a-wsetup.o)
 .debug_frame   0x0000000000002f90       0x28 /opt/gcc-arm-none-eabi-10.3-2021.10/bin/../lib/gcc/arm-none-eabi/10.3.1/../../../../arm-none-eabi/lib/thumb/v8-m.main/nofp/libg_nano.a(lib_a-abort.o)
 .debug_frame   0x0000000000002fb8       0x5c /opt/gcc-arm-none-eabi-10.3-2021.10/bin/../lib/gcc/arm-none-eabi/10.3.1/../../../../arm-none-eabi/lib/thumb/v8-m.main/nofp/libg_nano.a(lib_a-fflush.o)
 .debug_frame   0x0000000000003014      0x14c /opt/gcc-arm-none-eabi-10.3-2021.10/bin/../lib/gcc/arm-none-eabi/10.3.1/../../../../arm-none-eabi/lib/thumb/v8-m.main/nofp/libg_nano.a(lib_a-findfp.o)
 .debug_frame   0x0000000000003160       0x54 /opt/gcc-arm-none-eabi-10.3-2021.10/bin/../lib/gcc/arm-none-eabi/10.3.1/../../../../arm-none-eabi/lib/thumb/v8-m.main/nofp/libg_nano.a(lib_a-fwalk.o)
 .debug_frame   0x00000000000031b4       0xb0 /opt/gcc-arm-none-eabi-10.3-2021.10/bin/../lib/gcc/arm-none-eabi/10.3.1/../../../../arm-none-eabi/lib/thumb/v8-m.main/nofp/libg_nano.a(lib_a-lock.o)
 .debug_frame   0x0000000000003264       0x58 /opt/gcc-arm-none-eabi-10.3-2021.10/bin/../lib/gcc/arm-none-eabi/10.3.1/../../../../arm-none-eabi/lib/thumb/v8-m.main/nofp/libg_nano.a(lib_a-makebuf.o)
 .debug_frame   0x00000000000032bc       0x28 /opt/gcc-arm-none-eabi-10.3-2021.10/bin/../lib/gcc/arm-none-eabi/10.3.1/../../../../arm-none-eabi/lib/thumb/v8-m.main/nofp/libg_nano.a(lib_a-memchr-stub.o)
 .debug_frame   0x00000000000032e4       0x38 /opt/gcc-arm-none-eabi-10.3-2021.10/bin/../lib/gcc/arm-none-eabi/10.3.1/../../../../arm-none-eabi/lib/thumb/v8-m.main/nofp/libg_nano.a(lib_a-nano-freer.o)
 .debug_frame   0x000000000000331c       0x4c /opt/gcc-arm-none-eabi-10.3-2021.10/bin/../lib/gcc/arm-none-eabi/10.3.1/../../../../arm-none-eabi/lib/thumb/v8-m.main/nofp/libg_nano.a(lib_a-nano-mallocr.o)
 .debug_frame   0x0000000000003368       0x2c /opt/gcc-arm-none-eabi-10.3-2021.10/bin/../lib/gcc/arm-none-eabi/10.3.1/../../../../arm-none-eabi/lib/thumb/v8-m.main/nofp/libg_nano.a(lib_a-sbrkr.o)
 .debug_frame   0x0000000000003394       0xcc /opt/gcc-arm-none-eabi-10.3-2021.10/bin/../lib/gcc/arm-none-eabi/10.3.1/../../../../arm-none-eabi/lib/thumb/v8-m.main/nofp/libg_nano.a(lib_a-signal.o)
 .debug_frame   0x0000000000003460       0x3c /opt/gcc-arm-none-eabi-10.3-2021.10/bin/../lib/gcc/arm-none-eabi/10.3.1/../../../../arm-none-eabi/lib/thumb/v8-m.main/nofp/libg_nano.a(lib_a-signalr.o)
 .debug_frame   0x000000000000349c       0x88 /opt/gcc-arm-none-eabi-10.3-2021.10/bin/../lib/gcc/arm-none-eabi/10.3.1/../../../../arm-none-eabi/lib/thumb/v8-m.main/nofp/libg_nano.a(lib_a-stdio.o)
 .debug_frame   0x0000000000003524       0x2c /opt/gcc-arm-none-eabi-10.3-2021.10/bin/../lib/gcc/arm-none-eabi/10.3.1/../../../../arm-none-eabi/lib/thumb/v8-m.main/nofp/libg_nano.a(lib_a-writer.o)
 .debug_frame   0x0000000000003550       0x2c /opt/gcc-arm-none-eabi-10.3-2021.10/bin/../lib/gcc/arm-none-eabi/10.3.1/../../../../arm-none-eabi/lib/thumb/v8-m.main/nofp/libg_nano.a(lib_a-closer.o)
 .debug_frame   0x000000000000357c       0x2c /opt/gcc-arm-none-eabi-10.3-2021.10/bin/../lib/gcc/arm-none-eabi/10.3.1/../../../../arm-none-eabi/lib/thumb/v8-m.main/nofp/libg_nano.a(lib_a-fstatr.o)
 .debug_frame   0x00000000000035a8       0x2c /opt/gcc-arm-none-eabi-10.3-2021.10/bin/../lib/gcc/arm-none-eabi/10.3.1/../../../../arm-none-eabi/lib/thumb/v8-m.main/nofp/libg_nano.a(lib_a-isattyr.o)
 .debug_frame   0x00000000000035d4       0x2c /opt/gcc-arm-none-eabi-10.3-2021.10/bin/../lib/gcc/arm-none-eabi/10.3.1/../../../../arm-none-eabi/lib/thumb/v8-m.main/nofp/libg_nano.a(lib_a-lseekr.o)
 .debug_frame   0x0000000000003600       0x30 /opt/gcc-arm-none-eabi-10.3-2021.10/bin/../lib/gcc/arm-none-eabi/10.3.1/../../../../arm-none-eabi/lib/thumb/v8-m.main/nofp/libg_nano.a(lib_a-mlock.o)
 .debug_frame   0x0000000000003630       0x2c /opt/gcc-arm-none-eabi-10.3-2021.10/bin/../lib/gcc/arm-none-eabi/10.3.1/../../../../arm-none-eabi/lib/thumb/v8-m.main/nofp/libg_nano.a(lib_a-readr.o)
 .debug_frame   0x000000000000365c       0x5c /opt/gcc-arm-none-eabi-10.3-2021.10/bin/../lib/gcc/arm-none-eabi/10.3.1/../../../../arm-none-eabi/lib/thumb/v8-m.main/nofp/libg_nano.a(lib_a-reent.o)
 .debug_frame   0x00000000000036b8       0x20 /opt/gcc-arm-none-eabi-10.3-2021.10/bin/../lib/gcc/arm-none-eabi/10.3.1/../../../../arm-none-eabi/lib/thumb/v8-m.main/nofp/libnosys.a(close.o)
 .debug_frame   0x00000000000036d8       0x20 /opt/gcc-arm-none-eabi-10.3-2021.10/bin/../lib/gcc/arm-none-eabi/10.3.1/../../../../arm-none-eabi/lib/thumb/v8-m.main/nofp/libnosys.a(fstat.o)
 .debug_frame   0x00000000000036f8       0x20 /opt/gcc-arm-none-eabi-10.3-2021.10/bin/../lib/gcc/arm-none-eabi/10.3.1/../../../../arm-none-eabi/lib/thumb/v8-m.main/nofp/libnosys.a(getpid.o)
 .debug_frame   0x0000000000003718       0x20 /opt/gcc-arm-none-eabi-10.3-2021.10/bin/../lib/gcc/arm-none-eabi/10.3.1/../../../../arm-none-eabi/lib/thumb/v8-m.main/nofp/libnosys.a(isatty.o)
 .debug_frame   0x0000000000003738       0x20 /opt/gcc-arm-none-eabi-10.3-2021.10/bin/../lib/gcc/arm-none-eabi/10.3.1/../../../../arm-none-eabi/lib/thumb/v8-m.main/nofp/libnosys.a(kill.o)
 .debug_frame   0x0000000000003758       0x20 /opt/gcc-arm-none-eabi-10.3-2021.10/bin/../lib/gcc/arm-none-eabi/10.3.1/../../../../arm-none-eabi/lib/thumb/v8-m.main/nofp/libnosys.a(lseek.o)
 .debug_frame   0x0000000000003778       0x20 /opt/gcc-arm-none-eabi-10.3-2021.10/bin/../lib/gcc/arm-none-eabi/10.3.1/../../../../arm-none-eabi/lib/thumb/v8-m.main/nofp/libnosys.a(read.o)
 .debug_frame   0x0000000000003798       0x20 /opt/gcc-arm-none-eabi-10.3-2021.10/bin/../lib/gcc/arm-none-eabi/10.3.1/../../../../arm-none-eabi/lib/thumb/v8-m.main/nofp/libnosys.a(sbrk.o)
 .debug_frame   0x00000000000037b8       0x20 /opt/gcc-arm-none-eabi-10.3-2021.10/bin/../lib/gcc/arm-none-eabi/10.3.1/../../../../arm-none-eabi/lib/thumb/v8-m.main/nofp/libnosys.a(_exit.o)

.debug_loc      0x0000000000000000    0x1242c
 .debug_loc     0x0000000000000000       0x6e CMakeFiles/tfm_ns.dir/__/__/__/__/__/platform/ext/target/stm/common/stm32l5xx/Device/Source/startup_stm32l5xx_ns.o
 .debug_loc     0x000000000000006e       0x25 CMakeFiles/tfm_ns.dir/__/ns_interface/ns_client_ext/tz_shim_layer.o
 .debug_loc     0x0000000000000093       0x3f CMakeFiles/tfm_ns.dir/__/CMSIS/RTOS2/RTX/Config/RTX_Config.o
 .debug_loc     0x00000000000000d2      0x5e8 CMakeFiles/tfm_ns.dir/os_wrapper_cmsis_rtos_v2.o
 .debug_loc     0x00000000000006ba      0x4bf CMakeFiles/tfm_ns.dir/__/log/tfm_log_raw.o
 .debug_loc     0x0000000000000b79      0x146 ../../platform/ns/libplatform_ns.a(uart_stdout.o)
 .debug_loc     0x0000000000000cbf       0xf7 ../../platform/ns/libplatform_ns.a(system_stm32l5xx.o)
 .debug_loc     0x0000000000000db6      0x1b2 ../../platform/ns/libplatform_ns.a(low_level_com.o)
 .debug_loc     0x0000000000000f68      0x877 ../../platform/ns/libplatform_ns.a(stm32l5xx_hal_pwr_ex.o)
 .debug_loc     0x00000000000017df      0x316 ../../platform/ns/libplatform_ns.a(stm32l5xx_hal_gpio.o)
 .debug_loc     0x0000000000001af5     0x2100 ../../platform/ns/libplatform_ns.a(stm32l5xx_hal_uart.o)
 .debug_loc     0x0000000000003bf5      0x2a6 ../../platform/ns/libplatform_ns.a(stm32l5xx_hal.o)
 .debug_loc     0x0000000000003e9b      0xa3d ../../platform/ns/libplatform_ns.a(stm32l5xx_hal_rcc.o)
 .debug_loc     0x00000000000048d8       0x25 libtfm_test_app.a(test_app.o)
 .debug_loc     0x00000000000048fd      0x2cd ../../lib/ext/tfm_test_repo-src/CMSIS/RTOS2/RTX/Library/GCC/libRTX_V8MMN.a(rtx_system.o)
 .debug_loc     0x0000000000004bca     0x2a23 ../../lib/ext/tfm_test_repo-src/CMSIS/RTOS2/RTX/Library/GCC/libRTX_V8MMN.a(rtx_msgqueue.o)
 .debug_loc     0x00000000000075ed     0x2201 ../../lib/ext/tfm_test_repo-src/CMSIS/RTOS2/RTX/Library/GCC/libRTX_V8MMN.a(rtx_mempool.o)
 .debug_loc     0x00000000000097ee      0x842 ../../lib/ext/tfm_test_repo-src/CMSIS/RTOS2/RTX/Library/GCC/libRTX_V8MMN.a(rtx_memory.o)
 .debug_loc     0x000000000000a030      0xbc3 ../../lib/ext/tfm_test_repo-src/CMSIS/RTOS2/RTX/Library/GCC/libRTX_V8MMN.a(rtx_mutex.o)
 .debug_loc     0x000000000000abf3     0x585e ../../lib/ext/tfm_test_repo-src/CMSIS/RTOS2/RTX/Library/GCC/libRTX_V8MMN.a(rtx_thread.o)
 .debug_loc     0x0000000000010451      0xe75 ../../lib/ext/tfm_test_repo-src/CMSIS/RTOS2/RTX/Library/GCC/libRTX_V8MMN.a(rtx_kernel.o)
 .debug_loc     0x00000000000112c6       0xd6 ../../lib/ext/tfm_test_repo-src/CMSIS/RTOS2/RTX/Library/GCC/libRTX_V8MMN.a(os_systick.o)
 .debug_loc     0x000000000001139c      0xf53 ../../lib/ext/tfm_test_repo-src/CMSIS/RTOS2/RTX/Library/GCC/libRTX_V8MMN.a(rtx_timer.o)
 .debug_loc     0x00000000000122ef      0x13d libtfm_api_ns.a(tfm_ns_interface.o)

.stab           0x0000000000000000       0xb4
 .stab          0x0000000000000000       0x24 /opt/gcc-arm-none-eabi-10.3-2021.10/bin/../lib/gcc/arm-none-eabi/10.3.1/../../../../arm-none-eabi/lib/thumb/v8-m.main/nofp/libnosys.a(close.o)
 .stab          0x0000000000000024       0x18 /opt/gcc-arm-none-eabi-10.3-2021.10/bin/../lib/gcc/arm-none-eabi/10.3.1/../../../../arm-none-eabi/lib/thumb/v8-m.main/nofp/libnosys.a(fstat.o)
                                         0x24 (size before relaxing)
 .stab          0x000000000000003c       0x18 /opt/gcc-arm-none-eabi-10.3-2021.10/bin/../lib/gcc/arm-none-eabi/10.3.1/../../../../arm-none-eabi/lib/thumb/v8-m.main/nofp/libnosys.a(getpid.o)
                                         0x24 (size before relaxing)
 .stab          0x0000000000000054       0x18 /opt/gcc-arm-none-eabi-10.3-2021.10/bin/../lib/gcc/arm-none-eabi/10.3.1/../../../../arm-none-eabi/lib/thumb/v8-m.main/nofp/libnosys.a(isatty.o)
                                         0x24 (size before relaxing)
 .stab          0x000000000000006c       0x18 /opt/gcc-arm-none-eabi-10.3-2021.10/bin/../lib/gcc/arm-none-eabi/10.3.1/../../../../arm-none-eabi/lib/thumb/v8-m.main/nofp/libnosys.a(kill.o)
                                         0x24 (size before relaxing)
 .stab          0x0000000000000084       0x18 /opt/gcc-arm-none-eabi-10.3-2021.10/bin/../lib/gcc/arm-none-eabi/10.3.1/../../../../arm-none-eabi/lib/thumb/v8-m.main/nofp/libnosys.a(lseek.o)
                                         0x24 (size before relaxing)
 .stab          0x000000000000009c       0x18 /opt/gcc-arm-none-eabi-10.3-2021.10/bin/../lib/gcc/arm-none-eabi/10.3.1/../../../../arm-none-eabi/lib/thumb/v8-m.main/nofp/libnosys.a(read.o)
                                         0x24 (size before relaxing)

.stabstr        0x0000000000000000      0x183
 .stabstr       0x0000000000000000      0x183 /opt/gcc-arm-none-eabi-10.3-2021.10/bin/../lib/gcc/arm-none-eabi/10.3.1/../../../../arm-none-eabi/lib/thumb/v8-m.main/nofp/libnosys.a(close.o)
